

Microchip MPLAB XC8 Assembler V2.46 build 20240104201356 
                                                                                               Mon May 12 16:29:47 2025

Microchip MPLAB XC8 C Compiler v2.46 (Free license) build 20240104201356 Og1 
     1                           	processor	18F47K40
     2                           	fnconf	rparam,??,?,0
     3                           	pagewidth 120
     4                           	opt	flic
     5                           	psect	idataCOMRAM,global,class=CODE,delta=1,noexec
     6                           	psect	idataBANK0,global,class=CODE,delta=1,noexec
     7                           	psect	idataBANK1,global,class=CODE,delta=1,noexec
     8                           	psect	mediumconst,global,reloc=2,class=MEDIUMCONST,delta=1,noexec
     9                           	psect	cinit,global,reloc=2,class=CODE,delta=1
    10                           	psect	bssCOMRAM,global,class=COMRAM,space=1,delta=1,lowdata,noexec
    11                           	psect	dataCOMRAM,global,class=COMRAM,space=1,delta=1,lowdata,noexec
    12                           	psect	bssBANK0,global,class=BANK0,space=1,delta=1,lowdata,noexec
    13                           	psect	dataBANK0,global,class=BANK0,space=1,delta=1,lowdata,noexec
    14                           	psect	bssBANK1,global,class=BANK1,space=1,delta=1,lowdata,noexec
    15                           	psect	dataBANK1,global,class=BANK1,space=1,delta=1,lowdata,noexec
    16                           	psect	cstackBANK1,global,class=BANK1,space=1,delta=1,lowdata,noexec
    17                           	psect	cstackBANK0,global,class=BANK0,space=1,delta=1,lowdata,noexec
    18                           	psect	cstackCOMRAM,global,class=COMRAM,space=1,delta=1,lowdata,noexec
    19                           	psect	text0,global,reloc=2,class=CODE,delta=1
    20                           	psect	text1,global,reloc=2,class=CODE,delta=1
    21                           	psect	text2,global,reloc=2,class=CODE,delta=1
    22                           	psect	text3,global,reloc=2,class=CODE,delta=1
    23                           	psect	text4,global,reloc=2,class=CODE,delta=1
    24                           	psect	text5,global,reloc=2,class=CODE,delta=1
    25                           	psect	text6,global,reloc=2,class=CODE,delta=1
    26                           	psect	text7,global,reloc=2,class=CODE,delta=1
    27                           	psect	text8,global,reloc=2,class=CODE,delta=1
    28                           	psect	text9,global,reloc=2,class=CODE,delta=1,group=1
    29                           	psect	text10,global,reloc=2,class=CODE,delta=1,group=1
    30                           	psect	text11,global,reloc=2,class=CODE,delta=1,group=1
    31                           	psect	text12,global,reloc=2,class=CODE,delta=1
    32                           	psect	text13,global,reloc=2,class=CODE,delta=1
    33                           	psect	text14,global,reloc=2,class=CODE,delta=1
    34                           	psect	text15,global,reloc=2,class=CODE,delta=1,group=1
    35                           	psect	text16,global,reloc=2,class=CODE,delta=1,group=1
    36                           	psect	text17,global,reloc=2,class=CODE,delta=1,group=1
    37                           	psect	text18,global,reloc=2,class=CODE,delta=1,group=1
    38                           	psect	text19,global,reloc=2,class=CODE,delta=1,group=1
    39                           	psect	text20,global,reloc=2,class=CODE,delta=1
    40                           	psect	text21,global,reloc=2,class=CODE,delta=1
    41                           	psect	text22,global,reloc=2,class=CODE,delta=1
    42                           	psect	text23,global,reloc=2,class=CODE,delta=1
    43                           	psect	text24,global,reloc=2,class=CODE,delta=1
    44                           	psect	text25,global,reloc=2,class=CODE,delta=1
    45                           	psect	text26,global,reloc=2,class=CODE,delta=1
    46                           	psect	text27,global,reloc=2,class=CODE,delta=1
    47                           	psect	text28,global,reloc=2,class=CODE,delta=1
    48                           	psect	text29,global,reloc=2,class=CODE,delta=1
    49                           	psect	text30,global,reloc=2,class=CODE,delta=1
    50                           	psect	intcodelo,global,reloc=2,class=CODE,delta=1
    51                           	psect	text32,global,reloc=2,class=CODE,delta=1
    52                           	psect	text33,global,reloc=2,class=CODE,delta=1
    53                           	psect	text34,global,reloc=2,class=CODE,delta=1
    54                           	psect	text35,global,reloc=2,class=CODE,delta=1
    55                           	psect	text36,global,reloc=2,class=CODE,delta=1
    56                           	psect	text37,global,reloc=2,class=CODE,delta=1,group=2
    57                           	psect	text38,global,reloc=2,class=CODE,delta=1
    58                           	psect	text39,global,reloc=2,class=CODE,delta=1
    59                           	psect	text40,global,reloc=2,class=CODE,delta=1
    60                           	psect	text41,global,reloc=2,class=CODE,delta=1
    61                           	psect	text42,global,reloc=2,class=CODE,delta=1
    62                           	psect	text43,global,reloc=2,class=CODE,delta=1,group=2
    63                           	psect	text44,global,reloc=2,class=CODE,delta=1,group=2
    64                           	psect	text45,global,reloc=2,class=CODE,delta=1,group=1
    65                           	psect	intcode,global,reloc=2,class=CODE,delta=1
    66                           	psect	intcode_body,global,reloc=2,class=CODE,delta=1
    67                           	psect	text47,global,reloc=2,class=CODE,delta=1,group=1
    68                           	psect	text48,global,reloc=2,class=CODE,delta=1,group=1
    69                           	psect	intsave_regs,global,class=BIGRAM,space=1,delta=1,noexec
    70                           	psect	rparam,global,class=COMRAM,space=1,delta=1,noexec
    71                           	psect	temp,global,ovrld,common,class=COMRAM,space=1,delta=1,lowdata
    72                           	psect	config,global,abs,ovrld,class=CONFIG,space=4,delta=1,noexec
    73   000000                     
    74                           ; Generated 12/10/2023 GMT
    75                           ; 
    76                           ; Copyright © 2023, Microchip Technology Inc. and its subsidiaries ("Microchip")
    77                           ; All rights reserved.
    78                           ; 
    79                           ; This software is developed by Microchip Technology Inc. and its subsidiaries ("Microch
      +                          ip").
    80                           ; 
    81                           ; Redistribution and use in source and binary forms, with or without modification, are
    82                           ; permitted provided that the following conditions are met:
    83                           ; 
    84                           ;     1. Redistributions of source code must retain the above copyright notice, this lis
      +                          t of
    85                           ;        conditions and the following disclaimer.
    86                           ; 
    87                           ;     2. Redistributions in binary form must reproduce the above copyright notice, this 
      +                          list
    88                           ;        of conditions and the following disclaimer in the documentation and/or other
    89                           ;        materials provided with the distribution. Publication is not required when
    90                           ;        this file is used in an embedded application.
    91                           ; 
    92                           ;     3. Microchip's name may not be used to endorse or promote products derived from th
      +                          is
    93                           ;        software without specific prior written permission.
    94                           ; 
    95                           ; THIS SOFTWARE IS PROVIDED BY MICROCHIP "AS IS" AND ANY EXPRESS OR IMPLIED WARRANTIES,
    96                           ; INCLUDING, BUT NOT LIMITED TO, THE IMPLIED WARRANTIES OF MERCHANTABILITY AND FITNESS F
      +                          OR
    97                           ; PURPOSE ARE DISCLAIMED.  IN NO EVENT SHALL MICROCHIP BE LIABLE FOR ANY DIRECT, INDIREC
      +                          T,
    98                           ; INCIDENTAL, SPECIAL, EXEMPLARY, OR CONSEQUENTIAL DAMAGES (INCLUDING BUT NOT LIMITED TO
    99                           ; PROCUREMENT OF SUBSTITUTE GOODS OR SERVICES; LOSS OF USE, DATA OR PROFITS; OR BUSINESS
   100                           ; INTERRUPTION) HOWSOEVER CAUSED AND ON ANY THEORY OF LIABILITY, WHETHER IN CONTRACT, ST
      +                          RICT
   101                           ; LIABILITY, OR TORT (INCLUDING NEGLIGENCE OR OTHERWISE) ARISING IN ANY WAY OUT OF THE U
      +                          SE OF
   102                           ; THIS SOFTWARE, EVEN IF ADVISED OF THE POSSIBILITY OF SUCH DAMAGE.
   103                           ; 
   104                           ; 
   105                           ; Code-generator required, PIC18F47K40 Definitions
   106                           ; 
   107                           ; SFR Addresses
   108   000000                     
   109                           	psect	idataCOMRAM
   110   0146AC                     __pidataCOMRAM:
   111                           	callstack 0
   112                           
   113                           ;initializer for _Old_BP_Status
   114   0146AC  01                 	db	1
   115                           
   116                           ;initializer for _BP_Status
   117   0146AD  01                 	db	1
   118                           
   119                           	psect	idataBANK0
   120   01463C                     __pidataBANK0:
   121                           	callstack 0
   122                           
   123                           ;initializer for _kim
   124   01463C  CCCD               	dw	52429
   125   01463E  3E4C               	dw	15948
   126                           
   127                           ;initializer for _kpm
   128   014640  0000               	dw	0
   129   014642  40C0               	dw	16576
   130                           
   131                           ;initializer for _tempsd
   132   014644  53D9               	dw	21465
   133   014646  0001               	dw	1
   134                           
   135                           ;initializer for _tempsg
   136   014648  53D9               	dw	21465
   137   01464A  0001               	dw	1
   138                           
   139                           ;initializer for _sigmamax
   140   01464C  012C               	dw	300
   141                           
   142                           	psect	idataBANK1
   143   0146A4                     __pidataBANK1:
   144                           	callstack 0
   145                           
   146                           ;initializer for _MAGN_Y_MIN
   147   0146A4  7D00               	dw	32000
   148                           
   149                           ;initializer for _MAGN_Y_MAX
   150   0146A6  8300               	dw	33536
   151                           
   152                           ;initializer for _MAGN_X_MIN
   153   0146A8  7D00               	dw	32000
   154                           
   155                           ;initializer for _MAGN_X_MAX
   156   0146AA  8300               	dw	33536
   157                           
   158                           	psect	mediumconst
   159   00FE72                     __pmediumconst:
   160                           	callstack 0
   161   00FE72  00                 	db	0
   162   00FE73                     _atanlo:
   163                           	callstack 0
   164   00FE73  3769               	dw	14185
   165   00FE75  31AC               	dw	12716
   166   00FE77  2168               	dw	8552
   167   00FE79  3322               	dw	13090
   168   00FE7B  0FB4               	dw	4020
   169   00FE7D  3314               	dw	13076
   170   00FE7F  2168               	dw	8552
   171   00FE81  33A2               	dw	13218
   172   00FE83                     __end_of_atanlo:
   173                           	callstack 0
   174   00FE83                     _atanhi:
   175                           	callstack 0
   176   00FE83  6338               	dw	25400
   177   00FE85  3EED               	dw	16109
   178   00FE87  0FDA               	dw	4058
   179   00FE89  3F49               	dw	16201
   180   00FE8B  985E               	dw	39006
   181   00FE8D  3F7B               	dw	16251
   182   00FE8F  0FDA               	dw	4058
   183   00FE91  3FC9               	dw	16329
   184   00FE93                     __end_of_atanhi:
   185                           	callstack 0
   186   00FE93  AC25               	dw	44069
   187   00FE95  3D7C               	dw	15740
   188   00FE97                     __end_of_aT4:
   189                           	callstack 0
   190   00FE97  1247               	dw	4679
   191   00FE99  BDDA               	dw	48602
   192   00FE9B                     __end_of_aT3:
   193                           	callstack 0
   194   00FE9B  F50D               	dw	62733
   195   00FE9D  3E11               	dw	15889
   196   00FE9F                     __end_of_aT2:
   197                           	callstack 0
   198   00FE9F  CA98               	dw	51864
   199   00FEA1  BE4C               	dw	48716
   200   00FEA3                     __end_of_aT1:
   201                           	callstack 0
   202   00FEA3  AAA9               	dw	43689
   203   00FEA5  3EAA               	dw	16042
   204   00FEA7                     __end_of_aT0:
   205                           	callstack 0
   206   000000                     _TMR1	set	4045
   207   000000                     _RC2REG	set	3737
   208   000000                     _PORTAbits	set	3981
   209   000000                     _CCPR2L	set	4006
   210   000000                     _CCPR2H	set	4007
   211   000000                     _CCP2CON	set	4008
   212   000000                     _CCPR1L	set	4010
   213   000000                     _CCPR1H	set	4011
   214   000000                     _CCP1CON	set	4012
   215   000000                     _CCPTMRS	set	4014
   216   000000                     _SSP2CON3	set	3736
   217   000000                     _SSP2CON1	set	3734
   218   000000                     _ADREF	set	3928
   219   000000                     _WPUC	set	3872
   220   000000                     _WPUB	set	3864
   221   000000                     _TRISE	set	3980
   222   000000                     _TRISD	set	3979
   223   000000                     _TRISC	set	3978
   224   000000                     _TRISB	set	3977
   225   000000                     _TRISA	set	3976
   226   000000                     _ANSELC	set	3873
   227   000000                     _ANSELB	set	3865
   228   000000                     _PMD5bits	set	3814
   229   000000                     _PMD4bits	set	3813
   230   000000                     _PMD3bits	set	3812
   231   000000                     _LATEbits	set	3975
   232   000000                     _PORTBbits	set	3982
   233   000000                     _TX2REG	set	3738
   234   000000                     _LATAbits	set	3971
   235   000000                     _RA0PPS	set	3815
   236   000000                     _PWM3CON	set	4005
   237   000000                     _NVMCON2	set	3970
   238   000000                     _NVMCON1bits	set	3969
   239   000000                     _NVMDAT	set	3968
   240   000000                     _NVMADRL	set	3966
   241   000000                     _NVMADRH	set	3967
   242   000000                     _PORTCbits	set	3983
   243   000000                     _IOCCF5	set	30933
   244   000000                     _IOCBF0	set	30864
   245   000000                     _IOCBN0	set	30872
   246   000000                     _IOCCN2	set	30938
   247   000000                     _RC2IE	set	30255
   248   000000                     _RC2STAbits	set	3741
   249   000000                     _TXSTA2bits	set	3742
   250   000000                     _RC2IF	set	30319
   251   000000                     _RC1IF	set	30317
   252   000000                     _TMR5IF	set	30324
   253   000000                     _TMR1IF	set	30320
   254   000000                     _TMR6IF	set	30325
   255   000000                     _RC2IP	set	30191
   256   000000                     _RC1IE	set	30253
   257   000000                     _RC1IP	set	30189
   258   000000                     _SSP2IE	set	30250
   259   000000                     _TMR6IP	set	30197
   260   000000                     _TMR6IE	set	30261
   261   000000                     _TMR5IP	set	30196
   262   000000                     _TMR5IE	set	30260
   263   000000                     _TMR4IP	set	30195
   264   000000                     _TMR4IE	set	30259
   265   000000                     _TMR3IP	set	30194
   266   000000                     _TMR3IE	set	30258
   267   000000                     _TMR2IP	set	30193
   268   000000                     _TMR2IE	set	30257
   269   000000                     _TMR0IP	set	30165
   270   000000                     _TMR0IE	set	30229
   271   000000                     _IOCCF2	set	30930
   272   000000                     _IOCCP5	set	30949
   273   000000                     _IOCCN5	set	30941
   274   000000                     _RC1STAbits	set	3997
   275   000000                     _T3CON	set	4041
   276   000000                     _T2PR	set	4028
   277   000000                     _TXSTA1bits	set	3998
   278   000000                     _ADCON0	set	3936
   279   000000                     _PEIE	set	32662
   280   000000                     _IPEN	set	32661
   281   000000                     _GIEL	set	32662
   282   000000                     _GIEH	set	32663
   283   000000                     _RX2PPS	set	3725
   284   000000                     _SSP2CLKPPS	set	3727
   285   000000                     _SSP2ADD	set	3731
   286   000000                     _SSP2STAT	set	3733
   287   000000                     _SSP2CON2bits	set	3735
   288   000000                     _LATBbits	set	3972
   289   000000                     _LATDbits	set	3974
   290   000000                     _PORTDbits	set	3984
   291   000000                     _RC1REG	set	3993
   292   000000                     _TX1REG	set	3994
   293   000000                     _PWM3DCH	set	4004
   294   000000                     _PR4	set	4022
   295   000000                     _T4CON	set	4023
   296   000000                     _T4CLKCON	set	4025
   297   000000                     _TMR3ON	set	32328
   298   000000                     _TMR3CLK	set	4044
   299   000000                     _T1CON	set	4047
   300   000000                     _GIE	set	32663
   301   000000                     _PR2	set	4028
   302   000000                     _RC1PPS	set	3832
   303   000000                     _RC6PPS	set	3837
   304   000000                     _WPUA	set	3856
   305   000000                     _ANSELA	set	3857
   306   000000                     _ADPCH	set	3935
   307   000000                     _T2CLKCON	set	4031
   308   000000                     _T2CON	set	4029
   309   000000                     _ADRESH	set	3940
   310   000000                     _ADGO	set	31488
   311   000000                     _SPBRG1	set	3995
   312   000000                     _RCSTA1bits	set	3997
   313   000000                     _TX1STAbits	set	3998
   314   000000                     _BAUDCON1bits	set	3999
   315   000000                     _PMD0bits	set	3809
   316   000000                     _IOCIF	set	30292
   317   000000                     _SSP2IF	set	30314
   318   000000                     _TMR1IE	set	30256
   319   000000                     _SPBRG2	set	3739
   320   000000                     _RCSTA2bits	set	3741
   321   000000                     _TX2STAbits	set	3742
   322   000000                     _RX1PPS	set	3765
   323   000000                     _BAUDCON2bits	set	3743
   324   000000                     _PMD2bits	set	3811
   325   000000                     _WPUD	set	3877
   326   000000                     _ANSELD	set	3878
   327   000000                     _WPUE	set	3885
   328   000000                     _ANSELE	set	3886
   329   000000                     _ADCLK	set	3927
   330   000000                     _ADCON1	set	3929
   331   000000                     _ADCON3	set	3931
   332   000000                     _ADCON2	set	3930
   333   000000                     _T6PR	set	4016
   334   000000                     _T6CON	set	4017
   335   000000                     _RD1PPS	set	3840
   336   000000                     _RD2PPS	set	3841
   337   000000                     _RC7PPS	set	3838
   338   000000                     _RD3PPS	set	3842
   339   000000                     _IOCAF6	set	30806
   340   000000                     _IOCAN6	set	30814
   341   000000                     _SSP2BUF	set	3730
   342   000000                     _SSP2DATPPS	set	3728
   343   000000                     _IOCIP	set	30164
   344   000000                     _IOCIE	set	30228
   345   000000                     _TMR1CLK	set	4050
   346   000000                     _TMR5	set	4033
   347   000000                     _TMR3	set	4039
   348   000000                     _T5CON	set	4035
   349   000000                     _TMR5CLK	set	4038
   350   000000                     _T6CLKCON	set	4019
   351   000000                     _SSP2IP	set	30186
   352   000000                     _TMR1IP	set	30192
   353   000000                     _TMR3IF	set	30322
   354   000000                     _IOCCP2	set	30946
   355   000000                     _IOCAP6	set	30822
   356   000000                     _IOCBP0	set	30880
   357   00FEA7                     STR_2:
   358   00FEA7  20                 	db	32
   359   00FEA8  20                 	db	32
   360   00FEA9  20                 	db	32
   361   00FEAA  20                 	db	32
   362   00FEAB  20                 	db	32
   363   00FEAC  20                 	db	32
   364   00FEAD  49                 	db	73	;'I'
   365   00FEAE  32                 	db	50	;'2'
   366   00FEAF  43                 	db	67	;'C'
   367   00FEB0  20                 	db	32
   368   00FEB1  20                 	db	32
   369   00FEB2  20                 	db	32
   370   00FEB3  20                 	db	32
   371   00FEB4  20                 	db	32
   372   00FEB5  20                 	db	32
   373   00FEB6  20                 	db	32
   374   00FEB7  00                 	db	0
   375   00FEB8                     STR_10:
   376   00FEB8  20                 	db	32
   377   00FEB9  20                 	db	32
   378   00FEBA  20                 	db	32
   379   00FEBB  20                 	db	32
   380   00FEBC  20                 	db	32
   381   00FEBD  46                 	db	70	;'F'
   382   00FEBE  49                 	db	73	;'I'
   383   00FEBF  4E                 	db	78	;'N'
   384   00FEC0  49                 	db	73	;'I'
   385   00FEC1  45                 	db	69	;'E'
   386   00FEC2  20                 	db	32
   387   00FEC3  20                 	db	32
   388   00FEC4  20                 	db	32
   389   00FEC5  20                 	db	32
   390   00FEC6  20                 	db	32
   391   00FEC7  20                 	db	32
   392   00FEC8  00                 	db	0
   393   00FEC9                     STR_4:
   394   00FEC9  20                 	db	32
   395   00FECA  20                 	db	32
   396   00FECB  20                 	db	32
   397   00FECC  20                 	db	32
   398   00FECD  49                 	db	73	;'I'
   399   00FECE  32                 	db	50	;'2'
   400   00FECF  43                 	db	67	;'C'
   401   00FED0  20                 	db	32
   402   00FED1  20                 	db	32
   403   00FED2  4F                 	db	79	;'O'
   404   00FED3  4B                 	db	75	;'K'
   405   00FED4  20                 	db	32
   406   00FED5  20                 	db	32
   407   00FED6  20                 	db	32
   408   00FED7  20                 	db	32
   409   00FED8  20                 	db	32
   410   00FED9  00                 	db	0
   411   00FEDA                     STR_8:
   412   00FEDA  20                 	db	32
   413   00FEDB  20                 	db	32
   414   00FEDC  20                 	db	32
   415   00FEDD  20                 	db	32
   416   00FEDE  45                 	db	69	;'E'
   417   00FEDF  4E                 	db	78	;'N'
   418   00FEE0  20                 	db	32
   419   00FEE1  43                 	db	67	;'C'
   420   00FEE2  4F                 	db	79	;'O'
   421   00FEE3  55                 	db	85	;'U'
   422   00FEE4  52                 	db	82	;'R'
   423   00FEE5  53                 	db	83	;'S'
   424   00FEE6  20                 	db	32
   425   00FEE7  20                 	db	32
   426   00FEE8  20                 	db	32
   427   00FEE9  20                 	db	32
   428   00FEEA  00                 	db	0
   429   00FEEB                     STR_24:
   430   00FEEB  20                 	db	32
   431   00FEEC  20                 	db	32
   432   00FEED  3E                 	db	62	;'>'
   433   00FEEE  4F                 	db	79	;'O'
   434   00FEEF  55                 	db	85	;'U'
   435   00FEF0  49                 	db	73	;'I'
   436   00FEF1  3C                 	db	60	;'<'
   437   00FEF2  20                 	db	32
   438   00FEF3  20                 	db	32
   439   00FEF4  20                 	db	32
   440   00FEF5  4E                 	db	78	;'N'
   441   00FEF6  4F                 	db	79	;'O'
   442   00FEF7  4E                 	db	78	;'N'
   443   00FEF8  20                 	db	32
   444   00FEF9  20                 	db	32
   445   00FEFA  20                 	db	32
   446   00FEFB  00                 	db	0
   447   00FEFC                     STR_25:
   448   00FEFC  20                 	db	32
   449   00FEFD  20                 	db	32
   450   00FEFE  20                 	db	32
   451   00FEFF  4F                 	db	79	;'O'
   452   00FF00  55                 	db	85	;'U'
   453   00FF01  49                 	db	73	;'I'
   454   00FF02  20                 	db	32
   455   00FF03  20                 	db	32
   456   00FF04  20                 	db	32
   457   00FF05  3E                 	db	62	;'>'
   458   00FF06  4E                 	db	78	;'N'
   459   00FF07  4F                 	db	79	;'O'
   460   00FF08  4E                 	db	78	;'N'
   461   00FF09  3C                 	db	60	;'<'
   462   00FF0A  20                 	db	32
   463   00FF0B  20                 	db	32
   464   00FF0C  00                 	db	0
   465   00FF0D                     STR_7:
   466   00FF0D  20                 	db	32
   467   00FF0E  43                 	db	67	;'C'
   468   00FF0F  41                 	db	65	;'A'
   469   00FF10  4C                 	db	76	;'L'
   470   00FF11  49                 	db	73	;'I'
   471   00FF12  42                 	db	66	;'B'
   472   00FF13  2E                 	db	46
   473   00FF14  20                 	db	32
   474   00FF15  43                 	db	67	;'C'
   475   00FF16  4F                 	db	79	;'O'
   476   00FF17  4D                 	db	77	;'M'
   477   00FF18  50                 	db	80	;'P'
   478   00FF19  41                 	db	65	;'A'
   479   00FF1A  53                 	db	83	;'S'
   480   00FF1B  20                 	db	32
   481   00FF1C  20                 	db	32
   482   00FF1D  00                 	db	0
   483   00FF1E                     STR_29:
   484   00FF1E  41                 	db	65	;'A'
   485   00FF1F  43                 	db	67	;'C'
   486   00FF20  54                 	db	84	;'T'
   487   00FF21  49                 	db	73	;'I'
   488   00FF22  56                 	db	86	;'V'
   489   00FF23  45                 	db	69	;'E'
   490   00FF24  52                 	db	82	;'R'
   491   00FF25  20                 	db	32
   492   00FF26  52                 	db	82	;'R'
   493   00FF27  43                 	db	67	;'C'
   494   00FF28  20                 	db	32
   495   00FF29  42                 	db	66	;'B'
   496   00FF2A  54                 	db	84	;'T'
   497   00FF2B  20                 	db	32
   498   00FF2C  3F                 	db	63	;'?'
   499   00FF2D  20                 	db	32
   500   00FF2E  00                 	db	0
   501   00FF2F                     STR_9:
   502   00FF2F  43                 	db	67	;'C'
   503   00FF30  41                 	db	65	;'A'
   504   00FF31  4C                 	db	76	;'L'
   505   00FF32  49                 	db	73	;'I'
   506   00FF33  42                 	db	66	;'B'
   507   00FF34  2E                 	db	46
   508   00FF35  20                 	db	32
   509   00FF36  42                 	db	66	;'B'
   510   00FF37  4F                 	db	79	;'O'
   511   00FF38  55                 	db	85	;'U'
   512   00FF39  53                 	db	83	;'S'
   513   00FF3A  53                 	db	83	;'S'
   514   00FF3B  4F                 	db	79	;'O'
   515   00FF3C  4C                 	db	76	;'L'
   516   00FF3D  45                 	db	69	;'E'
   517   00FF3E  20                 	db	32
   518   00FF3F  00                 	db	0
   519   00FF40                     STR_6:
   520   00FF40  20                 	db	32
   521   00FF41  52                 	db	82	;'R'
   522   00FF42  45                 	db	69	;'E'
   523   00FF43  44                 	db	68	;'D'
   524   00FF44  45                 	db	69	;'E'
   525   00FF45  4D                 	db	77	;'M'
   526   00FF46  41                 	db	65	;'A'
   527   00FF47  52                 	db	82	;'R'
   528   00FF48  52                 	db	82	;'R'
   529   00FF49  45                 	db	69	;'E'
   530   00FF4A  5A                 	db	90	;'Z'
   531   00FF4B  2D                 	db	45
   532   00FF4C  4D                 	db	77	;'M'
   533   00FF4D  4F                 	db	79	;'O'
   534   00FF4E  49                 	db	73	;'I'
   535   00FF4F  20                 	db	32
   536   00FF50  00                 	db	0
   537   00FF51                     STR_1:
   538   00FF51  20                 	db	32
   539   00FF52  49                 	db	73	;'I'
   540   00FF53  4E                 	db	78	;'N'
   541   00FF54  49                 	db	73	;'I'
   542   00FF55  54                 	db	84	;'T'
   543   00FF56  49                 	db	73	;'I'
   544   00FF57  41                 	db	65	;'A'
   545   00FF58  4C                 	db	76	;'L'
   546   00FF59  49                 	db	73	;'I'
   547   00FF5A  53                 	db	83	;'S'
   548   00FF5B  41                 	db	65	;'A'
   549   00FF5C  54                 	db	84	;'T'
   550   00FF5D  49                 	db	73	;'I'
   551   00FF5E  4F                 	db	79	;'O'
   552   00FF5F  4E                 	db	78	;'N'
   553   00FF60  20                 	db	32
   554   00FF61  00                 	db	0
   555   00FF62  20                 	db	32
   556   00FF63  20                 	db	32
   557   00FF64  43                 	db	67	;'C'
   558   00FF65  4F                 	db	79	;'O'
   559   00FF66  4E                 	db	78	;'N'
   560   00FF67  4E                 	db	78	;'N'
   561   00FF68  45                 	db	69	;'E'
   562   00FF69  43                 	db	67	;'C'
   563   00FF6A  54                 	db	84	;'T'
   564   00FF6B  49                 	db	73	;'I'
   565   00FF6C  4F                 	db	79	;'O'
   566   00FF6D  4E                 	db	78	;'N'
   567   00FF6E  20                 	db	32
   568   00FF6F  42                 	db	66	;'B'
   569   00FF70  54                 	db	84	;'T'
   570   00FF71  20                 	db	32
   571   00FF72  00                 	db	0
   572   00FF73                     STR_20:
   573   00FF73  4C                 	db	76	;'L'
   574   00FF74  49                 	db	73	;'I'
   575   00FF75  44                 	db	68	;'D'
   576   00FF76  41                 	db	65	;'A'
   577   00FF77  52                 	db	82	;'R'
   578   00FF78  20                 	db	32
   579   00FF79  43                 	db	67	;'C'
   580   00FF7A  4F                 	db	79	;'O'
   581   00FF7B  4D                 	db	77	;'M'
   582   00FF7C  50                 	db	80	;'P'
   583   00FF7D  41                 	db	65	;'A'
   584   00FF7E  53                 	db	83	;'S'
   585   00FF7F  20                 	db	32
   586   00FF80  20                 	db	32
   587   00FF81  20                 	db	32
   588   00FF82  32                 	db	50	;'2'
   589   00FF83  00                 	db	0
   590   00FF84                     STR_23:
   591   00FF84  20                 	db	32
   592   00FF85  41                 	db	65	;'A'
   593   00FF86  43                 	db	67	;'C'
   594   00FF87  54                 	db	84	;'T'
   595   00FF88  49                 	db	73	;'I'
   596   00FF89  56                 	db	86	;'V'
   597   00FF8A  45                 	db	69	;'E'
   598   00FF8B  52                 	db	82	;'R'
   599   00FF8C  20                 	db	32
   600   00FF8D  4C                 	db	76	;'L'
   601   00FF8E  49                 	db	73	;'I'
   602   00FF8F  44                 	db	68	;'D'
   603   00FF90  41                 	db	65	;'A'
   604   00FF91  52                 	db	82	;'R'
   605   00FF92  20                 	db	32
   606   00FF93  3F                 	db	63	;'?'
   607   00FF94  00                 	db	0
   608   00FF95                     STR_26:
   609   00FF95  43                 	db	67	;'C'
   610   00FF96  41                 	db	65	;'A'
   611   00FF97  4C                 	db	76	;'L'
   612   00FF98  49                 	db	73	;'I'
   613   00FF99  42                 	db	66	;'B'
   614   00FF9A  52                 	db	82	;'R'
   615   00FF9B  45                 	db	69	;'E'
   616   00FF9C  52                 	db	82	;'R'
   617   00FF9D  20                 	db	32
   618   00FF9E  43                 	db	67	;'C'
   619   00FF9F  4F                 	db	79	;'O'
   620   00FFA0  4D                 	db	77	;'M'
   621   00FFA1  50                 	db	80	;'P'
   622   00FFA2  41                 	db	65	;'A'
   623   00FFA3  53                 	db	83	;'S'
   624   00FFA4  3F                 	db	63	;'?'
   625   00FFA5  00                 	db	0
   626   00FFA6                     STR_5:
   627   00FFA6  49                 	db	73	;'I'
   628   00FFA7  4E                 	db	78	;'N'
   629   00FFA8  49                 	db	73	;'I'
   630   00FFA9  54                 	db	84	;'T'
   631   00FFAA  20                 	db	32
   632   00FFAB  49                 	db	73	;'I'
   633   00FFAC  32                 	db	50	;'2'
   634   00FFAD  43                 	db	67	;'C'
   635   00FFAE  20                 	db	32
   636   00FFAF  45                 	db	69	;'E'
   637   00FFB0  43                 	db	67	;'C'
   638   00FFB1  48                 	db	72	;'H'
   639   00FFB2  4F                 	db	79	;'O'
   640   00FFB3  55                 	db	85	;'U'
   641   00FFB4  45                 	db	69	;'E'
   642   00FFB5  45                 	db	69	;'E'
   643   00FFB6  00                 	db	0
   644   00FFB7  45                 	db	69	;'E'
   645   00FFB8  4E                 	db	78	;'N'
   646   00FFB9  20                 	db	32
   647   00FFBA  41                 	db	65	;'A'
   648   00FFBB  54                 	db	84	;'T'
   649   00FFBC  54                 	db	84	;'T'
   650   00FFBD  45                 	db	69	;'E'
   651   00FFBE  4E                 	db	78	;'N'
   652   00FFBF  54                 	db	84	;'T'
   653   00FFC0  45                 	db	69	;'E'
   654   00FFC1  20                 	db	32
   655   00FFC2  44                 	db	68	;'D'
   656   00FFC3  27                 	db	39
   657   00FFC4  55                 	db	85	;'U'
   658   00FFC5  4E                 	db	78	;'N'
   659   00FFC6  45                 	db	69	;'E'
   660   00FFC7  00                 	db	0
   661   00FFC8                     STR_21:
   662   00FFC8  41                 	db	65	;'A'
   663   00FFC9  4C                 	db	76	;'L'
   664   00FFCA  45                 	db	69	;'E'
   665   00FFCB  58                 	db	88	;'X'
   666   00FFCC  41                 	db	65	;'A'
   667   00FFCD  4E                 	db	78	;'N'
   668   00FFCE  44                 	db	68	;'D'
   669   00FFCF  52                 	db	82	;'R'
   670   00FFD0  45                 	db	69	;'E'
   671   00FFD1  20                 	db	32
   672   00FFD2  55                 	db	85	;'U'
   673   00FFD3  4C                 	db	76	;'L'
   674   00FFD4  52                 	db	82	;'R'
   675   00FFD5  49                 	db	73	;'I'
   676   00FFD6  43                 	db	67	;'C'
   677   00FFD7  48                 	db	72	;'H'
   678   00FFD8  00                 	db	0
   679   00FFD9                     STR_19:
   680   00FFD9  52                 	db	82	;'R'
   681   00FFDA  4F                 	db	79	;'O'
   682   00FFDB  42                 	db	66	;'B'
   683   00FFDC  4F                 	db	79	;'O'
   684   00FFDD  54                 	db	84	;'T'
   685   00FFDE  20                 	db	32
   686   00FFDF  43                 	db	67	;'C'
   687   00FFE0  41                 	db	65	;'A'
   688   00FFE1  43                 	db	67	;'C'
   689   00FFE2  48                 	db	72	;'H'
   690   00FFE3  41                 	db	65	;'A'
   691   00FFE4  4E                 	db	78	;'N'
   692   00FFE5  20                 	db	32
   693   00FFE6  42                 	db	66	;'B'
   694   00FFE7  55                 	db	85	;'U'
   695   00FFE8  54                 	db	84	;'T'
   696   00FFE9  00                 	db	0
   697   00FFEA                     STR_22:
   698   00FFEA  20                 	db	32
   699   00FFEB  49                 	db	73	;'I'
   700   00FFEC  55                 	db	85	;'U'
   701   00FFED  54                 	db	84	;'T'
   702   00FFEE  20                 	db	32
   703   00FFEF  44                 	db	68	;'D'
   704   00FFF0  45                 	db	69	;'E'
   705   00FFF1  20                 	db	32
   706   00FFF2  48                 	db	72	;'H'
   707   00FFF3  41                 	db	65	;'A'
   708   00FFF4  47                 	db	71	;'G'
   709   00FFF5  55                 	db	85	;'U'
   710   00FFF6  45                 	db	69	;'E'
   711   00FFF7  4E                 	db	78	;'N'
   712   00FFF8  41                 	db	65	;'A'
   713   00FFF9  55                 	db	85	;'U'
   714   00FFFA  00                 	db	0
   715   00FFFB                     STR_12:
   716   00FFFB  2B                 	db	43
   717   00FFFC  00                 	db	0
   718   00FFFD                     STR_11:
   719   00FFFD  2D                 	db	45
   720   00FFFE  00                 	db	0
   721   00FFFF  00                 	db	0	; dummy byte at the end
   722   000000                     
   723                           ; #config settings
   724                           
   725                           	psect	cinit
   726   01425C                     __pcinit:
   727                           	callstack 0
   728   01425C                     start_initialization:
   729                           	callstack 0
   730   01425C                     __initialization:
   731                           	callstack 0
   732                           
   733                           ; Initialize objects allocated to BANK1 (8 bytes)
   734                           ; load TBLPTR registers with __pidataBANK1
   735   01425C  0EA4               	movlw	low __pidataBANK1
   736   01425E  6EF6               	movwf	tblptrl,c
   737   014260  0E46               	movlw	high __pidataBANK1
   738   014262  6EF7               	movwf	tblptrh,c
   739   014264  0E01               	movlw	low (__pidataBANK1 shr (0+16))
   740   014266  6EF8               	movwf	tblptru,c
   741   014268  EE01  F0C2         	lfsr	0,__pdataBANK1
   742   01426C  EE10 F008          	lfsr	1,8
   743   014270                     copy_data0:
   744   014270  0009               	tblrd		*+
   745   014272  CFF5 FFEE          	movff	tablat,postinc0
   746   014276  50E5               	movf	postdec1,w,c
   747   014278  50E1               	movf	fsr1l,w,c
   748   01427A  E1FA               	bnz	copy_data0
   749                           
   750                           ; Initialize objects allocated to BANK0 (18 bytes)
   751                           ; load TBLPTR registers with __pidataBANK0
   752   01427C  0E3C               	movlw	low __pidataBANK0
   753   01427E  6EF6               	movwf	tblptrl,c
   754   014280  0E46               	movlw	high __pidataBANK0
   755   014282  6EF7               	movwf	tblptrh,c
   756   014284  0E01               	movlw	low (__pidataBANK0 shr (0+16))
   757   014286  6EF8               	movwf	tblptru,c
   758   014288  EE00  F0D8         	lfsr	0,__pdataBANK0
   759   01428C  EE10 F012          	lfsr	1,18
   760   014290                     copy_data1:
   761   014290  0009               	tblrd		*+
   762   014292  CFF5 FFEE          	movff	tablat,postinc0
   763   014296  50E5               	movf	postdec1,w,c
   764   014298  50E1               	movf	fsr1l,w,c
   765   01429A  E1FA               	bnz	copy_data1
   766                           
   767                           ; Initialize objects allocated to COMRAM (2 bytes)
   768                           ; load TBLPTR registers with __pidataCOMRAM
   769   01429C  0EAC               	movlw	low __pidataCOMRAM
   770   01429E  6EF6               	movwf	tblptrl,c
   771   0142A0  0E46               	movlw	high __pidataCOMRAM
   772   0142A2  6EF7               	movwf	tblptrh,c
   773   0142A4  0E01               	movlw	low (__pidataCOMRAM shr (0+16))
   774   0142A6  6EF8               	movwf	tblptru,c
   775   0142A8  0009               	tblrd		*+	;fetch initializer
   776   0142AA  CFF5 F047          	movff	tablat,__pdataCOMRAM
   777   0142AE  0009               	tblrd		*+	;fetch initializer
   778   0142B0  CFF5 F048          	movff	tablat,__pdataCOMRAM+1
   779                           
   780                           ; Clear objects allocated to BANK1 (47 bytes)
   781   0142B4  EE01  F093         	lfsr	0,__pbssBANK1
   782   0142B8  0E2F               	movlw	47
   783   0142BA                     clear_0:
   784   0142BA  6AEE               	clrf	postinc0,c
   785   0142BC  06E8               	decf	wreg,f,c
   786   0142BE  E1FD               	bnz	clear_0
   787                           
   788                           ; Clear objects allocated to BANK0 (45 bytes)
   789   0142C0  EE00  F0AB         	lfsr	0,__pbssBANK0
   790   0142C4  0E2D               	movlw	45
   791   0142C6                     clear_1:
   792   0142C6  6AEE               	clrf	postinc0,c
   793   0142C8  06E8               	decf	wreg,f,c
   794   0142CA  E1FD               	bnz	clear_1
   795                           
   796                           ; Clear objects allocated to COMRAM (20 bytes)
   797   0142CC  EE00  F033         	lfsr	0,__pbssCOMRAM
   798   0142D0  0E14               	movlw	20
   799   0142D2                     clear_2:
   800   0142D2  6AEE               	clrf	postinc0,c
   801   0142D4  06E8               	decf	wreg,f,c
   802   0142D6  E1FD               	bnz	clear_2
   803   0142D8                     end_of_initialization:
   804                           	callstack 0
   805   0142D8                     __end_of__initialization:
   806                           	callstack 0
   807   0142D8  9049               	bcf	int$flags,0,c	;clear compiler interrupt flag (level 1)
   808   0142DA  9249               	bcf	int$flags,1,c	;clear compiler interrupt flag (level 2)
   809   0142DC  0100               	movlb	0
   810   0142DE  EF42  F0A3         	goto	_main	;jump to C main() function
   811                           
   812                           	psect	bssCOMRAM
   813   000033                     __pbssCOMRAM:
   814                           	callstack 0
   815   000033                     _distance_min:
   816                           	callstack 0
   817   000033                     	ds	2
   818   000035                     _distance_max:
   819                           	callstack 0
   820   000035                     	ds	2
   821   000037                     _angle_min:
   822                           	callstack 0
   823   000037                     	ds	2
   824   000039                     _angle_max:
   825                           	callstack 0
   826   000039                     	ds	2
   827   00003B                     _consignevitrc:
   828                           	callstack 0
   829   00003B                     	ds	1
   830   00003C                     _sens:
   831                           	callstack 0
   832   00003C                     	ds	1
   833   00003D                     _CPT_RC2:
   834                           	callstack 0
   835   00003D                     	ds	1
   836   00003E                     _CPT_RC1:
   837                           	callstack 0
   838   00003E                     	ds	1
   839   00003F                     _RC2REG_DATA:
   840                           	callstack 0
   841   00003F                     	ds	1
   842   000040                     _RC1REG_DATA:
   843                           	callstack 0
   844   000040                     	ds	1
   845   000041                     _BP_Edge:
   846                           	callstack 0
   847   000041                     	ds	1
   848   000042                     _SSP2_REG_ISR:
   849                           	callstack 0
   850   000042                     	ds	1
   851   000043                     _SSP2_ADD_ISR:
   852                           	callstack 0
   853   000043                     	ds	1
   854   000044                     _WRITE:
   855                           	callstack 0
   856   000044                     	ds	1
   857   000045                     _READ:
   858                           	callstack 0
   859   000045                     	ds	1
   860   000046                     _CSSP2:
   861                           	callstack 0
   862   000046                     	ds	1
   863                           
   864                           	psect	dataCOMRAM
   865   000047                     __pdataCOMRAM:
   866                           	callstack 0
   867   000047                     _Old_BP_Status:
   868                           	callstack 0
   869   000047                     	ds	1
   870   000048                     _BP_Status:
   871                           	callstack 0
   872   000048                     	ds	1
   873                           
   874                           	psect	bssBANK0
   875   0000AB                     __pbssBANK0:
   876                           	callstack 0
   877   0000AB                     ___fpclassifyf@F465:
   878                           	callstack 0
   879   0000AB                     	ds	4
   880   0000AF                     _ADR:
   881                           	callstack 0
   882   0000AF                     	ds	2
   883   0000B1                     _distance_min_r:
   884                           	callstack 0
   885   0000B1                     	ds	2
   886   0000B3                     _distance_max_r:
   887                           	callstack 0
   888   0000B3                     	ds	2
   889   0000B5                     _angle_min_r:
   890                           	callstack 0
   891   0000B5                     	ds	2
   892   0000B7                     _angle_max_r:
   893                           	callstack 0
   894   0000B7                     	ds	2
   895   0000B9                     _pwmdc:
   896                           	callstack 0
   897   0000B9                     	ds	2
   898   0000BB                     _pwmgc:
   899                           	callstack 0
   900   0000BB                     	ds	2
   901   0000BD                     _consigned:
   902                           	callstack 0
   903   0000BD                     	ds	2
   904   0000BF                     _consigneg:
   905                           	callstack 0
   906   0000BF                     	ds	2
   907   0000C1                     _sigmaerreurd:
   908                           	callstack 0
   909   0000C1                     	ds	2
   910   0000C3                     _sigmaerreurg:
   911                           	callstack 0
   912   0000C3                     	ds	2
   913   0000C5                     _erreurd:
   914                           	callstack 0
   915   0000C5                     	ds	2
   916   0000C7                     _erreurg:
   917                           	callstack 0
   918   0000C7                     	ds	2
   919   0000C9                     _MAGN_Y_ZERO:
   920                           	callstack 0
   921   0000C9                     	ds	2
   922   0000CB                     _MAGN_X_ZERO:
   923                           	callstack 0
   924   0000CB                     	ds	2
   925   0000CD                     _BTC:
   926                           	callstack 0
   927   0000CD                     	ds	1
   928   0000CE                     _CPT_BT:
   929                           	callstack 0
   930   0000CE                     	ds	1
   931   0000CF                     _CPTNBECHTMR3:
   932                           	callstack 0
   933   0000CF                     	ds	1
   934   0000D0                     _CPTTMR3:
   935                           	callstack 0
   936   0000D0                     	ds	1
   937   0000D1                     _CPT_ENC:
   938                           	callstack 0
   939   0000D1                     	ds	1
   940   0000D2                     _CENCB:
   941                           	callstack 0
   942   0000D2                     	ds	1
   943   0000D3                     _CENCA:
   944                           	callstack 0
   945   0000D3                     	ds	1
   946   0000D4                     _ANGLE_MAGN:
   947                           	callstack 0
   948   0000D4                     	ds	4
   949                           
   950                           	psect	dataBANK0
   951   0000D8                     __pdataBANK0:
   952                           	callstack 0
   953   0000D8                     _kim:
   954                           	callstack 0
   955   0000D8                     	ds	4
   956   0000DC                     _kpm:
   957                           	callstack 0
   958   0000DC                     	ds	4
   959   0000E0                     _tempsd:
   960                           	callstack 0
   961   0000E0                     	ds	4
   962   0000E4                     _tempsg:
   963                           	callstack 0
   964   0000E4                     	ds	4
   965   0000E8                     _sigmamax:
   966                           	callstack 0
   967   0000E8                     	ds	2
   968                           
   969                           	psect	bssBANK1
   970   000193                     __pbssBANK1:
   971                           	callstack 0
   972   000193                     fabsf@F465:
   973                           	callstack 0
   974   000193                     	ds	4
   975   000197                     _resteturna:
   976                           	callstack 0
   977   000197                     	ds	4
   978   00019B                     _millisecondes:
   979                           	callstack 0
   980   00019B                     	ds	4
   981   00019F                     _CPT_ENCD:
   982                           	callstack 0
   983   00019F                     	ds	4
   984   0001A3                     _CPT_ENCG:
   985                           	callstack 0
   986   0001A3                     	ds	4
   987   0001A7                     _RAPPORT_X_Y:
   988                           	callstack 0
   989   0001A7                     	ds	4
   990   0001AB                     _MAGN_Y_TOTAL:
   991                           	callstack 0
   992   0001AB                     	ds	4
   993   0001AF                     _MAGN_X_TOTAL:
   994                           	callstack 0
   995   0001AF                     	ds	4
   996   0001B3                     _consigne:
   997                           	callstack 0
   998   0001B3                     	ds	2
   999   0001B5                     _MAGN_Y:
  1000                           	callstack 0
  1001   0001B5                     	ds	2
  1002   0001B7                     _MAGN_Y_L:
  1003                           	callstack 0
  1004   0001B7                     	ds	2
  1005   0001B9                     _MAGN_Y_H:
  1006                           	callstack 0
  1007   0001B9                     	ds	2
  1008   0001BB                     _MAGN_X:
  1009                           	callstack 0
  1010   0001BB                     	ds	2
  1011   0001BD                     _MAGN_X_L:
  1012                           	callstack 0
  1013   0001BD                     	ds	2
  1014   0001BF                     _MAGN_X_H:
  1015                           	callstack 0
  1016   0001BF                     	ds	2
  1017   0001C1                     _SSP2_DATA_ISR:
  1018                           	callstack 0
  1019   0001C1                     	ds	1
  1020                           
  1021                           	psect	dataBANK1
  1022   0001C2                     __pdataBANK1:
  1023                           	callstack 0
  1024   0001C2                     _MAGN_Y_MIN:
  1025                           	callstack 0
  1026   0001C2                     	ds	2
  1027   0001C4                     _MAGN_Y_MAX:
  1028                           	callstack 0
  1029   0001C4                     	ds	2
  1030   0001C6                     _MAGN_X_MIN:
  1031                           	callstack 0
  1032   0001C6                     	ds	2
  1033   0001C8                     _MAGN_X_MAX:
  1034                           	callstack 0
  1035   0001C8                     	ds	2
  1036                           
  1037                           	psect	cstackBANK1
  1038   000100                     __pcstackBANK1:
  1039                           	callstack 0
  1040   000100                     _atanf$2670:
  1041                           	callstack 0
  1042                           
  1043                           ; 4 bytes @ 0x0
  1044   000100                     	ds	4
  1045   000104                     _atanf$2672:
  1046                           	callstack 0
  1047                           
  1048                           ; 4 bytes @ 0x4
  1049   000104                     	ds	4
  1050   000108                     _atanf$2673:
  1051                           	callstack 0
  1052                           
  1053                           ; 4 bytes @ 0x8
  1054   000108                     	ds	4
  1055   00010C                     atanf@s1:
  1056                           	callstack 0
  1057                           
  1058                           ; 4 bytes @ 0xC
  1059   00010C                     	ds	4
  1060   000110                     atanf@s2:
  1061                           	callstack 0
  1062                           
  1063                           ; 4 bytes @ 0x10
  1064   000110                     	ds	4
  1065   000114                     _atanf$2669:
  1066                           	callstack 0
  1067                           
  1068                           ; 4 bytes @ 0x14
  1069   000114                     	ds	4
  1070   000118                     _atanf$2671:
  1071                           	callstack 0
  1072                           
  1073                           ; 4 bytes @ 0x18
  1074   000118                     	ds	4
  1075   00011C                     atanf@sign:
  1076                           	callstack 0
  1077                           
  1078                           ; 1 bytes @ 0x1C
  1079   00011C                     	ds	1
  1080   00011D                     atanf@w:
  1081                           	callstack 0
  1082                           
  1083                           ; 4 bytes @ 0x1D
  1084   00011D                     	ds	4
  1085   000121                     atanf@id:
  1086                           	callstack 0
  1087                           
  1088                           ; 1 bytes @ 0x21
  1089   000121                     	ds	1
  1090   000122                     atanf@z:
  1091                           	callstack 0
  1092                           
  1093                           ; 4 bytes @ 0x22
  1094   000122                     	ds	4
  1095   000126                     atanf@ix:
  1096                           	callstack 0
  1097                           
  1098                           ; 4 bytes @ 0x26
  1099   000126                     	ds	4
  1100   00012A                     ??_lcdNibble:
  1101   00012A                     ??_BP_Get_Falling_Edge:
  1102   00012A                     ?_ENC_Get_Value:
  1103                           	callstack 0
  1104   00012A                     ?_Motors_Get_Enc_Left:
  1105                           	callstack 0
  1106   00012A                     ?_Motors_Get_Enc_Right:
  1107                           	callstack 0
  1108   00012A                     ?___aldiv:
  1109                           	callstack 0
  1110   00012A                     ?___flneg:
  1111                           	callstack 0
  1112   00012A                     ?___fltol:
  1113                           	callstack 0
  1114   00012A                     ?___xxtofl:
  1115                           	callstack 0
  1116   00012A                     Motors_Speed@vitd:
  1117                           	callstack 0
  1118   00012A                     Motors_Enable@enable:
  1119                           	callstack 0
  1120   00012A                     SSP2_Write@SSP2_REG:
  1121                           	callstack 0
  1122   00012A                     SSP2_Read@SSP2_REG:
  1123                           	callstack 0
  1124   00012A                     LCD_Retro@retro:
  1125                           	callstack 0
  1126   00012A                     LIDAR_Motor_Enable@motor_en:
  1127                           	callstack 0
  1128   00012A                     BT_Enable@BT:
  1129                           	callstack 0
  1130   00012A                     ENC_Set_Value@val:
  1131                           	callstack 0
  1132   00012A                     ___aldiv@dividend:
  1133                           	callstack 0
  1134   00012A                     ___flneg@f1:
  1135                           	callstack 0
  1136   00012A                     ___fltol@f1:
  1137                           	callstack 0
  1138   00012A                     ___xxtofl@val:
  1139                           	callstack 0
  1140                           
  1141                           ; 4 bytes @ 0x2A
  1142   00012A                     	ds	1
  1143   00012B                     lcdNibble@nibble:
  1144                           	callstack 0
  1145   00012B                     Motors_Speed@vitg:
  1146                           	callstack 0
  1147   00012B                     SSP2_Write@SSP2_DATA:
  1148                           	callstack 0
  1149   00012B                     SSP2_Read@SSP2_ADD:
  1150                           	callstack 0
  1151                           
  1152                           ; 1 bytes @ 0x2B
  1153   00012B                     	ds	1
  1154   00012C                     LCD_Write@type:
  1155                           	callstack 0
  1156   00012C                     SSP2_Write@SSP2_ADD:
  1157                           	callstack 0
  1158                           
  1159                           ; 1 bytes @ 0x2C
  1160   00012C                     	ds	1
  1161   00012D                     LCD_Write@byte:
  1162                           	callstack 0
  1163                           
  1164                           ; 1 bytes @ 0x2D
  1165   00012D                     	ds	1
  1166   00012E                     ??_LCD_Clear:
  1167   00012E                     ??___fltol:
  1168   00012E                     ??___xxtofl:
  1169   00012E                     LCD_Goto@colonne:
  1170                           	callstack 0
  1171   00012E                     LCD_Print@t:
  1172                           	callstack 0
  1173   00012E                     ___aldiv@divisor:
  1174                           	callstack 0
  1175                           
  1176                           ; 4 bytes @ 0x2E
  1177   00012E                     	ds	1
  1178   00012F                     ??_LCD_Init:
  1179   00012F                     LCD_Goto@ligne:
  1180                           	callstack 0
  1181                           
  1182                           ; 1 bytes @ 0x2F
  1183   00012F                     	ds	1
  1184   000130                     ??_Compass_Init:
  1185                           
  1186                           ; 1 bytes @ 0x30
  1187   000130                     	ds	2
  1188   000132                     ___aldiv@counter:
  1189                           	callstack 0
  1190   000132                     ___fltol@sign1:
  1191                           	callstack 0
  1192   000132                     ___xxtofl@sign:
  1193                           	callstack 0
  1194                           
  1195                           ; 1 bytes @ 0x32
  1196   000132                     	ds	1
  1197   000133                     ___aldiv@sign:
  1198                           	callstack 0
  1199   000133                     ___fltol@exp1:
  1200                           	callstack 0
  1201   000133                     ___xxtofl@exp:
  1202                           	callstack 0
  1203                           
  1204                           ; 1 bytes @ 0x33
  1205   000133                     	ds	1
  1206   000134                     ___aldiv@quotient:
  1207                           	callstack 0
  1208   000134                     ___xxtofl@arg:
  1209                           	callstack 0
  1210                           
  1211                           ; 4 bytes @ 0x34
  1212   000134                     	ds	4
  1213   000138                     ?___fldiv:
  1214                           	callstack 0
  1215   000138                     ?___flmul:
  1216                           	callstack 0
  1217   000138                     ___fldiv@b:
  1218                           	callstack 0
  1219   000138                     ___flmul@b:
  1220                           	callstack 0
  1221                           
  1222                           ; 4 bytes @ 0x38
  1223   000138                     	ds	4
  1224   00013C                     ___fldiv@a:
  1225                           	callstack 0
  1226   00013C                     ___flmul@a:
  1227                           	callstack 0
  1228                           
  1229                           ; 4 bytes @ 0x3C
  1230   00013C                     	ds	4
  1231   000140                     ??___fldiv:
  1232   000140                     ??___flmul:
  1233                           
  1234                           ; 1 bytes @ 0x40
  1235   000140                     	ds	4
  1236   000144                     ___flmul@sign:
  1237                           	callstack 0
  1238   000144                     ___fldiv@rem:
  1239                           	callstack 0
  1240                           
  1241                           ; 4 bytes @ 0x44
  1242   000144                     	ds	1
  1243   000145                     ___flmul@grs:
  1244                           	callstack 0
  1245                           
  1246                           ; 4 bytes @ 0x45
  1247   000145                     	ds	3
  1248   000148                     ___fldiv@sign:
  1249                           	callstack 0
  1250                           
  1251                           ; 1 bytes @ 0x48
  1252   000148                     	ds	1
  1253   000149                     ___flmul@aexp:
  1254                           	callstack 0
  1255   000149                     ___fldiv@new_exp:
  1256                           	callstack 0
  1257                           
  1258                           ; 2 bytes @ 0x49
  1259   000149                     	ds	1
  1260   00014A                     ___flmul@bexp:
  1261                           	callstack 0
  1262                           
  1263                           ; 1 bytes @ 0x4A
  1264   00014A                     	ds	1
  1265   00014B                     ___fldiv@grs:
  1266                           	callstack 0
  1267   00014B                     ___flmul@prod:
  1268                           	callstack 0
  1269                           
  1270                           ; 4 bytes @ 0x4B
  1271   00014B                     	ds	4
  1272   00014F                     ___fldiv@bexp:
  1273                           	callstack 0
  1274   00014F                     ___flmul@temp:
  1275                           	callstack 0
  1276                           
  1277                           ; 2 bytes @ 0x4F
  1278   00014F                     	ds	1
  1279   000150                     ___fldiv@aexp:
  1280                           	callstack 0
  1281                           
  1282                           ; 1 bytes @ 0x50
  1283   000150                     	ds	1
  1284   000151                     ?___fladd:
  1285                           	callstack 0
  1286   000151                     ___fladd@b:
  1287                           	callstack 0
  1288                           
  1289                           ; 4 bytes @ 0x51
  1290   000151                     	ds	4
  1291   000155                     ___fladd@a:
  1292                           	callstack 0
  1293                           
  1294                           ; 4 bytes @ 0x55
  1295   000155                     	ds	4
  1296   000159                     ??___fladd:
  1297                           
  1298                           ; 1 bytes @ 0x59
  1299   000159                     	ds	4
  1300   00015D                     ___fladd@signs:
  1301                           	callstack 0
  1302                           
  1303                           ; 1 bytes @ 0x5D
  1304   00015D                     	ds	1
  1305   00015E                     ___fladd@aexp:
  1306                           	callstack 0
  1307                           
  1308                           ; 1 bytes @ 0x5E
  1309   00015E                     	ds	1
  1310   00015F                     ___fladd@bexp:
  1311                           	callstack 0
  1312                           
  1313                           ; 1 bytes @ 0x5F
  1314   00015F                     	ds	1
  1315   000160                     ___fladd@grs:
  1316                           	callstack 0
  1317                           
  1318                           ; 1 bytes @ 0x60
  1319   000160                     	ds	1
  1320   000161                     ?___flsub:
  1321                           	callstack 0
  1322   000161                     ___flsub@b:
  1323                           	callstack 0
  1324                           
  1325                           ; 4 bytes @ 0x61
  1326   000161                     	ds	4
  1327   000165                     ___flsub@a:
  1328                           	callstack 0
  1329                           
  1330                           ; 4 bytes @ 0x65
  1331   000165                     	ds	4
  1332   000169                     Motors_Turn_Angle@angle:
  1333                           	callstack 0
  1334                           
  1335                           ; 2 bytes @ 0x69
  1336   000169                     	ds	2
  1337   00016B                     ??_Motors_Turn_Angle:
  1338                           
  1339                           ; 1 bytes @ 0x6B
  1340   00016B                     	ds	8
  1341   000173                     Motors_Turn_Angle@encg:
  1342                           	callstack 0
  1343                           
  1344                           ; 4 bytes @ 0x73
  1345   000173                     	ds	4
  1346   000177                     Motors_Turn_Angle@encd:
  1347                           	callstack 0
  1348                           
  1349                           ; 4 bytes @ 0x77
  1350   000177                     	ds	4
  1351   00017B                     Motors_Turn_Angle@coeff:
  1352                           	callstack 0
  1353                           
  1354                           ; 4 bytes @ 0x7B
  1355   00017B                     	ds	4
  1356   00017F                     Motors_Turn_Angle@anglefloat:
  1357                           	callstack 0
  1358                           
  1359                           ; 4 bytes @ 0x7F
  1360   00017F                     	ds	4
  1361   000183                     Motors_Turn_Angle@erreurag:
  1362                           	callstack 0
  1363                           
  1364                           ; 4 bytes @ 0x83
  1365   000183                     	ds	4
  1366   000187                     Motors_Turn_Angle@erreurad:
  1367                           	callstack 0
  1368                           
  1369                           ; 4 bytes @ 0x87
  1370   000187                     	ds	4
  1371   00018B                     ??_Compass_Calibre:
  1372                           
  1373                           ; 1 bytes @ 0x8B
  1374   00018B                     	ds	4
  1375   00018F                     Compass_Calibre@i:
  1376                           	callstack 0
  1377                           
  1378                           ; 1 bytes @ 0x8F
  1379   00018F                     	ds	1
  1380   000190                     Compass_Calibre@j:
  1381                           	callstack 0
  1382                           
  1383                           ; 1 bytes @ 0x90
  1384   000190                     	ds	1
  1385   000191                     ??_Initialisation:
  1386                           
  1387                           ; 1 bytes @ 0x91
  1388   000191                     	ds	2
  1389   000193                     
  1390                           ; 1 bytes @ 0x93
  1391                           
  1392                           	psect	cstackBANK0
  1393   000060                     __pcstackBANK0:
  1394                           	callstack 0
  1395   000060                     i1___flmul@sign:
  1396                           	callstack 0
  1397                           
  1398                           ; 1 bytes @ 0x0
  1399   000060                     	ds	1
  1400   000061                     i1___flmul@aexp:
  1401                           	callstack 0
  1402                           
  1403                           ; 1 bytes @ 0x1
  1404   000061                     	ds	1
  1405   000062                     i1___flmul@grs:
  1406                           	callstack 0
  1407                           
  1408                           ; 4 bytes @ 0x2
  1409   000062                     	ds	4
  1410   000066                     i1___flmul@bexp:
  1411                           	callstack 0
  1412                           
  1413                           ; 1 bytes @ 0x6
  1414   000066                     	ds	1
  1415   000067                     i1___flmul@prod:
  1416                           	callstack 0
  1417                           
  1418                           ; 4 bytes @ 0x7
  1419   000067                     	ds	4
  1420   00006B                     i1___flmul@temp:
  1421                           	callstack 0
  1422                           
  1423                           ; 2 bytes @ 0xB
  1424   00006B                     	ds	2
  1425   00006D                     ?i1___fltol:
  1426                           	callstack 0
  1427   00006D                     ?i1___fladd:
  1428                           	callstack 0
  1429   00006D                     i1___fltol@f1:
  1430                           	callstack 0
  1431   00006D                     i1___fladd@b:
  1432                           	callstack 0
  1433                           
  1434                           ; 4 bytes @ 0xD
  1435   00006D                     	ds	4
  1436   000071                     ??i1___fltol:
  1437   000071                     i1___fladd@a:
  1438                           	callstack 0
  1439                           
  1440                           ; 4 bytes @ 0x11
  1441   000071                     	ds	4
  1442   000075                     ??i1___fladd:
  1443                           
  1444                           ; 1 bytes @ 0x15
  1445   000075                     	ds	4
  1446   000079                     i1___fladd@signs:
  1447                           	callstack 0
  1448                           
  1449                           ; 1 bytes @ 0x19
  1450   000079                     	ds	1
  1451   00007A                     i1___fladd@aexp:
  1452                           	callstack 0
  1453                           
  1454                           ; 1 bytes @ 0x1A
  1455   00007A                     	ds	1
  1456   00007B                     i1___fladd@bexp:
  1457                           	callstack 0
  1458                           
  1459                           ; 1 bytes @ 0x1B
  1460   00007B                     	ds	1
  1461   00007C                     i1___fladd@grs:
  1462                           	callstack 0
  1463                           
  1464                           ; 1 bytes @ 0x1C
  1465   00007C                     	ds	1
  1466   00007D                     ?i1___flsub:
  1467                           	callstack 0
  1468   00007D                     ?i1___fldiv:
  1469                           	callstack 0
  1470   00007D                     i1___flsub@b:
  1471                           	callstack 0
  1472   00007D                     i1___fldiv@b:
  1473                           	callstack 0
  1474                           
  1475                           ; 4 bytes @ 0x1D
  1476   00007D                     	ds	4
  1477   000081                     i1___flsub@a:
  1478                           	callstack 0
  1479   000081                     i1___fldiv@a:
  1480                           	callstack 0
  1481                           
  1482                           ; 4 bytes @ 0x21
  1483   000081                     	ds	4
  1484   000085                     ??i1___fldiv:
  1485                           
  1486                           ; 1 bytes @ 0x25
  1487   000085                     	ds	4
  1488   000089                     i1___fldiv@rem:
  1489                           	callstack 0
  1490                           
  1491                           ; 4 bytes @ 0x29
  1492   000089                     	ds	4
  1493   00008D                     i1___fldiv@sign:
  1494                           	callstack 0
  1495                           
  1496                           ; 1 bytes @ 0x2D
  1497   00008D                     	ds	1
  1498   00008E                     i1___fldiv@new_exp:
  1499                           	callstack 0
  1500                           
  1501                           ; 2 bytes @ 0x2E
  1502   00008E                     	ds	2
  1503   000090                     i1___fldiv@grs:
  1504                           	callstack 0
  1505                           
  1506                           ; 4 bytes @ 0x30
  1507   000090                     	ds	4
  1508   000094                     i1___fldiv@bexp:
  1509                           	callstack 0
  1510                           
  1511                           ; 1 bytes @ 0x34
  1512   000094                     	ds	1
  1513   000095                     i1___fldiv@aexp:
  1514                           	callstack 0
  1515                           
  1516                           ; 1 bytes @ 0x35
  1517   000095                     	ds	1
  1518   000096                     ?_atanf:
  1519                           	callstack 0
  1520   000096                     atanf@x:
  1521                           	callstack 0
  1522                           
  1523                           ; 4 bytes @ 0x36
  1524   000096                     	ds	4
  1525   00009A                     ??_myLowIsr:
  1526                           
  1527                           ; 1 bytes @ 0x3A
  1528   00009A                     	ds	13
  1529   0000A7                     _myLowIsr$2668:
  1530                           	callstack 0
  1531                           
  1532                           ; 4 bytes @ 0x47
  1533   0000A7                     	ds	4
  1534                           
  1535                           	psect	cstackCOMRAM
  1536   000001                     __pcstackCOMRAM:
  1537                           	callstack 0
  1538   000001                     ?___wmul:
  1539                           	callstack 0
  1540   000001                     ___wmul@multiplier:
  1541                           	callstack 0
  1542                           
  1543                           ; 2 bytes @ 0x0
  1544   000001                     	ds	2
  1545   000003                     ___wmul@multiplicand:
  1546                           	callstack 0
  1547                           
  1548                           ; 2 bytes @ 0x2
  1549   000003                     	ds	2
  1550   000005                     ___wmul@product:
  1551                           	callstack 0
  1552                           
  1553                           ; 2 bytes @ 0x4
  1554   000005                     	ds	2
  1555   000007                     ?___awdiv:
  1556                           	callstack 0
  1557   000007                     ___awdiv@dividend:
  1558                           	callstack 0
  1559                           
  1560                           ; 2 bytes @ 0x6
  1561   000007                     	ds	2
  1562   000009                     ___awdiv@divisor:
  1563                           	callstack 0
  1564                           
  1565                           ; 2 bytes @ 0x8
  1566   000009                     	ds	2
  1567   00000B                     ___awdiv@counter:
  1568                           	callstack 0
  1569                           
  1570                           ; 1 bytes @ 0xA
  1571   00000B                     	ds	1
  1572   00000C                     ___awdiv@sign:
  1573                           	callstack 0
  1574                           
  1575                           ; 1 bytes @ 0xB
  1576   00000C                     	ds	1
  1577   00000D                     ___awdiv@quotient:
  1578                           	callstack 0
  1579                           
  1580                           ; 2 bytes @ 0xC
  1581   00000D                     	ds	2
  1582   00000F                     ??_myHighIsr:
  1583                           
  1584                           ; 1 bytes @ 0xE
  1585   00000F                     	ds	6
  1586   000015                     _myHighIsr$2537:
  1587                           	callstack 0
  1588                           
  1589                           ; 2 bytes @ 0x14
  1590   000015                     	ds	2
  1591   000017                     ?___fpclassifyf:
  1592                           	callstack 0
  1593   000017                     ?_fabsf:
  1594                           	callstack 0
  1595   000017                     ?i1___aldiv:
  1596                           	callstack 0
  1597   000017                     ?i1___flneg:
  1598                           	callstack 0
  1599   000017                     ?i1___xxtofl:
  1600                           	callstack 0
  1601   000017                     i1SSP2_Write@SSP2_REG:
  1602                           	callstack 0
  1603   000017                     i1SSP2_Read@SSP2_REG:
  1604                           	callstack 0
  1605   000017                     ___fleq@ff1:
  1606                           	callstack 0
  1607   000017                     ___fpclassifyf@x:
  1608                           	callstack 0
  1609   000017                     fabsf@x:
  1610                           	callstack 0
  1611   000017                     i1___aldiv@dividend:
  1612                           	callstack 0
  1613   000017                     i1___flneg@f1:
  1614                           	callstack 0
  1615   000017                     i1___xxtofl@val:
  1616                           	callstack 0
  1617                           
  1618                           ; 4 bytes @ 0x16
  1619   000017                     	ds	1
  1620   000018                     i1SSP2_Write@SSP2_DATA:
  1621                           	callstack 0
  1622   000018                     i1SSP2_Read@SSP2_ADD:
  1623                           	callstack 0
  1624                           
  1625                           ; 1 bytes @ 0x17
  1626   000018                     	ds	1
  1627   000019                     i1SSP2_Write@SSP2_ADD:
  1628                           	callstack 0
  1629                           
  1630                           ; 1 bytes @ 0x18
  1631   000019                     	ds	2
  1632   00001B                     ??___fpclassifyf:
  1633   00001B                     ??i1___xxtofl:
  1634   00001B                     ___fleq@ff2:
  1635                           	callstack 0
  1636   00001B                     fabsf@u:
  1637                           	callstack 0
  1638   00001B                     i1___aldiv@divisor:
  1639                           	callstack 0
  1640                           
  1641                           ; 4 bytes @ 0x1A
  1642   00001B                     	ds	4
  1643   00001F                     ??___fleq:
  1644   00001F                     i1___aldiv@counter:
  1645                           	callstack 0
  1646   00001F                     i1___xxtofl@sign:
  1647                           	callstack 0
  1648   00001F                     ___fpclassifyf@e:
  1649                           	callstack 0
  1650                           
  1651                           ; 2 bytes @ 0x1E
  1652   00001F                     	ds	1
  1653   000020                     i1___aldiv@sign:
  1654                           	callstack 0
  1655   000020                     i1___xxtofl@exp:
  1656                           	callstack 0
  1657                           
  1658                           ; 1 bytes @ 0x1F
  1659   000020                     	ds	1
  1660   000021                     ___fpclassifyf@u:
  1661                           	callstack 0
  1662   000021                     i1___aldiv@quotient:
  1663                           	callstack 0
  1664   000021                     i1___xxtofl@arg:
  1665                           	callstack 0
  1666                           
  1667                           ; 4 bytes @ 0x20
  1668   000021                     	ds	4
  1669   000025                     ?i1___flmul:
  1670                           	callstack 0
  1671   000025                     i1___flmul@b:
  1672                           	callstack 0
  1673                           
  1674                           ; 4 bytes @ 0x24
  1675   000025                     	ds	4
  1676   000029                     i1___flmul@a:
  1677                           	callstack 0
  1678                           
  1679                           ; 4 bytes @ 0x28
  1680   000029                     	ds	4
  1681   00002D                     ??i1___flmul:
  1682                           
  1683                           ; 1 bytes @ 0x2C
  1684   00002D                     	ds	4
  1685   000031                     i1___fltol@sign1:
  1686                           	callstack 0
  1687                           
  1688                           ; 1 bytes @ 0x30
  1689   000031                     	ds	1
  1690   000032                     i1___fltol@exp1:
  1691                           	callstack 0
  1692                           
  1693                           ; 1 bytes @ 0x31
  1694   000032                     	ds	1
  1695                           
  1696 ;;
  1697 ;;Main: autosize = 0, tempsize = 0, incstack = 0, save=0
  1698 ;;
  1699 ;; *************** function _main *****************
  1700 ;; Defined at:
  1701 ;;		line 95 in file "2emeAlidar_Proc_principal.c"
  1702 ;; Parameters:    Size  Location     Type
  1703 ;;		None
  1704 ;; Auto vars:     Size  Location     Type
  1705 ;;		None
  1706 ;; Return value:  Size  Location     Type
  1707 ;;                  1    wreg      void 
  1708 ;; Registers used:
  1709 ;;		wreg, status,2, status,0, tblptrl, tblptrh, tblptru, prodl, prodh, cstack
  1710 ;; Tracked objects:
  1711 ;;		On entry : 0/0
  1712 ;;		On exit  : 0/0
  1713 ;;		Unchanged: 0/0
  1714 ;; Data sizes:     COMRAM   BANK0   BANK1   BANK2   BANK3   BANK4   BANK5   BANK6   BANK7   BANK8   BANK9  BANK10  BANK1
      +1  BANK12  BANK13  BANK14
  1715 ;;      Params:         0       0       0       0       0       0       0       0       0       0       0       0       
      +0       0       0       0
  1716 ;;      Locals:         0       0       0       0       0       0       0       0       0       0       0       0       
      +0       0       0       0
  1717 ;;      Temps:          0       0       0       0       0       0       0       0       0       0       0       0       
      +0       0       0       0
  1718 ;;      Totals:         0       0       0       0       0       0       0       0       0       0       0       0       
      +0       0       0       0
  1719 ;;Total ram usage:        0 bytes
  1720 ;; Hardware stack levels required when called: 11
  1721 ;; This function calls:
  1722 ;;		_Initialisation
  1723 ;; This function is called by:
  1724 ;;		Startup code after reset
  1725 ;; This function uses a non-reentrant model
  1726 ;;
  1727                           
  1728                           	psect	text0
  1729   014684                     __ptext0:
  1730                           	callstack 0
  1731   014684                     _main:
  1732                           	callstack 20
  1733   014684  EC55  F087         	call	_Initialisation	;wreg free
  1734   014688                     l1043:
  1735   014688  EF44  F0A3         	goto	l1043
  1736   01468C  EFBD  F005         	goto	start
  1737   014690                     __end_of_main:
  1738                           	callstack 0
  1739                           
  1740 ;; *************** function _Initialisation *****************
  1741 ;; Defined at:
  1742 ;;		line 1 in file "./Init.c"
  1743 ;; Parameters:    Size  Location     Type
  1744 ;;		None
  1745 ;; Auto vars:     Size  Location     Type
  1746 ;;		None
  1747 ;; Return value:  Size  Location     Type
  1748 ;;                  1    wreg      void 
  1749 ;; Registers used:
  1750 ;;		wreg, status,2, status,0, tblptrl, tblptrh, tblptru, prodl, prodh, cstack
  1751 ;; Tracked objects:
  1752 ;;		On entry : 0/0
  1753 ;;		On exit  : 0/0
  1754 ;;		Unchanged: 0/0
  1755 ;; Data sizes:     COMRAM   BANK0   BANK1   BANK2   BANK3   BANK4   BANK5   BANK6   BANK7   BANK8   BANK9  BANK10  BANK1
      +1  BANK12  BANK13  BANK14
  1756 ;;      Params:         0       0       0       0       0       0       0       0       0       0       0       0       
      +0       0       0       0
  1757 ;;      Locals:         0       0       0       0       0       0       0       0       0       0       0       0       
      +0       0       0       0
  1758 ;;      Temps:          0       0       2       0       0       0       0       0       0       0       0       0       
      +0       0       0       0
  1759 ;;      Totals:         0       0       2       0       0       0       0       0       0       0       0       0       
      +0       0       0       0
  1760 ;;Total ram usage:        2 bytes
  1761 ;; Hardware stack levels used: 1
  1762 ;; Hardware stack levels required when called: 10
  1763 ;; This function calls:
  1764 ;;		_BP_Get_Falling_Edge
  1765 ;;		_BT_Enable
  1766 ;;		_Compass_Calibre
  1767 ;;		_Compass_Init
  1768 ;;		_ENC_Get_Value
  1769 ;;		_ENC_Set_Value
  1770 ;;		_LCD_Clear
  1771 ;;		_LCD_Goto
  1772 ;;		_LCD_Init
  1773 ;;		_LCD_Print
  1774 ;;		_LCD_Retro
  1775 ;;		_LIDAR_Motor_Enable
  1776 ;; This function is called by:
  1777 ;;		_main
  1778 ;; This function uses a non-reentrant model
  1779 ;;
  1780                           
  1781                           	psect	text1
  1782   010EAA                     __ptext1:
  1783                           	callstack 0
  1784   010EAA                     _Initialisation:
  1785                           	callstack 20
  1786   010EAA                     
  1787                           ;./Init.c: 3:     LATAbits.LATA0=0;
  1788   010EAA  9083               	bcf	131,0,c	;volatile
  1789                           
  1790                           ;./Init.c: 4:     LATDbits.LATD4=0;
  1791   010EAC  9886               	bcf	134,4,c	;volatile
  1792                           
  1793                           ;./Init.c: 5:     LATEbits.LATE1=0;
  1794   010EAE  9287               	bcf	135,1,c	;volatile
  1795                           
  1796                           ;./Init.c: 6:     LATAbits.LATA3=0;
  1797   010EB0  9683               	bcf	131,3,c	;volatile
  1798                           
  1799                           ;./Init.c: 9:     PMD0bits.FVRMD=1;
  1800   010EB2  010E               	movlb	14	; () banked
  1801   010EB4  8DE1               	bsf	225,6,b	;volatile
  1802                           
  1803                           ;./Init.c: 10:     PMD0bits.HLVDMD=1;
  1804   010EB6  8BE1               	bsf	225,5,b	;volatile
  1805                           
  1806                           ;./Init.c: 11:     PMD0bits.CRCMD=1;
  1807   010EB8  89E1               	bsf	225,4,b	;volatile
  1808                           
  1809                           ;./Init.c: 12:     PMD0bits.NVMMD=1;
  1810   010EBA  85E1               	bsf	225,2,b	;volatile
  1811                           
  1812                           ;./Init.c: 13:     PMD0bits.CLKRMD=1;
  1813   010EBC  83E1               	bsf	225,1,b	;volatile
  1814                           
  1815                           ;./Init.c: 14:     PMD2bits.DACMD=1;
  1816   010EBE  8DE3               	bsf	227,6,b	;volatile
  1817                           
  1818                           ;./Init.c: 15:     PMD2bits.CMP1MD=1;
  1819   010EC0  83E3               	bsf	227,1,b	;volatile
  1820                           
  1821                           ;./Init.c: 16:     PMD2bits.CMP2MD=1;
  1822   010EC2  85E3               	bsf	227,2,b	;volatile
  1823                           
  1824                           ;./Init.c: 17:     PMD2bits.ZCDMD=1;
  1825   010EC4  81E3               	bsf	227,0,b	;volatile
  1826                           
  1827                           ;./Init.c: 18:     PMD3bits.PWM4MD=1;
  1828   010EC6  87E4               	bsf	228,3,b	;volatile
  1829                           
  1830                           ;./Init.c: 19:     PMD4bits.MSSP1MD=1;
  1831   010EC8  89E5               	bsf	229,4,b	;volatile
  1832                           
  1833                           ;./Init.c: 20:     PMD4bits.CWG1MD=1;
  1834   010ECA  81E5               	bsf	229,0,b	;volatile
  1835                           
  1836                           ;./Init.c: 21:     PMD5bits.DSMMD=1;
  1837   010ECC  81E6               	bsf	230,0,b	;volatile
  1838   010ECE                     
  1839                           ; BSR set to: 14
  1840                           ;./Init.c: 24:     ANSELA=0b10000100;
  1841   010ECE  0E84               	movlw	132
  1842   010ED0  010F               	movlb	15	; () banked
  1843   010ED2  6F11               	movwf	17,b	;volatile
  1844                           
  1845                           ;./Init.c: 25:     ANSELB=0b00000000;
  1846   010ED4  0E00               	movlw	0
  1847   010ED6  6F19               	movwf	25,b	;volatile
  1848                           
  1849                           ;./Init.c: 26:     ANSELC=0b00000000;
  1850   010ED8  0E00               	movlw	0
  1851   010EDA  6F21               	movwf	33,b	;volatile
  1852                           
  1853                           ;./Init.c: 27:     ANSELD=0b00000000;
  1854   010EDC  0E00               	movlw	0
  1855   010EDE  6F26               	movwf	38,b	;volatile
  1856                           
  1857                           ;./Init.c: 28:     ANSELE=0b00000001;
  1858   010EE0  0E01               	movlw	1
  1859   010EE2  6F2E               	movwf	46,b	;volatile
  1860                           
  1861                           ;./Init.c: 31:     TRISA=0b11110110;
  1862   010EE4  0EF6               	movlw	246
  1863   010EE6  6E88               	movwf	136,c	;volatile
  1864                           
  1865                           ;./Init.c: 32:     TRISB=0b11000001;
  1866   010EE8  0EC1               	movlw	193
  1867   010EEA  6E89               	movwf	137,c	;volatile
  1868                           
  1869                           ;./Init.c: 33:     TRISC=0b00111101;
  1870   010EEC  0E3D               	movlw	61
  1871   010EEE  6E8A               	movwf	138,c	;volatile
  1872                           
  1873                           ;./Init.c: 34:     TRISD=0b01001101;
  1874   010EF0  0E4D               	movlw	77
  1875   010EF2  6E8B               	movwf	139,c	;volatile
  1876                           
  1877                           ;./Init.c: 35:     TRISE=0b00001001;
  1878   010EF4  0E09               	movlw	9
  1879   010EF6  6E8C               	movwf	140,c	;volatile
  1880                           
  1881                           ;./Init.c: 38:     WPUA=0b01000000;
  1882   010EF8  0E40               	movlw	64
  1883   010EFA  6F10               	movwf	16,b	;volatile
  1884                           
  1885                           ;./Init.c: 39:     WPUB=0b11000000;
  1886   010EFC  0EC0               	movlw	192
  1887   010EFE  6F18               	movwf	24,b	;volatile
  1888                           
  1889                           ;./Init.c: 40:     WPUC=0b00001100;
  1890   010F00  0E0C               	movlw	12
  1891   010F02  6F20               	movwf	32,b	;volatile
  1892                           
  1893                           ;./Init.c: 41:     WPUD=0b00000000;
  1894   010F04  0E00               	movlw	0
  1895   010F06  6F25               	movwf	37,b	;volatile
  1896                           
  1897                           ;./Init.c: 42:     WPUE=0b00000000;
  1898   010F08  0E00               	movlw	0
  1899   010F0A  6F2D               	movwf	45,b	;volatile
  1900                           
  1901                           ;./Init.c: 45:     ADCON0=0b10000000;
  1902   010F0C  0E80               	movlw	128
  1903   010F0E  6E60               	movwf	96,c	;volatile
  1904                           
  1905                           ;./Init.c: 46:     ADCON1=0b00000000;
  1906   010F10  0E00               	movlw	0
  1907   010F12  6F59               	movwf	89,b	;volatile
  1908                           
  1909                           ;./Init.c: 47:     ADCON2=0b00000000;
  1910   010F14  0E00               	movlw	0
  1911   010F16  6F5A               	movwf	90,b	;volatile
  1912                           
  1913                           ;./Init.c: 48:     ADCON3=0b00000000;
  1914   010F18  0E00               	movlw	0
  1915   010F1A  6F5B               	movwf	91,b	;volatile
  1916                           
  1917                           ;./Init.c: 49:     ADCLK=0b00011111;
  1918   010F1C  0E1F               	movlw	31
  1919   010F1E  6F57               	movwf	87,b	;volatile
  1920                           
  1921                           ;./Init.c: 50:     ADREF=0b00000000;
  1922   010F20  0E00               	movlw	0
  1923   010F22  6F58               	movwf	88,b	;volatile
  1924                           
  1925                           ;./Init.c: 54:     SSP2STAT=0b00000000;
  1926   010F24  0E00               	movlw	0
  1927   010F26  010E               	movlb	14	; () banked
  1928   010F28  6F95               	movwf	149,b	;volatile
  1929                           
  1930                           ;./Init.c: 55:     SSP2ADD=0x22;
  1931   010F2A  0E22               	movlw	34
  1932   010F2C  6F93               	movwf	147,b	;volatile
  1933                           
  1934                           ;./Init.c: 56:     SSP2CON1=0b00101000;
  1935   010F2E  0E28               	movlw	40
  1936   010F30  6F96               	movwf	150,b	;volatile
  1937                           
  1938                           ;./Init.c: 57:     SSP2CON3=0b00000000;
  1939   010F32  0E00               	movlw	0
  1940   010F34  6F98               	movwf	152,b	;volatile
  1941   010F36                     
  1942                           ; BSR set to: 14
  1943                           ;./Init.c: 61:     TXSTA1bits.SYNC=0; TXSTA1bits.TX9=0; TXSTA1bits.TXEN=1;
  1944   010F36  989E               	bcf	158,4,c	;volatile
  1945   010F38                     
  1946                           ; BSR set to: 14
  1947   010F38  9C9E               	bcf	158,6,c	;volatile
  1948   010F3A                     
  1949                           ; BSR set to: 14
  1950   010F3A  8A9E               	bsf	158,5,c	;volatile
  1951   010F3C                     
  1952                           ; BSR set to: 14
  1953                           ;./Init.c: 62:     RCSTA1bits.RX9=0; RCSTA1bits.CREN=1; RCSTA1bits.SPEN=1;
  1954   010F3C  9C9D               	bcf	157,6,c	;volatile
  1955   010F3E                     
  1956                           ; BSR set to: 14
  1957   010F3E  889D               	bsf	157,4,c	;volatile
  1958   010F40                     
  1959                           ; BSR set to: 14
  1960   010F40  8E9D               	bsf	157,7,c	;volatile
  1961   010F42                     
  1962                           ; BSR set to: 14
  1963                           ;./Init.c: 63:     BAUDCON1bits.BRG16=1; TXSTA1bits.BRGH=0; SPBRG1=34;
  1964   010F42  869F               	bsf	159,3,c	;volatile
  1965   010F44                     
  1966                           ; BSR set to: 14
  1967   010F44  949E               	bcf	158,2,c	;volatile
  1968   010F46  0E22               	movlw	34
  1969   010F48  6E9B               	movwf	155,c	;volatile
  1970   010F4A                     
  1971                           ; BSR set to: 14
  1972                           ;./Init.c: 66:     TXSTA2bits.SYNC=0; TXSTA2bits.TX9=0; TXSTA2bits.TXEN=1;
  1973   010F4A  999E               	bcf	158,4,b	;volatile
  1974   010F4C                     
  1975                           ; BSR set to: 14
  1976   010F4C  9D9E               	bcf	158,6,b	;volatile
  1977   010F4E                     
  1978                           ; BSR set to: 14
  1979   010F4E  8B9E               	bsf	158,5,b	;volatile
  1980   010F50                     
  1981                           ; BSR set to: 14
  1982                           ;./Init.c: 67:     RCSTA2bits.RX9=0; RCSTA2bits.CREN=1; RCSTA2bits.SPEN=1;
  1983   010F50  9D9D               	bcf	157,6,b	;volatile
  1984   010F52                     
  1985                           ; BSR set to: 14
  1986   010F52  899D               	bsf	157,4,b	;volatile
  1987   010F54                     
  1988                           ; BSR set to: 14
  1989   010F54  8F9D               	bsf	157,7,b	;volatile
  1990   010F56                     
  1991                           ; BSR set to: 14
  1992                           ;./Init.c: 68:     BAUDCON2bits.BRG16=1; TXSTA2bits.BRGH=0; SPBRG2=34;
  1993   010F56  879F               	bsf	159,3,b	;volatile
  1994   010F58                     
  1995                           ; BSR set to: 14
  1996   010F58  959E               	bcf	158,2,b	;volatile
  1997   010F5A  0E22               	movlw	34
  1998   010F5C  6F9B               	movwf	155,b	;volatile
  1999   010F5E                     
  2000                           ; BSR set to: 14
  2001                           ;./Init.c: 72:     T2PR=255;
  2002   010F5E  68BC               	setf	188,c	;volatile
  2003                           
  2004                           ;./Init.c: 73:     CCPTMRS=0b10100101;
  2005   010F60  0EA5               	movlw	165
  2006   010F62  6EAE               	movwf	174,c	;volatile
  2007                           
  2008                           ;./Init.c: 75:     CCP1CON=0b10011100;
  2009   010F64  0E9C               	movlw	156
  2010   010F66  6EAC               	movwf	172,c	;volatile
  2011                           
  2012                           ;./Init.c: 76:     CCPR1H=127;
  2013   010F68  0E7F               	movlw	127
  2014   010F6A  6EAB               	movwf	171,c	;volatile
  2015                           
  2016                           ;./Init.c: 77:     CCPR1L=0;
  2017   010F6C  0E00               	movlw	0
  2018   010F6E  6EAA               	movwf	170,c	;volatile
  2019                           
  2020                           ;./Init.c: 79:     CCP2CON=0b10011100;
  2021   010F70  0E9C               	movlw	156
  2022   010F72  6EA8               	movwf	168,c	;volatile
  2023                           
  2024                           ;./Init.c: 80:     CCPR2H=127;
  2025   010F74  0E7F               	movlw	127
  2026   010F76  6EA7               	movwf	167,c	;volatile
  2027                           
  2028                           ;./Init.c: 81:     CCPR2L=0;
  2029   010F78  0E00               	movlw	0
  2030   010F7A  6EA6               	movwf	166,c	;volatile
  2031                           
  2032                           ;./Init.c: 85:     RC6PPS=0x05;
  2033   010F7C  0E05               	movlw	5
  2034   010F7E  6FFD               	movwf	253,b	;volatile
  2035                           
  2036                           ;./Init.c: 86:     RC7PPS=0x06;
  2037   010F80  0E06               	movlw	6
  2038   010F82  6FFE               	movwf	254,b	;volatile
  2039                           
  2040                           ;./Init.c: 88:     RD2PPS=0x11;
  2041   010F84  0E11               	movlw	17
  2042   010F86  010F               	movlb	15	; () banked
  2043   010F88  6F01               	movwf	1,b	;volatile
  2044                           
  2045                           ;./Init.c: 89:     RD3PPS=0x12;
  2046   010F8A  0E12               	movlw	18
  2047   010F8C  6F02               	movwf	2,b	;volatile
  2048                           
  2049                           ;./Init.c: 90:     SSP2CLKPPS=0b00011010;
  2050   010F8E  0E1A               	movlw	26
  2051   010F90  010E               	movlb	14	; () banked
  2052   010F92  6F8F               	movwf	143,b	;volatile
  2053                           
  2054                           ;./Init.c: 91:     SSP2DATPPS=0b00011011;
  2055   010F94  0E1B               	movlw	27
  2056   010F96  6F90               	movwf	144,b	;volatile
  2057                           
  2058                           ;./Init.c: 92:     RX2PPS=0b00011000;
  2059   010F98  0E18               	movlw	24
  2060   010F9A  6F8D               	movwf	141,b	;volatile
  2061                           
  2062                           ;./Init.c: 93:     RD1PPS=0x0B;
  2063   010F9C  0E0B               	movlw	11
  2064   010F9E  010F               	movlb	15	; () banked
  2065   010FA0  6F00               	movwf	0,b	;volatile
  2066                           
  2067                           ;./Init.c: 94:     RX1PPS=0b00010000;
  2068   010FA2  0E10               	movlw	16
  2069   010FA4  010E               	movlb	14	; () banked
  2070   010FA6  6FB5               	movwf	181,b	;volatile
  2071                           
  2072                           ;./Init.c: 95:     RC1PPS=0x09;
  2073   010FA8  0E09               	movlw	9
  2074   010FAA  6FF8               	movwf	248,b	;volatile
  2075                           
  2076                           ;./Init.c: 98:     T1CON=0b00110111;
  2077   010FAC  0E37               	movlw	55
  2078   010FAE  6ECF               	movwf	207,c	;volatile
  2079                           
  2080                           ;./Init.c: 99:     TMR1CLK=0b00000001;
  2081   010FB0  0E01               	movlw	1
  2082   010FB2  6ED2               	movwf	210,c	;volatile
  2083                           
  2084                           ;./Init.c: 101:     T2CON=0b10010000;
  2085   010FB4  0E90               	movlw	144
  2086   010FB6  6EBD               	movwf	189,c	;volatile
  2087                           
  2088                           ;./Init.c: 102:     T2CLKCON=0b00000001;
  2089   010FB8  0E01               	movlw	1
  2090   010FBA  6EBF               	movwf	191,c	;volatile
  2091                           
  2092                           ;./Init.c: 107:     T3CON=0b00100110;
  2093   010FBC  0E26               	movlw	38
  2094   010FBE  6EC9               	movwf	201,c	;volatile
  2095                           
  2096                           ;./Init.c: 108:     TMR3CLK=0b00000001;
  2097   010FC0  0E01               	movlw	1
  2098   010FC2  6ECC               	movwf	204,c	;volatile
  2099                           
  2100                           ;./Init.c: 109:     TMR3=29536;
  2101   010FC4  0E73               	movlw	115
  2102   010FC6  6EC8               	movwf	200,c	;volatile
  2103   010FC8  0E60               	movlw	96
  2104   010FCA  6EC7               	movwf	199,c	;volatile
  2105                           
  2106                           ;./Init.c: 112:     T5CON=0b00110111;
  2107   010FCC  0E37               	movlw	55
  2108   010FCE  6EC3               	movwf	195,c	;volatile
  2109                           
  2110                           ;./Init.c: 113:     TMR5CLK=0b00000001;
  2111   010FD0  0E01               	movlw	1
  2112   010FD2  6EC6               	movwf	198,c	;volatile
  2113                           
  2114                           ;./Init.c: 115:     T6CON=0b11100000;
  2115   010FD4  0EE0               	movlw	224
  2116   010FD6  6EB1               	movwf	177,c	;volatile
  2117                           
  2118                           ;./Init.c: 116:     T6CLKCON=0b00000001;
  2119   010FD8  0E01               	movlw	1
  2120   010FDA  6EB3               	movwf	179,c	;volatile
  2121                           
  2122                           ;./Init.c: 117:     T6PR=250;
  2123   010FDC  0EFA               	movlw	250
  2124   010FDE  6EB0               	movwf	176,c	;volatile
  2125   010FE0                     
  2126                           ; BSR set to: 14
  2127                           ;./Init.c: 120:     GIE=1; GIEH=1; GIEL=1; IPEN=1;
  2128   010FE0  8EF2               	bsf	4082,7,c	;volatile
  2129   010FE2                     
  2130                           ; BSR set to: 14
  2131   010FE2  8EF2               	bsf	4082,7,c	;volatile
  2132   010FE4                     
  2133                           ; BSR set to: 14
  2134   010FE4  8CF2               	bsf	4082,6,c	;volatile
  2135   010FE6                     
  2136                           ; BSR set to: 14
  2137   010FE6  8AF2               	bsf	4082,5,c	;volatile
  2138   010FE8                     
  2139                           ; BSR set to: 14
  2140                           ;./Init.c: 121:     PEIE=1;
  2141   010FE8  8CF2               	bsf	4082,6,c	;volatile
  2142   010FEA                     
  2143                           ; BSR set to: 14
  2144                           ;./Init.c: 122:     IOCIE=1; IOCIP=1;
  2145   010FEA  89C2               	bsf	194,4,b	;volatile
  2146   010FEC                     
  2147                           ; BSR set to: 14
  2148   010FEC  89BA               	bsf	186,4,b	;volatile
  2149   010FEE                     
  2150                           ; BSR set to: 14
  2151                           ;./Init.c: 124:     TMR0IE=0; TMR0IP=0;
  2152   010FEE  9BC2               	bcf	194,5,b	;volatile
  2153   010FF0                     
  2154                           ; BSR set to: 14
  2155   010FF0  9BBA               	bcf	186,5,b	;volatile
  2156   010FF2                     
  2157                           ; BSR set to: 14
  2158                           ;./Init.c: 125:     TMR1IE=1; TMR1IP=1;
  2159   010FF2  81C6               	bsf	198,0,b	;volatile
  2160   010FF4                     
  2161                           ; BSR set to: 14
  2162   010FF4  81BE               	bsf	190,0,b	;volatile
  2163   010FF6                     
  2164                           ; BSR set to: 14
  2165                           ;./Init.c: 126:     TMR2IE=0; TMR2IP=0;
  2166   010FF6  93C6               	bcf	198,1,b	;volatile
  2167   010FF8                     
  2168                           ; BSR set to: 14
  2169   010FF8  93BE               	bcf	190,1,b	;volatile
  2170   010FFA                     
  2171                           ; BSR set to: 14
  2172                           ;./Init.c: 127:     TMR3IE=1; TMR3IP=0;
  2173   010FFA  85C6               	bsf	198,2,b	;volatile
  2174   010FFC                     
  2175                           ; BSR set to: 14
  2176   010FFC  95BE               	bcf	190,2,b	;volatile
  2177   010FFE                     
  2178                           ; BSR set to: 14
  2179                           ;./Init.c: 128:     TMR4IE=0; TMR4IP=0;
  2180   010FFE  97C6               	bcf	198,3,b	;volatile
  2181   011000                     
  2182                           ; BSR set to: 14
  2183   011000  97BE               	bcf	190,3,b	;volatile
  2184   011002                     
  2185                           ; BSR set to: 14
  2186                           ;./Init.c: 129:     TMR5IE=1; TMR5IP=1;
  2187   011002  89C6               	bsf	198,4,b	;volatile
  2188   011004                     
  2189                           ; BSR set to: 14
  2190   011004  89BE               	bsf	190,4,b	;volatile
  2191   011006                     
  2192                           ; BSR set to: 14
  2193                           ;./Init.c: 130:     TMR6IE=1; TMR6IP=0;
  2194   011006  8BC6               	bsf	198,5,b	;volatile
  2195   011008                     
  2196                           ; BSR set to: 14
  2197   011008  9BBE               	bcf	190,5,b	;volatile
  2198   01100A                     
  2199                           ; BSR set to: 14
  2200                           ;./Init.c: 132:     SSP2IF=0;
  2201   01100A  95CD               	bcf	205,2,b	;volatile
  2202   01100C                     
  2203                           ; BSR set to: 14
  2204                           ;./Init.c: 133:     SSP2IE=1;
  2205   01100C  85C5               	bsf	197,2,b	;volatile
  2206   01100E                     
  2207                           ; BSR set to: 14
  2208                           ;./Init.c: 134:     SSP2IP=1;
  2209   01100E  85BD               	bsf	189,2,b	;volatile
  2210   011010                     
  2211                           ; BSR set to: 14
  2212                           ;./Init.c: 136:     RC1IP=1; RC1IE=1;
  2213   011010  8BBD               	bsf	189,5,b	;volatile
  2214   011012                     
  2215                           ; BSR set to: 14
  2216   011012  8BC5               	bsf	197,5,b	;volatile
  2217   011014                     
  2218                           ; BSR set to: 14
  2219                           ;./Init.c: 137:     RC2IP=1; RC2IE=0;
  2220   011014  8FBD               	bsf	189,7,b	;volatile
  2221   011016                     
  2222                           ; BSR set to: 14
  2223   011016  9FC5               	bcf	197,7,b	;volatile
  2224   011018                     
  2225                           ; BSR set to: 14
  2226                           ;./Init.c: 139:     IOCCN2=1;
  2227   011018  010F               	movlb	15	; () banked
  2228   01101A  851B               	bsf	27,2,b	;volatile
  2229   01101C                     
  2230                           ; BSR set to: 15
  2231                           ;./Init.c: 140:     IOCCP2=1;
  2232   01101C  851C               	bsf	28,2,b	;volatile
  2233   01101E                     
  2234                           ; BSR set to: 15
  2235                           ;./Init.c: 141:     IOCAN6=1;
  2236   01101E  8D0B               	bsf	11,6,b	;volatile
  2237   011020                     
  2238                           ; BSR set to: 15
  2239                           ;./Init.c: 142:     IOCAP6=1;
  2240   011020  8D0C               	bsf	12,6,b	;volatile
  2241   011022                     
  2242                           ; BSR set to: 15
  2243                           ;./Init.c: 143:     IOCBN0=1;
  2244   011022  8113               	bsf	19,0,b	;volatile
  2245   011024                     
  2246                           ; BSR set to: 15
  2247                           ;./Init.c: 144:     IOCBP0=1;
  2248   011024  8114               	bsf	20,0,b	;volatile
  2249   011026                     
  2250                           ; BSR set to: 15
  2251                           ;./Init.c: 145:     IOCCN5=1;
  2252   011026  8B1B               	bsf	27,5,b	;volatile
  2253   011028                     
  2254                           ; BSR set to: 15
  2255                           ;./Init.c: 146:     IOCCP5=1;
  2256   011028  8B1C               	bsf	28,5,b	;volatile
  2257   01102A                     
  2258                           ; BSR set to: 15
  2259                           ;./Init.c: 148:     LIDAR_Motor_Enable(0);
  2260   01102A  0E00               	movlw	0
  2261   01102C  EC1C  F0A0         	call	_LIDAR_Motor_Enable
  2262   011030                     
  2263                           ;./Init.c: 149:     LCD_Retro(1);
  2264   011030  0E01               	movlw	1
  2265   011032  EC27  F0A3         	call	_LCD_Retro
  2266   011036                     
  2267                           ;./Init.c: 150:     LCD_Init();
  2268   011036  EC3F  F09F         	call	_LCD_Init	;wreg free
  2269   01103A                     
  2270                           ;./Init.c: 151:     LCD_Clear();
  2271   01103A  ECD2  F0A2         	call	_LCD_Clear	;wreg free
  2272   01103E                     
  2273                           ;./Init.c: 152:     LATAbits.LATA3=1;
  2274   01103E  8683               	bsf	131,3,c	;volatile
  2275   011040                     
  2276                           ;./Init.c: 153:     LATEbits.LATE1=1;
  2277   011040  8287               	bsf	135,1,c	;volatile
  2278   011042                     
  2279                           ;./Init.c: 154:     LCD_Goto(0,0); LCD_Print("ROBOT CACHAN BUT");
  2280   011042  0E00               	movlw	0
  2281   011044  0101               	movlb	1	; () banked
  2282   011046  6F2E               	movwf	LCD_Goto@colonne& (0+255),b
  2283   011048  0E00               	movlw	0
  2284   01104A  EC56  F0A2         	call	_LCD_Goto
  2285   01104E  0ED9               	movlw	low STR_19
  2286   011050  0101               	movlb	1	; () banked
  2287   011052  6F2E               	movwf	LCD_Print@t& (0+255),b
  2288   011054  0EFF               	movlw	high STR_19
  2289   011056  6F2F               	movwf	(LCD_Print@t+1)& (0+255),b
  2290   011058  ECB9  F0A1         	call	_LCD_Print	;wreg free
  2291   01105C                     
  2292                           ;./Init.c: 155:     LCD_Goto(1,0); LCD_Print("LIDAR COMPAS   2");
  2293   01105C  0E00               	movlw	0
  2294   01105E  0101               	movlb	1	; () banked
  2295   011060  6F2E               	movwf	LCD_Goto@colonne& (0+255),b
  2296   011062  0E01               	movlw	1
  2297   011064  EC56  F0A2         	call	_LCD_Goto
  2298   011068  0E73               	movlw	low STR_20
  2299   01106A  0101               	movlb	1	; () banked
  2300   01106C  6F2E               	movwf	LCD_Print@t& (0+255),b
  2301   01106E  0EFF               	movlw	high STR_20
  2302   011070  6F2F               	movwf	(LCD_Print@t+1)& (0+255),b
  2303   011072  ECB9  F0A1         	call	_LCD_Print	;wreg free
  2304                           
  2305                           ;./Init.c: 156:     _delay((unsigned long)((500)*(64000000/4000.0)));
  2306   011076  0E29               	movlw	41
  2307   011078  0101               	movlb	1	; () banked
  2308   01107A  6F92               	movwf	(??_Initialisation+1)& (0+255),b
  2309   01107C  0E96               	movlw	150
  2310   01107E  6F91               	movwf	??_Initialisation& (0+255),b
  2311   011080  0E7F               	movlw	127
  2312   011082                     u10897:
  2313   011082  2EE8               	decfsz	wreg,f,c
  2314   011084  D7FE               	bra	u10897
  2315   011086  2F91               	decfsz	??_Initialisation& (0+255),f,b
  2316   011088  D7FC               	bra	u10897
  2317   01108A  2F92               	decfsz	(??_Initialisation+1)& (0+255),f,b
  2318   01108C  D7FA               	bra	u10897
  2319   01108E                     
  2320                           ;./Init.c: 157:     LCD_Goto(0,0); LCD_Print("ALEXANDRE ULRICH");
  2321   01108E  0E00               	movlw	0
  2322   011090  0101               	movlb	1	; () banked
  2323   011092  6F2E               	movwf	LCD_Goto@colonne& (0+255),b
  2324   011094  0E00               	movlw	0
  2325   011096  EC56  F0A2         	call	_LCD_Goto
  2326   01109A  0EC8               	movlw	low STR_21
  2327   01109C  0101               	movlb	1	; () banked
  2328   01109E  6F2E               	movwf	LCD_Print@t& (0+255),b
  2329   0110A0  0EFF               	movlw	high STR_21
  2330   0110A2  6F2F               	movwf	(LCD_Print@t+1)& (0+255),b
  2331   0110A4  ECB9  F0A1         	call	_LCD_Print	;wreg free
  2332   0110A8                     
  2333                           ;./Init.c: 158:     LCD_Goto(1,0); LCD_Print(" IUT DE HAGUENAU");
  2334   0110A8  0E00               	movlw	0
  2335   0110AA  0101               	movlb	1	; () banked
  2336   0110AC  6F2E               	movwf	LCD_Goto@colonne& (0+255),b
  2337   0110AE  0E01               	movlw	1
  2338   0110B0  EC56  F0A2         	call	_LCD_Goto
  2339   0110B4  0EEA               	movlw	low STR_22
  2340   0110B6  0101               	movlb	1	; () banked
  2341   0110B8  6F2E               	movwf	LCD_Print@t& (0+255),b
  2342   0110BA  0EFF               	movlw	high STR_22
  2343   0110BC  6F2F               	movwf	(LCD_Print@t+1)& (0+255),b
  2344   0110BE  ECB9  F0A1         	call	_LCD_Print	;wreg free
  2345                           
  2346                           ;./Init.c: 159:     _delay((unsigned long)((500)*(64000000/4000.0)));
  2347   0110C2  0E29               	movlw	41
  2348   0110C4  0101               	movlb	1	; () banked
  2349   0110C6  6F92               	movwf	(??_Initialisation+1)& (0+255),b
  2350   0110C8  0E96               	movlw	150
  2351   0110CA  6F91               	movwf	??_Initialisation& (0+255),b
  2352   0110CC  0E7F               	movlw	127
  2353   0110CE                     u10907:
  2354   0110CE  2EE8               	decfsz	wreg,f,c
  2355   0110D0  D7FE               	bra	u10907
  2356   0110D2  2F91               	decfsz	??_Initialisation& (0+255),f,b
  2357   0110D4  D7FC               	bra	u10907
  2358   0110D6  2F92               	decfsz	(??_Initialisation+1)& (0+255),f,b
  2359   0110D8  D7FA               	bra	u10907
  2360   0110DA                     
  2361                           ;./Init.c: 160:     Compass_Init();
  2362   0110DA  ECF3  F09B         	call	_Compass_Init	;wreg free
  2363   0110DE                     
  2364                           ;./Init.c: 161:     LCD_Goto(0,0); LCD_Print(" ACTIVER LIDAR ?");
  2365   0110DE  0E00               	movlw	0
  2366   0110E0  0101               	movlb	1	; () banked
  2367   0110E2  6F2E               	movwf	LCD_Goto@colonne& (0+255),b
  2368   0110E4  0E00               	movlw	0
  2369   0110E6  EC56  F0A2         	call	_LCD_Goto
  2370   0110EA  0E84               	movlw	low STR_23
  2371   0110EC  0101               	movlb	1	; () banked
  2372   0110EE  6F2E               	movwf	LCD_Print@t& (0+255),b
  2373   0110F0  0EFF               	movlw	high STR_23
  2374   0110F2  6F2F               	movwf	(LCD_Print@t+1)& (0+255),b
  2375   0110F4  ECB9  F0A1         	call	_LCD_Print	;wreg free
  2376   0110F8                     
  2377                           ;./Init.c: 162:     ENC_Set_Value(0);
  2378   0110F8  0E00               	movlw	0
  2379   0110FA  0101               	movlb	1	; () banked
  2380   0110FC  6F2B               	movwf	(ENC_Set_Value@val+1)& (0+255),b
  2381   0110FE  0E00               	movlw	0
  2382   011100  6F2A               	movwf	ENC_Set_Value@val& (0+255),b
  2383   011102  EC4D  F0A3         	call	_ENC_Set_Value	;wreg free
  2384                           
  2385                           ;./Init.c: 163:     while (BP_Get_Falling_Edge()==0)
  2386   011106  EFE0  F088         	goto	l6723
  2387   01110A                     l6703:
  2388                           
  2389                           ;./Init.c: 164:     {;./Init.c: 165:         if (ENC_Get_Value()>65000) {ENC_Set_Value(0
      +                          );}
  2390   01110A  EC48  F0A3         	call	_ENC_Get_Value	;wreg free
  2391   01110E  0EE9               	movlw	233
  2392   011110  0101               	movlb	1	; () banked
  2393   011112  5D2A               	subwf	?_ENC_Get_Value& (0+255),w,b
  2394   011114  0EFD               	movlw	253
  2395   011116  592B               	subwfb	(?_ENC_Get_Value+1)& (0+255),w,b
  2396   011118  A0D8               	btfss	status,0,c
  2397   01111A  EF91  F088         	goto	u7201
  2398   01111E  EF93  F088         	goto	u7200
  2399   011122                     u7201:
  2400   011122  EF99  F088         	goto	l6707
  2401   011126                     u7200:
  2402   011126                     
  2403                           ; BSR set to: 1
  2404   011126  0E00               	movlw	0
  2405   011128  6F2B               	movwf	(ENC_Set_Value@val+1)& (0+255),b
  2406   01112A  0E00               	movlw	0
  2407   01112C  6F2A               	movwf	ENC_Set_Value@val& (0+255),b
  2408   01112E  EC4D  F0A3         	call	_ENC_Set_Value	;wreg free
  2409   011132                     l6707:
  2410                           
  2411                           ;./Init.c: 166:         if (ENC_Get_Value()>1) {ENC_Set_Value(1);}
  2412   011132  EC48  F0A3         	call	_ENC_Get_Value	;wreg free
  2413   011136  0101               	movlb	1	; () banked
  2414   011138  512B               	movf	(?_ENC_Get_Value+1)& (0+255),w,b
  2415   01113A  E109               	bnz	u7210
  2416   01113C  0E02               	movlw	2
  2417   01113E  5D2A               	subwf	?_ENC_Get_Value& (0+255),w,b
  2418   011140  A0D8               	btfss	status,0,c
  2419   011142  EFA5  F088         	goto	u7211
  2420   011146  EFA7  F088         	goto	u7210
  2421   01114A                     u7211:
  2422   01114A  EFCB  F088         	goto	l6721
  2423   01114E                     u7210:
  2424   01114E                     
  2425                           ; BSR set to: 1
  2426   01114E  0E00               	movlw	0
  2427   011150  6F2B               	movwf	(ENC_Set_Value@val+1)& (0+255),b
  2428   011152  0E01               	movlw	1
  2429   011154  6F2A               	movwf	ENC_Set_Value@val& (0+255),b
  2430   011156  EC4D  F0A3         	call	_ENC_Set_Value	;wreg free
  2431   01115A  EFCB  F088         	goto	l6721
  2432   01115E                     l6711:
  2433                           
  2434                           ; BSR set to: 1
  2435   01115E  0E00               	movlw	0
  2436   011160  6F2E               	movwf	LCD_Goto@colonne& (0+255),b
  2437   011162  0E01               	movlw	1
  2438   011164  EC56  F0A2         	call	_LCD_Goto
  2439   011168  0EEB               	movlw	low STR_24
  2440   01116A  0101               	movlb	1	; () banked
  2441   01116C  6F2E               	movwf	LCD_Print@t& (0+255),b
  2442   01116E  0EFE               	movlw	high STR_24
  2443   011170  6F2F               	movwf	(LCD_Print@t+1)& (0+255),b
  2444   011172  ECB9  F0A1         	call	_LCD_Print	;wreg free
  2445   011176  EFE0  F088         	goto	l6723
  2446   01117A                     l6715:
  2447                           
  2448                           ; BSR set to: 1
  2449   01117A  0E00               	movlw	0
  2450   01117C  6F2E               	movwf	LCD_Goto@colonne& (0+255),b
  2451   01117E  0E01               	movlw	1
  2452   011180  EC56  F0A2         	call	_LCD_Goto
  2453   011184  0EFC               	movlw	low STR_25
  2454   011186  0101               	movlb	1	; () banked
  2455   011188  6F2E               	movwf	LCD_Print@t& (0+255),b
  2456   01118A  0EFE               	movlw	high STR_25
  2457   01118C  6F2F               	movwf	(LCD_Print@t+1)& (0+255),b
  2458   01118E  ECB9  F0A1         	call	_LCD_Print	;wreg free
  2459   011192  EFE0  F088         	goto	l6723
  2460   011196                     l6721:
  2461   011196  EC48  F0A3         	call	_ENC_Get_Value	;wreg free
  2462                           
  2463                           ; Switch on 2 bytes has been partitioned into a top level switch of size 1, and 1 sub-sw
      +                          itches
  2464                           ; Switch size 1, requested type "simple"
  2465                           ; Number of cases is 1, Range of values is 0 to 0
  2466                           ; switch strategies available:
  2467                           ; Name         Instructions Cycles
  2468                           ; simple_byte            4     3 (average)
  2469                           ;	Chosen strategy is simple_byte
  2470   01119A  0101               	movlb	1	; () banked
  2471   01119C  512B               	movf	(?_ENC_Get_Value+1)& (0+255),w,b
  2472   01119E  0A00               	xorlw	0	; case 0
  2473   0111A0  B4D8               	btfsc	status,2,c
  2474   0111A2  EFD5  F088         	goto	l9093
  2475   0111A6  EFE0  F088         	goto	l6723
  2476   0111AA                     l9093:
  2477                           
  2478                           ; BSR set to: 1
  2479                           ; Switch size 1, requested type "simple"
  2480                           ; Number of cases is 2, Range of values is 0 to 1
  2481                           ; switch strategies available:
  2482                           ; Name         Instructions Cycles
  2483                           ; simple_byte            7     4 (average)
  2484                           ;	Chosen strategy is simple_byte
  2485   0111AA  512A               	movf	?_ENC_Get_Value& (0+255),w,b
  2486   0111AC  0A00               	xorlw	0	; case 0
  2487   0111AE  B4D8               	btfsc	status,2,c
  2488   0111B0  EFAF  F088         	goto	l6711
  2489   0111B4  0A01               	xorlw	1	; case 1
  2490   0111B6  B4D8               	btfsc	status,2,c
  2491   0111B8  EFBD  F088         	goto	l6715
  2492   0111BC  EFE0  F088         	goto	l6723
  2493   0111C0                     l6723:
  2494                           
  2495                           ;./Init.c: 163:     while (BP_Get_Falling_Edge()==0)
  2496   0111C0  ECFD  F0A1         	call	_BP_Get_Falling_Edge	;wreg free
  2497   0111C4  0900               	iorlw	0
  2498   0111C6  B4D8               	btfsc	status,2,c
  2499   0111C8  EFE8  F088         	goto	u7221
  2500   0111CC  EFEA  F088         	goto	u7220
  2501   0111D0                     u7221:
  2502   0111D0  EF85  F088         	goto	l6703
  2503   0111D4                     u7220:
  2504   0111D4                     
  2505                           ;./Init.c: 173:     if (ENC_Get_Value()==0) {LIDAR_Motor_Enable(1);}
  2506   0111D4  EC48  F0A3         	call	_ENC_Get_Value	;wreg free
  2507   0111D8  0101               	movlb	1	; () banked
  2508   0111DA  512A               	movf	?_ENC_Get_Value& (0+255),w,b
  2509   0111DC  112B               	iorwf	(?_ENC_Get_Value+1)& (0+255),w,b
  2510   0111DE  A4D8               	btfss	status,2,c
  2511   0111E0  EFF4  F088         	goto	u7231
  2512   0111E4  EFF6  F088         	goto	u7230
  2513   0111E8                     u7231:
  2514   0111E8  EFF9  F088         	goto	l6729
  2515   0111EC                     u7230:
  2516   0111EC                     
  2517                           ; BSR set to: 1
  2518   0111EC  0E01               	movlw	1
  2519   0111EE  EC1C  F0A0         	call	_LIDAR_Motor_Enable
  2520   0111F2                     l6729:
  2521                           
  2522                           ;./Init.c: 174:     _delay((unsigned long)((200)*(64000000/4000.0)));
  2523   0111F2  0E11               	movlw	17
  2524   0111F4  0101               	movlb	1	; () banked
  2525   0111F6  6F92               	movwf	(??_Initialisation+1)& (0+255),b
  2526   0111F8  0E3C               	movlw	60
  2527   0111FA  6F91               	movwf	??_Initialisation& (0+255),b
  2528   0111FC  0ECB               	movlw	203
  2529   0111FE                     u10917:
  2530   0111FE  2EE8               	decfsz	wreg,f,c
  2531   011200  D7FE               	bra	u10917
  2532   011202  2F91               	decfsz	??_Initialisation& (0+255),f,b
  2533   011204  D7FC               	bra	u10917
  2534   011206  2F92               	decfsz	(??_Initialisation+1)& (0+255),f,b
  2535   011208  D7FA               	bra	u10917
  2536   01120A                     
  2537                           ;./Init.c: 175:     LCD_Goto(0,0); LCD_Print("CALIBRER COMPAS?");
  2538   01120A  0E00               	movlw	0
  2539   01120C  0101               	movlb	1	; () banked
  2540   01120E  6F2E               	movwf	LCD_Goto@colonne& (0+255),b
  2541   011210  0E00               	movlw	0
  2542   011212  EC56  F0A2         	call	_LCD_Goto
  2543   011216  0E95               	movlw	low STR_26
  2544   011218  0101               	movlb	1	; () banked
  2545   01121A  6F2E               	movwf	LCD_Print@t& (0+255),b
  2546   01121C  0EFF               	movlw	high STR_26
  2547   01121E  6F2F               	movwf	(LCD_Print@t+1)& (0+255),b
  2548   011220  ECB9  F0A1         	call	_LCD_Print	;wreg free
  2549   011224                     
  2550                           ;./Init.c: 176:     ENC_Set_Value(0);
  2551   011224  0E00               	movlw	0
  2552   011226  0101               	movlb	1	; () banked
  2553   011228  6F2B               	movwf	(ENC_Set_Value@val+1)& (0+255),b
  2554   01122A  0E00               	movlw	0
  2555   01122C  6F2A               	movwf	ENC_Set_Value@val& (0+255),b
  2556   01122E  EC4D  F0A3         	call	_ENC_Set_Value	;wreg free
  2557                           
  2558                           ;./Init.c: 177:     while (BP_Get_Falling_Edge()==0)
  2559   011232  EF76  F089         	goto	l6757
  2560   011236                     l6737:
  2561                           
  2562                           ;./Init.c: 178:     {;./Init.c: 179:         if (ENC_Get_Value()>65000) {ENC_Set_Value(0
      +                          );}
  2563   011236  EC48  F0A3         	call	_ENC_Get_Value	;wreg free
  2564   01123A  0EE9               	movlw	233
  2565   01123C  0101               	movlb	1	; () banked
  2566   01123E  5D2A               	subwf	?_ENC_Get_Value& (0+255),w,b
  2567   011240  0EFD               	movlw	253
  2568   011242  592B               	subwfb	(?_ENC_Get_Value+1)& (0+255),w,b
  2569   011244  A0D8               	btfss	status,0,c
  2570   011246  EF27  F089         	goto	u7241
  2571   01124A  EF29  F089         	goto	u7240
  2572   01124E                     u7241:
  2573   01124E  EF2F  F089         	goto	l6741
  2574   011252                     u7240:
  2575   011252                     
  2576                           ; BSR set to: 1
  2577   011252  0E00               	movlw	0
  2578   011254  6F2B               	movwf	(ENC_Set_Value@val+1)& (0+255),b
  2579   011256  0E00               	movlw	0
  2580   011258  6F2A               	movwf	ENC_Set_Value@val& (0+255),b
  2581   01125A  EC4D  F0A3         	call	_ENC_Set_Value	;wreg free
  2582   01125E                     l6741:
  2583                           
  2584                           ;./Init.c: 180:         if (ENC_Get_Value()>1) {ENC_Set_Value(1);}
  2585   01125E  EC48  F0A3         	call	_ENC_Get_Value	;wreg free
  2586   011262  0101               	movlb	1	; () banked
  2587   011264  512B               	movf	(?_ENC_Get_Value+1)& (0+255),w,b
  2588   011266  E109               	bnz	u7250
  2589   011268  0E02               	movlw	2
  2590   01126A  5D2A               	subwf	?_ENC_Get_Value& (0+255),w,b
  2591   01126C  A0D8               	btfss	status,0,c
  2592   01126E  EF3B  F089         	goto	u7251
  2593   011272  EF3D  F089         	goto	u7250
  2594   011276                     u7251:
  2595   011276  EF61  F089         	goto	l6755
  2596   01127A                     u7250:
  2597   01127A                     
  2598                           ; BSR set to: 1
  2599   01127A  0E00               	movlw	0
  2600   01127C  6F2B               	movwf	(ENC_Set_Value@val+1)& (0+255),b
  2601   01127E  0E01               	movlw	1
  2602   011280  6F2A               	movwf	ENC_Set_Value@val& (0+255),b
  2603   011282  EC4D  F0A3         	call	_ENC_Set_Value	;wreg free
  2604   011286  EF61  F089         	goto	l6755
  2605   01128A                     l6745:
  2606                           
  2607                           ; BSR set to: 1
  2608   01128A  0E00               	movlw	0
  2609   01128C  6F2E               	movwf	LCD_Goto@colonne& (0+255),b
  2610   01128E  0E01               	movlw	1
  2611   011290  EC56  F0A2         	call	_LCD_Goto
  2612   011294  0EEB               	movlw	low STR_24
  2613   011296  0101               	movlb	1	; () banked
  2614   011298  6F2E               	movwf	LCD_Print@t& (0+255),b
  2615   01129A  0EFE               	movlw	high STR_24
  2616   01129C  6F2F               	movwf	(LCD_Print@t+1)& (0+255),b
  2617   01129E  ECB9  F0A1         	call	_LCD_Print	;wreg free
  2618   0112A2  EF76  F089         	goto	l6757
  2619   0112A6                     l6749:
  2620                           
  2621                           ; BSR set to: 1
  2622   0112A6  0E00               	movlw	0
  2623   0112A8  6F2E               	movwf	LCD_Goto@colonne& (0+255),b
  2624   0112AA  0E01               	movlw	1
  2625   0112AC  EC56  F0A2         	call	_LCD_Goto
  2626   0112B0  0EFC               	movlw	low STR_25
  2627   0112B2  0101               	movlb	1	; () banked
  2628   0112B4  6F2E               	movwf	LCD_Print@t& (0+255),b
  2629   0112B6  0EFE               	movlw	high STR_25
  2630   0112B8  6F2F               	movwf	(LCD_Print@t+1)& (0+255),b
  2631   0112BA  ECB9  F0A1         	call	_LCD_Print	;wreg free
  2632   0112BE  EF76  F089         	goto	l6757
  2633   0112C2                     l6755:
  2634   0112C2  EC48  F0A3         	call	_ENC_Get_Value	;wreg free
  2635                           
  2636                           ; Switch on 2 bytes has been partitioned into a top level switch of size 1, and 1 sub-sw
      +                          itches
  2637                           ; Switch size 1, requested type "simple"
  2638                           ; Number of cases is 1, Range of values is 0 to 0
  2639                           ; switch strategies available:
  2640                           ; Name         Instructions Cycles
  2641                           ; simple_byte            4     3 (average)
  2642                           ;	Chosen strategy is simple_byte
  2643   0112C6  0101               	movlb	1	; () banked
  2644   0112C8  512B               	movf	(?_ENC_Get_Value+1)& (0+255),w,b
  2645   0112CA  0A00               	xorlw	0	; case 0
  2646   0112CC  B4D8               	btfsc	status,2,c
  2647   0112CE  EF6B  F089         	goto	l9095
  2648   0112D2  EF76  F089         	goto	l6757
  2649   0112D6                     l9095:
  2650                           
  2651                           ; BSR set to: 1
  2652                           ; Switch size 1, requested type "simple"
  2653                           ; Number of cases is 2, Range of values is 0 to 1
  2654                           ; switch strategies available:
  2655                           ; Name         Instructions Cycles
  2656                           ; simple_byte            7     4 (average)
  2657                           ;	Chosen strategy is simple_byte
  2658   0112D6  512A               	movf	?_ENC_Get_Value& (0+255),w,b
  2659   0112D8  0A00               	xorlw	0	; case 0
  2660   0112DA  B4D8               	btfsc	status,2,c
  2661   0112DC  EF45  F089         	goto	l6745
  2662   0112E0  0A01               	xorlw	1	; case 1
  2663   0112E2  B4D8               	btfsc	status,2,c
  2664   0112E4  EF53  F089         	goto	l6749
  2665   0112E8  EF76  F089         	goto	l6757
  2666   0112EC                     l6757:
  2667                           
  2668                           ;./Init.c: 177:     while (BP_Get_Falling_Edge()==0)
  2669   0112EC  ECFD  F0A1         	call	_BP_Get_Falling_Edge	;wreg free
  2670   0112F0  0900               	iorlw	0
  2671   0112F2  B4D8               	btfsc	status,2,c
  2672   0112F4  EF7E  F089         	goto	u7261
  2673   0112F8  EF80  F089         	goto	u7260
  2674   0112FC                     u7261:
  2675   0112FC  EF1B  F089         	goto	l6737
  2676   011300                     u7260:
  2677   011300                     
  2678                           ;./Init.c: 187:     if (ENC_Get_Value()==0)
  2679   011300  EC48  F0A3         	call	_ENC_Get_Value	;wreg free
  2680   011304  0101               	movlb	1	; () banked
  2681   011306  512A               	movf	?_ENC_Get_Value& (0+255),w,b
  2682   011308  112B               	iorwf	(?_ENC_Get_Value+1)& (0+255),w,b
  2683   01130A  A4D8               	btfss	status,2,c
  2684   01130C  EF8A  F089         	goto	u7271
  2685   011310  EF8C  F089         	goto	u7270
  2686   011314                     u7271:
  2687   011314  EF9A  F089         	goto	l6765
  2688   011318                     u7270:
  2689   011318                     
  2690                           ; BSR set to: 1
  2691                           ;./Init.c: 188:     {;./Init.c: 189:         _delay((unsigned long)((500)*(64000000/4000
      +                          .0)));
  2692   011318  0E29               	movlw	41
  2693   01131A  0101               	movlb	1	; () banked
  2694   01131C  6F92               	movwf	(??_Initialisation+1)& (0+255),b
  2695   01131E  0E96               	movlw	150
  2696   011320  6F91               	movwf	??_Initialisation& (0+255),b
  2697   011322  0E7F               	movlw	127
  2698   011324                     u10927:
  2699   011324  2EE8               	decfsz	wreg,f,c
  2700   011326  D7FE               	bra	u10927
  2701   011328  2F91               	decfsz	??_Initialisation& (0+255),f,b
  2702   01132A  D7FC               	bra	u10927
  2703   01132C  2F92               	decfsz	(??_Initialisation+1)& (0+255),f,b
  2704   01132E  D7FA               	bra	u10927
  2705   011330                     
  2706                           ;./Init.c: 190:         Compass_Calibre();
  2707   011330  EC35  F093         	call	_Compass_Calibre	;wreg free
  2708   011334                     l6765:
  2709                           
  2710                           ;./Init.c: 192:     _delay((unsigned long)((400)*(64000000/4000.0)));
  2711   011334  0E21               	movlw	33
  2712   011336  0101               	movlb	1	; () banked
  2713   011338  6F92               	movwf	(??_Initialisation+1)& (0+255),b
  2714   01133A  0E78               	movlw	120
  2715   01133C  6F91               	movwf	??_Initialisation& (0+255),b
  2716   01133E  0E98               	movlw	152
  2717   011340                     u10937:
  2718   011340  2EE8               	decfsz	wreg,f,c
  2719   011342  D7FE               	bra	u10937
  2720   011344  2F91               	decfsz	??_Initialisation& (0+255),f,b
  2721   011346  D7FC               	bra	u10937
  2722   011348  2F92               	decfsz	(??_Initialisation+1)& (0+255),f,b
  2723   01134A  D7FA               	bra	u10937
  2724   01134C  0000               	nop	
  2725   01134E                     
  2726                           ;./Init.c: 193:     LCD_Goto(0,0); LCD_Print("ACTIVER RC BT ? ");
  2727   01134E  0E00               	movlw	0
  2728   011350  0101               	movlb	1	; () banked
  2729   011352  6F2E               	movwf	LCD_Goto@colonne& (0+255),b
  2730   011354  0E00               	movlw	0
  2731   011356  EC56  F0A2         	call	_LCD_Goto
  2732   01135A  0E1E               	movlw	low STR_29
  2733   01135C  0101               	movlb	1	; () banked
  2734   01135E  6F2E               	movwf	LCD_Print@t& (0+255),b
  2735   011360  0EFF               	movlw	high STR_29
  2736   011362  6F2F               	movwf	(LCD_Print@t+1)& (0+255),b
  2737   011364  ECB9  F0A1         	call	_LCD_Print	;wreg free
  2738   011368                     
  2739                           ;./Init.c: 194:     ENC_Set_Value(1);
  2740   011368  0E00               	movlw	0
  2741   01136A  0101               	movlb	1	; () banked
  2742   01136C  6F2B               	movwf	(ENC_Set_Value@val+1)& (0+255),b
  2743   01136E  0E01               	movlw	1
  2744   011370  6F2A               	movwf	ENC_Set_Value@val& (0+255),b
  2745   011372  EC4D  F0A3         	call	_ENC_Set_Value	;wreg free
  2746                           
  2747                           ;./Init.c: 195:     while (BP_Get_Falling_Edge()==0)
  2748   011376  EF18  F08A         	goto	l6793
  2749   01137A                     l6773:
  2750                           
  2751                           ;./Init.c: 196:     {;./Init.c: 197:         if (ENC_Get_Value()>65000) {ENC_Set_Value(0
      +                          );}
  2752   01137A  EC48  F0A3         	call	_ENC_Get_Value	;wreg free
  2753   01137E  0EE9               	movlw	233
  2754   011380  0101               	movlb	1	; () banked
  2755   011382  5D2A               	subwf	?_ENC_Get_Value& (0+255),w,b
  2756   011384  0EFD               	movlw	253
  2757   011386  592B               	subwfb	(?_ENC_Get_Value+1)& (0+255),w,b
  2758   011388  A0D8               	btfss	status,0,c
  2759   01138A  EFC9  F089         	goto	u7281
  2760   01138E  EFCB  F089         	goto	u7280
  2761   011392                     u7281:
  2762   011392  EFD1  F089         	goto	l6777
  2763   011396                     u7280:
  2764   011396                     
  2765                           ; BSR set to: 1
  2766   011396  0E00               	movlw	0
  2767   011398  6F2B               	movwf	(ENC_Set_Value@val+1)& (0+255),b
  2768   01139A  0E00               	movlw	0
  2769   01139C  6F2A               	movwf	ENC_Set_Value@val& (0+255),b
  2770   01139E  EC4D  F0A3         	call	_ENC_Set_Value	;wreg free
  2771   0113A2                     l6777:
  2772                           
  2773                           ;./Init.c: 198:         if (ENC_Get_Value()>1) {ENC_Set_Value(1);}
  2774   0113A2  EC48  F0A3         	call	_ENC_Get_Value	;wreg free
  2775   0113A6  0101               	movlb	1	; () banked
  2776   0113A8  512B               	movf	(?_ENC_Get_Value+1)& (0+255),w,b
  2777   0113AA  E109               	bnz	u7290
  2778   0113AC  0E02               	movlw	2
  2779   0113AE  5D2A               	subwf	?_ENC_Get_Value& (0+255),w,b
  2780   0113B0  A0D8               	btfss	status,0,c
  2781   0113B2  EFDD  F089         	goto	u7291
  2782   0113B6  EFDF  F089         	goto	u7290
  2783   0113BA                     u7291:
  2784   0113BA  EF03  F08A         	goto	l6791
  2785   0113BE                     u7290:
  2786   0113BE                     
  2787                           ; BSR set to: 1
  2788   0113BE  0E00               	movlw	0
  2789   0113C0  6F2B               	movwf	(ENC_Set_Value@val+1)& (0+255),b
  2790   0113C2  0E01               	movlw	1
  2791   0113C4  6F2A               	movwf	ENC_Set_Value@val& (0+255),b
  2792   0113C6  EC4D  F0A3         	call	_ENC_Set_Value	;wreg free
  2793   0113CA  EF03  F08A         	goto	l6791
  2794   0113CE                     l6781:
  2795                           
  2796                           ; BSR set to: 1
  2797   0113CE  0E00               	movlw	0
  2798   0113D0  6F2E               	movwf	LCD_Goto@colonne& (0+255),b
  2799   0113D2  0E01               	movlw	1
  2800   0113D4  EC56  F0A2         	call	_LCD_Goto
  2801   0113D8  0EEB               	movlw	low STR_24
  2802   0113DA  0101               	movlb	1	; () banked
  2803   0113DC  6F2E               	movwf	LCD_Print@t& (0+255),b
  2804   0113DE  0EFE               	movlw	high STR_24
  2805   0113E0  6F2F               	movwf	(LCD_Print@t+1)& (0+255),b
  2806   0113E2  ECB9  F0A1         	call	_LCD_Print	;wreg free
  2807   0113E6  EF18  F08A         	goto	l6793
  2808   0113EA                     l6785:
  2809                           
  2810                           ; BSR set to: 1
  2811   0113EA  0E00               	movlw	0
  2812   0113EC  6F2E               	movwf	LCD_Goto@colonne& (0+255),b
  2813   0113EE  0E01               	movlw	1
  2814   0113F0  EC56  F0A2         	call	_LCD_Goto
  2815   0113F4  0EFC               	movlw	low STR_25
  2816   0113F6  0101               	movlb	1	; () banked
  2817   0113F8  6F2E               	movwf	LCD_Print@t& (0+255),b
  2818   0113FA  0EFE               	movlw	high STR_25
  2819   0113FC  6F2F               	movwf	(LCD_Print@t+1)& (0+255),b
  2820   0113FE  ECB9  F0A1         	call	_LCD_Print	;wreg free
  2821   011402  EF18  F08A         	goto	l6793
  2822   011406                     l6791:
  2823   011406  EC48  F0A3         	call	_ENC_Get_Value	;wreg free
  2824                           
  2825                           ; Switch on 2 bytes has been partitioned into a top level switch of size 1, and 1 sub-sw
      +                          itches
  2826                           ; Switch size 1, requested type "simple"
  2827                           ; Number of cases is 1, Range of values is 0 to 0
  2828                           ; switch strategies available:
  2829                           ; Name         Instructions Cycles
  2830                           ; simple_byte            4     3 (average)
  2831                           ;	Chosen strategy is simple_byte
  2832   01140A  0101               	movlb	1	; () banked
  2833   01140C  512B               	movf	(?_ENC_Get_Value+1)& (0+255),w,b
  2834   01140E  0A00               	xorlw	0	; case 0
  2835   011410  B4D8               	btfsc	status,2,c
  2836   011412  EF0D  F08A         	goto	l9097
  2837   011416  EF18  F08A         	goto	l6793
  2838   01141A                     l9097:
  2839                           
  2840                           ; BSR set to: 1
  2841                           ; Switch size 1, requested type "simple"
  2842                           ; Number of cases is 2, Range of values is 0 to 1
  2843                           ; switch strategies available:
  2844                           ; Name         Instructions Cycles
  2845                           ; simple_byte            7     4 (average)
  2846                           ;	Chosen strategy is simple_byte
  2847   01141A  512A               	movf	?_ENC_Get_Value& (0+255),w,b
  2848   01141C  0A00               	xorlw	0	; case 0
  2849   01141E  B4D8               	btfsc	status,2,c
  2850   011420  EFE7  F089         	goto	l6781
  2851   011424  0A01               	xorlw	1	; case 1
  2852   011426  B4D8               	btfsc	status,2,c
  2853   011428  EFF5  F089         	goto	l6785
  2854   01142C  EF18  F08A         	goto	l6793
  2855   011430                     l6793:
  2856                           
  2857                           ;./Init.c: 195:     while (BP_Get_Falling_Edge()==0)
  2858   011430  ECFD  F0A1         	call	_BP_Get_Falling_Edge	;wreg free
  2859   011434  0900               	iorlw	0
  2860   011436  B4D8               	btfsc	status,2,c
  2861   011438  EF20  F08A         	goto	u7301
  2862   01143C  EF22  F08A         	goto	u7300
  2863   011440                     u7301:
  2864   011440  EFBD  F089         	goto	l6773
  2865   011444                     u7300:
  2866   011444                     
  2867                           ;./Init.c: 205:     if (ENC_Get_Value()==0) {BT_Enable(1);}
  2868   011444  EC48  F0A3         	call	_ENC_Get_Value	;wreg free
  2869   011448  0101               	movlb	1	; () banked
  2870   01144A  512A               	movf	?_ENC_Get_Value& (0+255),w,b
  2871   01144C  112B               	iorwf	(?_ENC_Get_Value+1)& (0+255),w,b
  2872   01144E  A4D8               	btfss	status,2,c
  2873   011450  EF2C  F08A         	goto	u7311
  2874   011454  EF2E  F08A         	goto	u7310
  2875   011458                     u7311:
  2876   011458  EF31  F08A         	goto	l6799
  2877   01145C                     u7310:
  2878   01145C                     
  2879                           ; BSR set to: 1
  2880   01145C  0E01               	movlw	1
  2881   01145E  EC01  F0A3         	call	_BT_Enable
  2882   011462                     l6799:
  2883                           
  2884                           ;./Init.c: 206:     ENC_Set_Value(0);
  2885   011462  0E00               	movlw	0
  2886   011464  0101               	movlb	1	; () banked
  2887   011466  6F2B               	movwf	(ENC_Set_Value@val+1)& (0+255),b
  2888   011468  0E00               	movlw	0
  2889   01146A  6F2A               	movwf	ENC_Set_Value@val& (0+255),b
  2890   01146C  EC4D  F0A3         	call	_ENC_Set_Value	;wreg free
  2891   011470                     
  2892                           ;./Init.c: 207:     _delay((unsigned long)((500)*(64000000/4000.0)));
  2893   011470  0E29               	movlw	41
  2894   011472  0101               	movlb	1	; () banked
  2895   011474  6F92               	movwf	(??_Initialisation+1)& (0+255),b
  2896   011476  0E96               	movlw	150
  2897   011478  6F91               	movwf	??_Initialisation& (0+255),b
  2898   01147A  0E7F               	movlw	127
  2899   01147C                     u10947:
  2900   01147C  2EE8               	decfsz	wreg,f,c
  2901   01147E  D7FE               	bra	u10947
  2902   011480  2F91               	decfsz	??_Initialisation& (0+255),f,b
  2903   011482  D7FC               	bra	u10947
  2904   011484  2F92               	decfsz	(??_Initialisation+1)& (0+255),f,b
  2905   011486  D7FA               	bra	u10947
  2906   011488                     
  2907                           ;./Init.c: 208:     LCD_Clear();
  2908   011488  ECD2  F0A2         	call	_LCD_Clear	;wreg free
  2909   01148C  0012               	return		;funcret
  2910   01148E                     __end_of_Initialisation:
  2911                           	callstack 0
  2912                           
  2913 ;; *************** function _LIDAR_Motor_Enable *****************
  2914 ;; Defined at:
  2915 ;;		line 415 in file "./Fonctions.c"
  2916 ;; Parameters:    Size  Location     Type
  2917 ;;  motor_en        1    wreg     unsigned char 
  2918 ;; Auto vars:     Size  Location     Type
  2919 ;;  motor_en        1   42[BANK1 ] unsigned char 
  2920 ;; Return value:  Size  Location     Type
  2921 ;;                  1    wreg      void 
  2922 ;; Registers used:
  2923 ;;		wreg, status,2, cstack
  2924 ;; Tracked objects:
  2925 ;;		On entry : 0/0
  2926 ;;		On exit  : 0/0
  2927 ;;		Unchanged: 0/0
  2928 ;; Data sizes:     COMRAM   BANK0   BANK1   BANK2   BANK3   BANK4   BANK5   BANK6   BANK7   BANK8   BANK9  BANK10  BANK1
      +1  BANK12  BANK13  BANK14
  2929 ;;      Params:         0       0       0       0       0       0       0       0       0       0       0       0       
      +0       0       0       0
  2930 ;;      Locals:         0       0       1       0       0       0       0       0       0       0       0       0       
      +0       0       0       0
  2931 ;;      Temps:          0       0       0       0       0       0       0       0       0       0       0       0       
      +0       0       0       0
  2932 ;;      Totals:         0       0       1       0       0       0       0       0       0       0       0       0       
      +0       0       0       0
  2933 ;;Total ram usage:        1 bytes
  2934 ;; Hardware stack levels used: 1
  2935 ;; Hardware stack levels required when called: 6
  2936 ;; This function calls:
  2937 ;;		Nothing
  2938 ;; This function is called by:
  2939 ;;		_Initialisation
  2940 ;; This function uses a non-reentrant model
  2941 ;;
  2942                           
  2943                           	psect	text2
  2944   014038                     __ptext2:
  2945                           	callstack 0
  2946   014038                     _LIDAR_Motor_Enable:
  2947                           	callstack 23
  2948                           
  2949                           ;incstack = 0
  2950                           ;LIDAR_Motor_Enable@motor_en stored from wreg
  2951   014038  0101               	movlb	1	; () banked
  2952   01403A  6F2A               	movwf	LIDAR_Motor_Enable@motor_en& (0+255),b
  2953   01403C                     
  2954                           ;./Fonctions.c: 415: void LIDAR_Motor_Enable (unsigned char motor_en);./Fonctions.c: 416
      +                          : {;./Fonctions.c: 417:     TX1REG=255; while (!TX1STAbits.TRMT) {__nop();} _delay((unsi
      +                          gned long)((10)*(64000000/4000000.0)));
  2955   01403C  689A               	setf	154,c	;volatile
  2956   01403E  EF22  F0A0         	goto	l747
  2957   014042                     l748:
  2958   014042  0000               	nop	
  2959   014044                     l747:
  2960   014044  A29E               	btfss	158,1,c	;volatile
  2961   014046  EF27  F0A0         	goto	u6441
  2962   01404A  EF29  F0A0         	goto	u6440
  2963   01404E                     u6441:
  2964   01404E  EF21  F0A0         	goto	l748
  2965   014052                     u6440:
  2966   014052  0E35               	movlw	53
  2967   014054                     u10957:
  2968   014054  2EE8               	decfsz	wreg,f,c
  2969   014056  D7FE               	bra	u10957
  2970   014058  0000               	nop	
  2971   01405A                     
  2972                           ;./Fonctions.c: 418:     TX1REG=253; while (!TX1STAbits.TRMT) {__nop();} _delay((unsigne
      +                          d long)((10)*(64000000/4000000.0)));
  2973   01405A  0EFD               	movlw	253
  2974   01405C  6E9A               	movwf	154,c	;volatile
  2975   01405E  EF32  F0A0         	goto	l750
  2976   014062                     l751:
  2977   014062  0000               	nop	
  2978   014064                     l750:
  2979   014064  A29E               	btfss	158,1,c	;volatile
  2980   014066  EF37  F0A0         	goto	u6451
  2981   01406A  EF39  F0A0         	goto	u6450
  2982   01406E                     u6451:
  2983   01406E  EF31  F0A0         	goto	l751
  2984   014072                     u6450:
  2985   014072  0E35               	movlw	53
  2986   014074                     u10967:
  2987   014074  2EE8               	decfsz	wreg,f,c
  2988   014076  D7FE               	bra	u10967
  2989   014078  0000               	nop	
  2990   01407A                     
  2991                           ;./Fonctions.c: 419:     TX1REG=motor_en; while (!TX1STAbits.TRMT) {__nop();} _delay((un
      +                          signed long)((10)*(64000000/4000000.0)));
  2992   01407A  C12A  FF9A         	movff	LIDAR_Motor_Enable@motor_en,3994	;volatile
  2993   01407E  EF42  F0A0         	goto	l753
  2994   014082                     l754:
  2995   014082  0000               	nop	
  2996   014084                     l753:
  2997   014084  A29E               	btfss	158,1,c	;volatile
  2998   014086  EF47  F0A0         	goto	u6461
  2999   01408A  EF49  F0A0         	goto	u6460
  3000   01408E                     u6461:
  3001   01408E  EF41  F0A0         	goto	l754
  3002   014092                     u6460:
  3003   014092  0E35               	movlw	53
  3004   014094                     u10977:
  3005   014094  2EE8               	decfsz	wreg,f,c
  3006   014096  D7FE               	bra	u10977
  3007   014098  0000               	nop	
  3008   01409A                     
  3009                           ;./Fonctions.c: 420:     TX1REG=255; while (!TX1STAbits.TRMT) {__nop();} _delay((unsigne
      +                          d long)((10)*(64000000/4000000.0)));
  3010   01409A  689A               	setf	154,c	;volatile
  3011   01409C  EF51  F0A0         	goto	l756
  3012   0140A0                     l757:
  3013   0140A0  0000               	nop	
  3014   0140A2                     l756:
  3015   0140A2  A29E               	btfss	158,1,c	;volatile
  3016   0140A4  EF56  F0A0         	goto	u6471
  3017   0140A8  EF58  F0A0         	goto	u6470
  3018   0140AC                     u6471:
  3019   0140AC  EF50  F0A0         	goto	l757
  3020   0140B0                     u6470:
  3021   0140B0  0E35               	movlw	53
  3022   0140B2                     u10987:
  3023   0140B2  2EE8               	decfsz	wreg,f,c
  3024   0140B4  D7FE               	bra	u10987
  3025   0140B6  0000               	nop	
  3026   0140B8                     
  3027                           ;./Fonctions.c: 421:     TX1REG=253; while (!TX1STAbits.TRMT) {__nop();} _delay((unsigne
      +                          d long)((10)*(64000000/4000000.0)));
  3028   0140B8  0EFD               	movlw	253
  3029   0140BA  6E9A               	movwf	154,c	;volatile
  3030   0140BC  EF61  F0A0         	goto	l759
  3031   0140C0                     l760:
  3032   0140C0  0000               	nop	
  3033   0140C2                     l759:
  3034   0140C2  A29E               	btfss	158,1,c	;volatile
  3035   0140C4  EF66  F0A0         	goto	u6481
  3036   0140C8  EF68  F0A0         	goto	u6480
  3037   0140CC                     u6481:
  3038   0140CC  EF60  F0A0         	goto	l760
  3039   0140D0                     u6480:
  3040   0140D0  0E35               	movlw	53
  3041   0140D2                     u10997:
  3042   0140D2  2EE8               	decfsz	wreg,f,c
  3043   0140D4  D7FE               	bra	u10997
  3044   0140D6  0000               	nop	
  3045   0140D8                     
  3046                           ;./Fonctions.c: 422:     TX1REG=motor_en; while (!TX1STAbits.TRMT) {__nop();} _delay((un
      +                          signed long)((10)*(64000000/4000000.0)));
  3047   0140D8  C12A  FF9A         	movff	LIDAR_Motor_Enable@motor_en,3994	;volatile
  3048   0140DC  EF71  F0A0         	goto	l762
  3049   0140E0                     l763:
  3050   0140E0  0000               	nop	
  3051   0140E2                     l762:
  3052   0140E2  A29E               	btfss	158,1,c	;volatile
  3053   0140E4  EF76  F0A0         	goto	u6491
  3054   0140E8  EF78  F0A0         	goto	u6490
  3055   0140EC                     u6491:
  3056   0140EC  EF70  F0A0         	goto	l763
  3057   0140F0                     u6490:
  3058   0140F0  0E35               	movlw	53
  3059   0140F2                     u11007:
  3060   0140F2  2EE8               	decfsz	wreg,f,c
  3061   0140F4  D7FE               	bra	u11007
  3062   0140F6  0000               	nop	
  3063   0140F8  0012               	return		;funcret
  3064   0140FA                     __end_of_LIDAR_Motor_Enable:
  3065                           	callstack 0
  3066                           
  3067 ;; *************** function _LCD_Retro *****************
  3068 ;; Defined at:
  3069 ;;		line 400 in file "./Fonctions.c"
  3070 ;; Parameters:    Size  Location     Type
  3071 ;;  retro           1    wreg     unsigned char 
  3072 ;; Auto vars:     Size  Location     Type
  3073 ;;  retro           1   42[BANK1 ] unsigned char 
  3074 ;; Return value:  Size  Location     Type
  3075 ;;                  1    wreg      void 
  3076 ;; Registers used:
  3077 ;;		wreg
  3078 ;; Tracked objects:
  3079 ;;		On entry : 0/0
  3080 ;;		On exit  : 0/0
  3081 ;;		Unchanged: 0/0
  3082 ;; Data sizes:     COMRAM   BANK0   BANK1   BANK2   BANK3   BANK4   BANK5   BANK6   BANK7   BANK8   BANK9  BANK10  BANK1
      +1  BANK12  BANK13  BANK14
  3083 ;;      Params:         0       0       0       0       0       0       0       0       0       0       0       0       
      +0       0       0       0
  3084 ;;      Locals:         0       0       1       0       0       0       0       0       0       0       0       0       
      +0       0       0       0
  3085 ;;      Temps:          0       0       0       0       0       0       0       0       0       0       0       0       
      +0       0       0       0
  3086 ;;      Totals:         0       0       1       0       0       0       0       0       0       0       0       0       
      +0       0       0       0
  3087 ;;Total ram usage:        1 bytes
  3088 ;; Hardware stack levels used: 1
  3089 ;; Hardware stack levels required when called: 6
  3090 ;; This function calls:
  3091 ;;		Nothing
  3092 ;; This function is called by:
  3093 ;;		_Initialisation
  3094 ;; This function uses a non-reentrant model
  3095 ;;
  3096                           
  3097                           	psect	text3
  3098   01464E                     __ptext3:
  3099                           	callstack 0
  3100   01464E                     _LCD_Retro:
  3101                           	callstack 23
  3102                           
  3103                           ;incstack = 0
  3104                           ;LCD_Retro@retro stored from wreg
  3105   01464E  0101               	movlb	1	; () banked
  3106   014650  6F2A               	movwf	LCD_Retro@retro& (0+255),b
  3107   014652  0101               	movlb	1	; () banked
  3108   014654  B12A               	btfsc	LCD_Retro@retro& (0+255),0,b
  3109   014656  D002               	bra	u6435
  3110   014658  9A86               	bcf	134,5,c	;volatile
  3111   01465A  D001               	bra	u6436
  3112   01465C                     u6435:
  3113   01465C  8A86               	bsf	134,5,c	;volatile
  3114   01465E                     u6436:
  3115   01465E  0012               	return		;funcret
  3116   014660                     __end_of_LCD_Retro:
  3117                           	callstack 0
  3118                           
  3119 ;; *************** function _LCD_Init *****************
  3120 ;; Defined at:
  3121 ;;		line 44 in file "./LCD.c"
  3122 ;; Parameters:    Size  Location     Type
  3123 ;;		None
  3124 ;; Auto vars:     Size  Location     Type
  3125 ;;		None
  3126 ;; Return value:  Size  Location     Type
  3127 ;;                  1    wreg      void 
  3128 ;; Registers used:
  3129 ;;		wreg, status,2, status,0, cstack
  3130 ;; Tracked objects:
  3131 ;;		On entry : 0/0
  3132 ;;		On exit  : 0/0
  3133 ;;		Unchanged: 0/0
  3134 ;; Data sizes:     COMRAM   BANK0   BANK1   BANK2   BANK3   BANK4   BANK5   BANK6   BANK7   BANK8   BANK9  BANK10  BANK1
      +1  BANK12  BANK13  BANK14
  3135 ;;      Params:         0       0       0       0       0       0       0       0       0       0       0       0       
      +0       0       0       0
  3136 ;;      Locals:         0       0       0       0       0       0       0       0       0       0       0       0       
      +0       0       0       0
  3137 ;;      Temps:          0       0       2       0       0       0       0       0       0       0       0       0       
      +0       0       0       0
  3138 ;;      Totals:         0       0       2       0       0       0       0       0       0       0       0       0       
      +0       0       0       0
  3139 ;;Total ram usage:        2 bytes
  3140 ;; Hardware stack levels used: 1
  3141 ;; Hardware stack levels required when called: 9
  3142 ;; This function calls:
  3143 ;;		_LCD_Clear
  3144 ;;		_LCD_Write
  3145 ;;		_lcdNibble
  3146 ;; This function is called by:
  3147 ;;		_Initialisation
  3148 ;; This function uses a non-reentrant model
  3149 ;;
  3150                           
  3151                           	psect	text4
  3152   013E7E                     __ptext4:
  3153                           	callstack 0
  3154   013E7E                     _LCD_Init:
  3155                           	callstack 20
  3156   013E7E                     
  3157                           ;./LCD.c: 45:     LATBbits.LB5 = 0;
  3158   013E7E  9A84               	bcf	132,5,c	;volatile
  3159                           
  3160                           ;./LCD.c: 46:     LATBbits.LB4 = 0;
  3161   013E80  9884               	bcf	132,4,c	;volatile
  3162   013E82                     
  3163                           ;./LCD.c: 48:     _delay((unsigned long)((40)*(64000000/4000.0)));
  3164   013E82  0E04               	movlw	4
  3165   013E84  0101               	movlb	1	; () banked
  3166   013E86  6F30               	movwf	(??_LCD_Init+1)& (0+255),b
  3167   013E88  0E40               	movlw	64
  3168   013E8A  6F2F               	movwf	??_LCD_Init& (0+255),b
  3169   013E8C  0E26               	movlw	38
  3170   013E8E                     u11017:
  3171   013E8E  2EE8               	decfsz	wreg,f,c
  3172   013E90  D7FE               	bra	u11017
  3173   013E92  2F2F               	decfsz	??_LCD_Init& (0+255),f,b
  3174   013E94  D7FC               	bra	u11017
  3175   013E96  2F30               	decfsz	(??_LCD_Init+1)& (0+255),f,b
  3176   013E98  D7FA               	bra	u11017
  3177   013E9A  0000               	nop	
  3178   013E9C                     
  3179                           ;./LCD.c: 52:     lcdNibble(0b0011);
  3180   013E9C  0E03               	movlw	3
  3181   013E9E  EC7D  F0A0         	call	_lcdNibble
  3182   013EA2                     
  3183                           ;./LCD.c: 53:     _delay((unsigned long)((5)*(64000000/4000.0)));
  3184   013EA2  0E68               	movlw	104
  3185   013EA4  0101               	movlb	1	; () banked
  3186   013EA6  6F2F               	movwf	??_LCD_Init& (0+255),b
  3187   013EA8  0EE4               	movlw	228
  3188   013EAA                     u11027:
  3189   013EAA  2EE8               	decfsz	wreg,f,c
  3190   013EAC  D7FE               	bra	u11027
  3191   013EAE  2F2F               	decfsz	??_LCD_Init& (0+255),f,b
  3192   013EB0  D7FC               	bra	u11027
  3193   013EB2  0000               	nop	
  3194                           
  3195                           ;./LCD.c: 54:     lcdNibble(0b0011);
  3196   013EB4  0E03               	movlw	3
  3197   013EB6  EC7D  F0A0         	call	_lcdNibble
  3198   013EBA                     
  3199                           ;./LCD.c: 55:     _delay((unsigned long)((5)*(64000000/4000.0)));
  3200   013EBA  0E68               	movlw	104
  3201   013EBC  0101               	movlb	1	; () banked
  3202   013EBE  6F2F               	movwf	??_LCD_Init& (0+255),b
  3203   013EC0  0EE4               	movlw	228
  3204   013EC2                     u11037:
  3205   013EC2  2EE8               	decfsz	wreg,f,c
  3206   013EC4  D7FE               	bra	u11037
  3207   013EC6  2F2F               	decfsz	??_LCD_Init& (0+255),f,b
  3208   013EC8  D7FC               	bra	u11037
  3209   013ECA  0000               	nop	
  3210   013ECC                     
  3211                           ;./LCD.c: 56:     lcdNibble(0b0011);
  3212   013ECC  0E03               	movlw	3
  3213   013ECE  EC7D  F0A0         	call	_lcdNibble
  3214                           
  3215                           ;./LCD.c: 57:     _delay((unsigned long)((5)*(64000000/4000.0)));
  3216   013ED2  0E68               	movlw	104
  3217   013ED4  0101               	movlb	1	; () banked
  3218   013ED6  6F2F               	movwf	??_LCD_Init& (0+255),b
  3219   013ED8  0EE4               	movlw	228
  3220   013EDA                     u11047:
  3221   013EDA  2EE8               	decfsz	wreg,f,c
  3222   013EDC  D7FE               	bra	u11047
  3223   013EDE  2F2F               	decfsz	??_LCD_Init& (0+255),f,b
  3224   013EE0  D7FC               	bra	u11047
  3225   013EE2  0000               	nop	
  3226   013EE4                     
  3227                           ;./LCD.c: 58:     lcdNibble(0b0010);
  3228   013EE4  0E02               	movlw	2
  3229   013EE6  EC7D  F0A0         	call	_lcdNibble
  3230   013EEA                     
  3231                           ;./LCD.c: 59:     _delay((unsigned long)((5)*(64000000/4000.0)));
  3232   013EEA  0E68               	movlw	104
  3233   013EEC  0101               	movlb	1	; () banked
  3234   013EEE  6F2F               	movwf	??_LCD_Init& (0+255),b
  3235   013EF0  0EE4               	movlw	228
  3236   013EF2                     u11057:
  3237   013EF2  2EE8               	decfsz	wreg,f,c
  3238   013EF4  D7FE               	bra	u11057
  3239   013EF6  2F2F               	decfsz	??_LCD_Init& (0+255),f,b
  3240   013EF8  D7FC               	bra	u11057
  3241   013EFA  0000               	nop	
  3242                           
  3243                           ;./LCD.c: 71:     LCD_Write(((0b0010 << 4) | (1 << 3)), COMMAND);
  3244   013EFC  0E00               	movlw	0
  3245   013EFE  0101               	movlb	1	; () banked
  3246   013F00  6F2C               	movwf	LCD_Write@type& (0+255),b
  3247   013F02  0E28               	movlw	40
  3248   013F04  ECDC  F0A1         	call	_LCD_Write
  3249   013F08                     
  3250                           ;./LCD.c: 72:     _delay((unsigned long)((5)*(64000000/4000.0)));
  3251   013F08  0E68               	movlw	104
  3252   013F0A  0101               	movlb	1	; () banked
  3253   013F0C  6F2F               	movwf	??_LCD_Init& (0+255),b
  3254   013F0E  0EE4               	movlw	228
  3255   013F10                     u11067:
  3256   013F10  2EE8               	decfsz	wreg,f,c
  3257   013F12  D7FE               	bra	u11067
  3258   013F14  2F2F               	decfsz	??_LCD_Init& (0+255),f,b
  3259   013F16  D7FC               	bra	u11067
  3260   013F18  0000               	nop	
  3261   013F1A                     
  3262                           ;./LCD.c: 73:     LCD_Write(((0b1100) | (0 << 1) | (0 << 0)), COMMAND);
  3263   013F1A  0E00               	movlw	0
  3264   013F1C  0101               	movlb	1	; () banked
  3265   013F1E  6F2C               	movwf	LCD_Write@type& (0+255),b
  3266   013F20  0E0C               	movlw	12
  3267   013F22  ECDC  F0A1         	call	_LCD_Write
  3268                           
  3269                           ;./LCD.c: 74:     _delay((unsigned long)((8)*(64000000/4000.0)));
  3270   013F26  0EA7               	movlw	167
  3271   013F28  0101               	movlb	1	; () banked
  3272   013F2A  6F2F               	movwf	??_LCD_Init& (0+255),b
  3273   013F2C  0E3A               	movlw	58
  3274   013F2E                     u11077:
  3275   013F2E  2EE8               	decfsz	wreg,f,c
  3276   013F30  D7FE               	bra	u11077
  3277   013F32  2F2F               	decfsz	??_LCD_Init& (0+255),f,b
  3278   013F34  D7FC               	bra	u11077
  3279   013F36  0000               	nop	
  3280   013F38                     
  3281                           ;./LCD.c: 75:     LCD_Clear();
  3282   013F38  ECD2  F0A2         	call	_LCD_Clear	;wreg free
  3283   013F3C                     
  3284                           ;./LCD.c: 76:     _delay((unsigned long)((5)*(64000000/4000.0)));
  3285   013F3C  0E68               	movlw	104
  3286   013F3E  0101               	movlb	1	; () banked
  3287   013F40  6F2F               	movwf	??_LCD_Init& (0+255),b
  3288   013F42  0EE4               	movlw	228
  3289   013F44                     u11087:
  3290   013F44  2EE8               	decfsz	wreg,f,c
  3291   013F46  D7FE               	bra	u11087
  3292   013F48  2F2F               	decfsz	??_LCD_Init& (0+255),f,b
  3293   013F4A  D7FC               	bra	u11087
  3294   013F4C  0000               	nop	
  3295                           
  3296                           ;./LCD.c: 77:     LCD_Write(0x06, COMMAND);
  3297   013F4E  0E00               	movlw	0
  3298   013F50  0101               	movlb	1	; () banked
  3299   013F52  6F2C               	movwf	LCD_Write@type& (0+255),b
  3300   013F54  0E06               	movlw	6
  3301   013F56  ECDC  F0A1         	call	_LCD_Write
  3302   013F5A                     
  3303                           ;./LCD.c: 78:     _delay((unsigned long)((5)*(64000000/4000.0)));
  3304   013F5A  0E68               	movlw	104
  3305   013F5C  0101               	movlb	1	; () banked
  3306   013F5E  6F2F               	movwf	??_LCD_Init& (0+255),b
  3307   013F60  0EE4               	movlw	228
  3308   013F62                     u11097:
  3309   013F62  2EE8               	decfsz	wreg,f,c
  3310   013F64  D7FE               	bra	u11097
  3311   013F66  2F2F               	decfsz	??_LCD_Init& (0+255),f,b
  3312   013F68  D7FC               	bra	u11097
  3313   013F6A  0000               	nop	
  3314   013F6C                     
  3315                           ;./LCD.c: 79:     LCD_Clear();
  3316   013F6C  ECD2  F0A2         	call	_LCD_Clear	;wreg free
  3317   013F70                     
  3318                           ;./LCD.c: 81:     LATBbits.LB5 = 1;
  3319   013F70  8A84               	bsf	132,5,c	;volatile
  3320   013F72  0012               	return		;funcret
  3321   013F74                     __end_of_LCD_Init:
  3322                           	callstack 0
  3323                           
  3324 ;; *************** function _ENC_Get_Value *****************
  3325 ;; Defined at:
  3326 ;;		line 4 in file "./Fonctions.c"
  3327 ;; Parameters:    Size  Location     Type
  3328 ;;		None
  3329 ;; Auto vars:     Size  Location     Type
  3330 ;;		None
  3331 ;; Return value:  Size  Location     Type
  3332 ;;                  2   42[BANK1 ] unsigned short 
  3333 ;; Registers used:
  3334 ;;		None
  3335 ;; Tracked objects:
  3336 ;;		On entry : 0/0
  3337 ;;		On exit  : 0/0
  3338 ;;		Unchanged: 0/0
  3339 ;; Data sizes:     COMRAM   BANK0   BANK1   BANK2   BANK3   BANK4   BANK5   BANK6   BANK7   BANK8   BANK9  BANK10  BANK1
      +1  BANK12  BANK13  BANK14
  3340 ;;      Params:         0       0       2       0       0       0       0       0       0       0       0       0       
      +0       0       0       0
  3341 ;;      Locals:         0       0       0       0       0       0       0       0       0       0       0       0       
      +0       0       0       0
  3342 ;;      Temps:          0       0       0       0       0       0       0       0       0       0       0       0       
      +0       0       0       0
  3343 ;;      Totals:         0       0       2       0       0       0       0       0       0       0       0       0       
      +0       0       0       0
  3344 ;;Total ram usage:        2 bytes
  3345 ;; Hardware stack levels used: 1
  3346 ;; Hardware stack levels required when called: 6
  3347 ;; This function calls:
  3348 ;;		Nothing
  3349 ;; This function is called by:
  3350 ;;		_Initialisation
  3351 ;;		_Mon_Prog
  3352 ;; This function uses a non-reentrant model
  3353 ;;
  3354                           
  3355                           	psect	text5
  3356   014690                     __ptext5:
  3357                           	callstack 0
  3358   014690                     _ENC_Get_Value:
  3359                           	callstack 23
  3360   014690  C1B3  F12A         	movff	_consigne,?_ENC_Get_Value
  3361   014694  C1B4  F12B         	movff	_consigne+1,?_ENC_Get_Value+1
  3362   014698  0012               	return		;funcret
  3363   01469A                     __end_of_ENC_Get_Value:
  3364                           	callstack 0
  3365                           
  3366 ;; *************** function _Compass_Init *****************
  3367 ;; Defined at:
  3368 ;;		line 102 in file "./Fonctions.c"
  3369 ;; Parameters:    Size  Location     Type
  3370 ;;		None
  3371 ;; Auto vars:     Size  Location     Type
  3372 ;;		None
  3373 ;; Return value:  Size  Location     Type
  3374 ;;                  1    wreg      void 
  3375 ;; Registers used:
  3376 ;;		wreg, status,2, status,0, tblptrl, tblptrh, tblptru, cstack
  3377 ;; Tracked objects:
  3378 ;;		On entry : 0/0
  3379 ;;		On exit  : 0/0
  3380 ;;		Unchanged: 0/0
  3381 ;; Data sizes:     COMRAM   BANK0   BANK1   BANK2   BANK3   BANK4   BANK5   BANK6   BANK7   BANK8   BANK9  BANK10  BANK1
      +1  BANK12  BANK13  BANK14
  3382 ;;      Params:         0       0       0       0       0       0       0       0       0       0       0       0       
      +0       0       0       0
  3383 ;;      Locals:         0       0       0       0       0       0       0       0       0       0       0       0       
      +0       0       0       0
  3384 ;;      Temps:          0       0       2       0       0       0       0       0       0       0       0       0       
      +0       0       0       0
  3385 ;;      Totals:         0       0       2       0       0       0       0       0       0       0       0       0       
      +0       0       0       0
  3386 ;;Total ram usage:        2 bytes
  3387 ;; Hardware stack levels used: 1
  3388 ;; Hardware stack levels required when called: 9
  3389 ;; This function calls:
  3390 ;;		_LCD_Clear
  3391 ;;		_LCD_Goto
  3392 ;;		_LCD_Print
  3393 ;;		_SSP2_Read
  3394 ;;		_SSP2_Write
  3395 ;; This function is called by:
  3396 ;;		_Initialisation
  3397 ;; This function uses a non-reentrant model
  3398 ;;
  3399                           
  3400                           	psect	text6
  3401   0137E6                     __ptext6:
  3402                           	callstack 0
  3403   0137E6                     _Compass_Init:
  3404                           	callstack 20
  3405   0137E6                     
  3406                           ;./Fonctions.c: 104:     LCD_Goto(0,0); LCD_Print(" INITIALISATION ");
  3407   0137E6  0E00               	movlw	0
  3408   0137E8  0101               	movlb	1	; () banked
  3409   0137EA  6F2E               	movwf	LCD_Goto@colonne& (0+255),b
  3410   0137EC  0E00               	movlw	0
  3411   0137EE  EC56  F0A2         	call	_LCD_Goto
  3412   0137F2  0E51               	movlw	low STR_1
  3413   0137F4  0101               	movlb	1	; () banked
  3414   0137F6  6F2E               	movwf	LCD_Print@t& (0+255),b
  3415   0137F8  0EFF               	movlw	high STR_1
  3416   0137FA  6F2F               	movwf	(LCD_Print@t+1)& (0+255),b
  3417   0137FC  ECB9  F0A1         	call	_LCD_Print	;wreg free
  3418   013800                     
  3419                           ;./Fonctions.c: 105:     LCD_Goto(1,0); LCD_Print("      I2C       ");
  3420   013800  0E00               	movlw	0
  3421   013802  0101               	movlb	1	; () banked
  3422   013804  6F2E               	movwf	LCD_Goto@colonne& (0+255),b
  3423   013806  0E01               	movlw	1
  3424   013808  EC56  F0A2         	call	_LCD_Goto
  3425   01380C  0EA7               	movlw	low STR_2
  3426   01380E  0101               	movlb	1	; () banked
  3427   013810  6F2E               	movwf	LCD_Print@t& (0+255),b
  3428   013812  0EFE               	movlw	high STR_2
  3429   013814  6F2F               	movwf	(LCD_Print@t+1)& (0+255),b
  3430   013816  ECB9  F0A1         	call	_LCD_Print	;wreg free
  3431   01381A                     
  3432                           ;./Fonctions.c: 106:     _delay((unsigned long)((500)*(64000000/4000.0)));
  3433   01381A  0E29               	movlw	41
  3434   01381C  0101               	movlb	1	; () banked
  3435   01381E  6F31               	movwf	(??_Compass_Init+1)& (0+255),b
  3436   013820  0E96               	movlw	150
  3437   013822  6F30               	movwf	??_Compass_Init& (0+255),b
  3438   013824  0E7F               	movlw	127
  3439   013826                     u11107:
  3440   013826  2EE8               	decfsz	wreg,f,c
  3441   013828  D7FE               	bra	u11107
  3442   01382A  2F30               	decfsz	??_Compass_Init& (0+255),f,b
  3443   01382C  D7FC               	bra	u11107
  3444   01382E  2F31               	decfsz	(??_Compass_Init+1)& (0+255),f,b
  3445   013830  D7FA               	bra	u11107
  3446   013832                     
  3447                           ;./Fonctions.c: 107:     LCD_Clear();
  3448   013832  ECD2  F0A2         	call	_LCD_Clear	;wreg free
  3449   013836                     
  3450                           ;./Fonctions.c: 119:     SSP2_Write(0x69,0x06,0x01);
  3451   013836  0E06               	movlw	6
  3452   013838  0101               	movlb	1	; () banked
  3453   01383A  6F2A               	movwf	SSP2_Write@SSP2_REG& (0+255),b
  3454   01383C  0E01               	movlw	1
  3455   01383E  6F2B               	movwf	SSP2_Write@SSP2_DATA& (0+255),b
  3456   013840  0E69               	movlw	105
  3457   013842  ECB0  F0A2         	call	_SSP2_Write
  3458   013846                     
  3459                           ;./Fonctions.c: 120:     _delay((unsigned long)((1)*(64000000/4000.0)));
  3460   013846  0E15               	movlw	21
  3461   013848  0101               	movlb	1	; () banked
  3462   01384A  6F30               	movwf	??_Compass_Init& (0+255),b
  3463   01384C  0EC6               	movlw	198
  3464   01384E                     u11117:
  3465   01384E  2EE8               	decfsz	wreg,f,c
  3466   013850  D7FE               	bra	u11117
  3467   013852  2F30               	decfsz	??_Compass_Init& (0+255),f,b
  3468   013854  D7FC               	bra	u11117
  3469   013856  0000               	nop	
  3470   013858                     
  3471                           ;./Fonctions.c: 132:     SSP2_Write(0x69,0x0F,0x02);
  3472   013858  0E0F               	movlw	15
  3473   01385A  0101               	movlb	1	; () banked
  3474   01385C  6F2A               	movwf	SSP2_Write@SSP2_REG& (0+255),b
  3475   01385E  0E02               	movlw	2
  3476   013860  6F2B               	movwf	SSP2_Write@SSP2_DATA& (0+255),b
  3477   013862  0E69               	movlw	105
  3478   013864  ECB0  F0A2         	call	_SSP2_Write
  3479   013868                     
  3480                           ;./Fonctions.c: 133:     _delay((unsigned long)((1)*(64000000/4000.0)));
  3481   013868  0E15               	movlw	21
  3482   01386A  0101               	movlb	1	; () banked
  3483   01386C  6F30               	movwf	??_Compass_Init& (0+255),b
  3484   01386E  0EC6               	movlw	198
  3485   013870                     u11127:
  3486   013870  2EE8               	decfsz	wreg,f,c
  3487   013872  D7FE               	bra	u11127
  3488   013874  2F30               	decfsz	??_Compass_Init& (0+255),f,b
  3489   013876  D7FC               	bra	u11127
  3490   013878  0000               	nop	
  3491   01387A                     
  3492                           ;./Fonctions.c: 140:     SSP2_Read(0x0C,0x01);
  3493   01387A  0E01               	movlw	1
  3494   01387C  0101               	movlb	1	; () banked
  3495   01387E  6F2A               	movwf	SSP2_Read@SSP2_REG& (0+255),b
  3496   013880  0E0C               	movlw	12
  3497   013882  ECF2  F0A2         	call	_SSP2_Read
  3498   013886                     
  3499                           ;./Fonctions.c: 143:     _delay((unsigned long)((1)*(64000000/4000.0)));
  3500   013886  0E15               	movlw	21
  3501   013888  0101               	movlb	1	; () banked
  3502   01388A  6F30               	movwf	??_Compass_Init& (0+255),b
  3503   01388C  0EC6               	movlw	198
  3504   01388E                     u11137:
  3505   01388E  2EE8               	decfsz	wreg,f,c
  3506   013890  D7FE               	bra	u11137
  3507   013892  2F30               	decfsz	??_Compass_Init& (0+255),f,b
  3508   013894  D7FC               	bra	u11137
  3509   013896  0000               	nop	
  3510   013898                     
  3511                           ;./Fonctions.c: 145:     if (SSP2_DATA_ISR==9) {LCD_Goto(0,0); LCD_Print(" INITIALISATIO
      +                          N "); LCD_Goto(1,0); LCD_Print("    I2C  OK     "); _delay((unsigned long)((500)*(640000
      +                          00/4000.0)));}
  3512   013898  0E09               	movlw	9
  3513   01389A  0101               	movlb	1	; () banked
  3514   01389C  19C1               	xorwf	_SSP2_DATA_ISR& (0+255),w,b
  3515   01389E  A4D8               	btfss	status,2,c
  3516   0138A0  EF54  F09C         	goto	u6351
  3517   0138A4  EF56  F09C         	goto	u6350
  3518   0138A8                     u6351:
  3519   0138A8  EF7D  F09C         	goto	l6011
  3520   0138AC                     u6350:
  3521   0138AC                     
  3522                           ; BSR set to: 1
  3523   0138AC  0E00               	movlw	0
  3524   0138AE  6F2E               	movwf	LCD_Goto@colonne& (0+255),b
  3525   0138B0  0E00               	movlw	0
  3526   0138B2  EC56  F0A2         	call	_LCD_Goto
  3527   0138B6  0E51               	movlw	low STR_1
  3528   0138B8  0101               	movlb	1	; () banked
  3529   0138BA  6F2E               	movwf	LCD_Print@t& (0+255),b
  3530   0138BC  0EFF               	movlw	high STR_1
  3531   0138BE  6F2F               	movwf	(LCD_Print@t+1)& (0+255),b
  3532   0138C0  ECB9  F0A1         	call	_LCD_Print	;wreg free
  3533   0138C4  0E00               	movlw	0
  3534   0138C6  0101               	movlb	1	; () banked
  3535   0138C8  6F2E               	movwf	LCD_Goto@colonne& (0+255),b
  3536   0138CA  0E01               	movlw	1
  3537   0138CC  EC56  F0A2         	call	_LCD_Goto
  3538   0138D0  0EC9               	movlw	low STR_4
  3539   0138D2  0101               	movlb	1	; () banked
  3540   0138D4  6F2E               	movwf	LCD_Print@t& (0+255),b
  3541   0138D6  0EFE               	movlw	high STR_4
  3542   0138D8  6F2F               	movwf	(LCD_Print@t+1)& (0+255),b
  3543   0138DA  ECB9  F0A1         	call	_LCD_Print	;wreg free
  3544   0138DE  0E29               	movlw	41
  3545   0138E0  0101               	movlb	1	; () banked
  3546   0138E2  6F31               	movwf	(??_Compass_Init+1)& (0+255),b
  3547   0138E4  0E96               	movlw	150
  3548   0138E6  6F30               	movwf	??_Compass_Init& (0+255),b
  3549   0138E8  0E7F               	movlw	127
  3550   0138EA                     u11147:
  3551   0138EA  2EE8               	decfsz	wreg,f,c
  3552   0138EC  D7FE               	bra	u11147
  3553   0138EE  2F30               	decfsz	??_Compass_Init& (0+255),f,b
  3554   0138F0  D7FC               	bra	u11147
  3555   0138F2  2F31               	decfsz	(??_Compass_Init+1)& (0+255),f,b
  3556   0138F4  D7FA               	bra	u11147
  3557   0138F6  EF99  F09C         	goto	l6019
  3558   0138FA                     l6011:
  3559                           
  3560                           ; BSR set to: 1
  3561   0138FA  0E00               	movlw	0
  3562   0138FC  6F2E               	movwf	LCD_Goto@colonne& (0+255),b
  3563   0138FE  0E00               	movlw	0
  3564   013900  EC56  F0A2         	call	_LCD_Goto
  3565   013904  0EA6               	movlw	low STR_5
  3566   013906  0101               	movlb	1	; () banked
  3567   013908  6F2E               	movwf	LCD_Print@t& (0+255),b
  3568   01390A  0EFF               	movlw	high STR_5
  3569   01390C  6F2F               	movwf	(LCD_Print@t+1)& (0+255),b
  3570   01390E  ECB9  F0A1         	call	_LCD_Print	;wreg free
  3571   013912  0E00               	movlw	0
  3572   013914  0101               	movlb	1	; () banked
  3573   013916  6F2E               	movwf	LCD_Goto@colonne& (0+255),b
  3574   013918  0E01               	movlw	1
  3575   01391A  EC56  F0A2         	call	_LCD_Goto
  3576   01391E  0E40               	movlw	low STR_6
  3577   013920  0101               	movlb	1	; () banked
  3578   013922  6F2E               	movwf	LCD_Print@t& (0+255),b
  3579   013924  0EFF               	movlw	high STR_6
  3580   013926  6F2F               	movwf	(LCD_Print@t+1)& (0+255),b
  3581   013928  ECB9  F0A1         	call	_LCD_Print	;wreg free
  3582   01392C                     l6017:
  3583   01392C  0000               	nop	
  3584   01392E  EF96  F09C         	goto	l6017
  3585   013932                     l6019:
  3586                           
  3587                           ;./Fonctions.c: 148:     SSP2_Write(0x0C,0x0F,0x00);
  3588   013932  0E0F               	movlw	15
  3589   013934  0101               	movlb	1	; () banked
  3590   013936  6F2A               	movwf	SSP2_Write@SSP2_REG& (0+255),b
  3591   013938  0E00               	movlw	0
  3592   01393A  6F2B               	movwf	SSP2_Write@SSP2_DATA& (0+255),b
  3593   01393C  0E0C               	movlw	12
  3594   01393E  ECB0  F0A2         	call	_SSP2_Write
  3595   013942                     
  3596                           ;./Fonctions.c: 149:     _delay((unsigned long)((1)*(64000000/4000.0)));
  3597   013942  0E15               	movlw	21
  3598   013944  0101               	movlb	1	; () banked
  3599   013946  6F30               	movwf	??_Compass_Init& (0+255),b
  3600   013948  0EC6               	movlw	198
  3601   01394A                     u11157:
  3602   01394A  2EE8               	decfsz	wreg,f,c
  3603   01394C  D7FE               	bra	u11157
  3604   01394E  2F30               	decfsz	??_Compass_Init& (0+255),f,b
  3605   013950  D7FC               	bra	u11157
  3606   013952  0000               	nop	
  3607   013954  0012               	return		;funcret
  3608   013956                     __end_of_Compass_Init:
  3609                           	callstack 0
  3610                           
  3611 ;; *************** function _LCD_Clear *****************
  3612 ;; Defined at:
  3613 ;;		line 103 in file "./LCD.c"
  3614 ;; Parameters:    Size  Location     Type
  3615 ;;		None
  3616 ;; Auto vars:     Size  Location     Type
  3617 ;;		None
  3618 ;; Return value:  Size  Location     Type
  3619 ;;                  1    wreg      void 
  3620 ;; Registers used:
  3621 ;;		wreg, status,2, status,0, cstack
  3622 ;; Tracked objects:
  3623 ;;		On entry : 0/0
  3624 ;;		On exit  : 0/0
  3625 ;;		Unchanged: 0/0
  3626 ;; Data sizes:     COMRAM   BANK0   BANK1   BANK2   BANK3   BANK4   BANK5   BANK6   BANK7   BANK8   BANK9  BANK10  BANK1
      +1  BANK12  BANK13  BANK14
  3627 ;;      Params:         0       0       0       0       0       0       0       0       0       0       0       0       
      +0       0       0       0
  3628 ;;      Locals:         0       0       0       0       0       0       0       0       0       0       0       0       
      +0       0       0       0
  3629 ;;      Temps:          0       0       1       0       0       0       0       0       0       0       0       0       
      +0       0       0       0
  3630 ;;      Totals:         0       0       1       0       0       0       0       0       0       0       0       0       
      +0       0       0       0
  3631 ;;Total ram usage:        1 bytes
  3632 ;; Hardware stack levels used: 1
  3633 ;; Hardware stack levels required when called: 8
  3634 ;; This function calls:
  3635 ;;		_LCD_Write
  3636 ;; This function is called by:
  3637 ;;		_LCD_Init
  3638 ;;		_Compass_Init
  3639 ;;		_Initialisation
  3640 ;;		_Mon_Prog
  3641 ;; This function uses a non-reentrant model
  3642 ;;
  3643                           
  3644                           	psect	text7
  3645   0145A4                     __ptext7:
  3646                           	callstack 0
  3647   0145A4                     _LCD_Clear:
  3648                           	callstack 20
  3649   0145A4                     
  3650                           ;./LCD.c: 104:     LCD_Write(0x01, COMMAND);
  3651   0145A4  0E00               	movlw	0
  3652   0145A6  0101               	movlb	1	; () banked
  3653   0145A8  6F2C               	movwf	LCD_Write@type& (0+255),b
  3654   0145AA  0E01               	movlw	1
  3655   0145AC  ECDC  F0A1         	call	_LCD_Write
  3656   0145B0                     
  3657                           ;./LCD.c: 105:     _delay((unsigned long)((2)*(64000000/4000.0)));
  3658   0145B0  0E2A               	movlw	42
  3659   0145B2  0101               	movlb	1	; () banked
  3660   0145B4  6F2E               	movwf	??_LCD_Clear& (0+255),b
  3661   0145B6  0E8D               	movlw	141
  3662   0145B8                     u11167:
  3663   0145B8  2EE8               	decfsz	wreg,f,c
  3664   0145BA  D7FE               	bra	u11167
  3665   0145BC  2F2E               	decfsz	??_LCD_Clear& (0+255),f,b
  3666   0145BE  D7FC               	bra	u11167
  3667   0145C0  D000               	nop2	
  3668   0145C2  0012               	return		;funcret
  3669   0145C4                     __end_of_LCD_Clear:
  3670                           	callstack 0
  3671                           
  3672 ;; *************** function _Compass_Calibre *****************
  3673 ;; Defined at:
  3674 ;;		line 156 in file "./Fonctions.c"
  3675 ;; Parameters:    Size  Location     Type
  3676 ;;		None
  3677 ;; Auto vars:     Size  Location     Type
  3678 ;;  j               1  144[BANK1 ] unsigned char 
  3679 ;;  i               1  143[BANK1 ] unsigned char 
  3680 ;; Return value:  Size  Location     Type
  3681 ;;                  1    wreg      void 
  3682 ;; Registers used:
  3683 ;;		wreg, status,2, status,0, tblptrl, tblptrh, tblptru, prodl, prodh, cstack
  3684 ;; Tracked objects:
  3685 ;;		On entry : 0/0
  3686 ;;		On exit  : 0/0
  3687 ;;		Unchanged: 0/0
  3688 ;; Data sizes:     COMRAM   BANK0   BANK1   BANK2   BANK3   BANK4   BANK5   BANK6   BANK7   BANK8   BANK9  BANK10  BANK1
      +1  BANK12  BANK13  BANK14
  3689 ;;      Params:         0       0       0       0       0       0       0       0       0       0       0       0       
      +0       0       0       0
  3690 ;;      Locals:         0       0       2       0       0       0       0       0       0       0       0       0       
      +0       0       0       0
  3691 ;;      Temps:          0       0       4       0       0       0       0       0       0       0       0       0       
      +0       0       0       0
  3692 ;;      Totals:         0       0       6       0       0       0       0       0       0       0       0       0       
      +0       0       0       0
  3693 ;;Total ram usage:        6 bytes
  3694 ;; Hardware stack levels used: 1
  3695 ;; Hardware stack levels required when called: 9
  3696 ;; This function calls:
  3697 ;;		_ENC_Set_Value
  3698 ;;		_LCD_Goto
  3699 ;;		_LCD_Print
  3700 ;;		_Motors_Enable
  3701 ;;		_Motors_Speed
  3702 ;;		_Motors_Turn_Angle
  3703 ;;		_SSP2_Read
  3704 ;;		_SSP2_Write
  3705 ;;		___aldiv
  3706 ;;		___fldiv
  3707 ;;		___flneg
  3708 ;;		___xxtofl
  3709 ;; This function is called by:
  3710 ;;		_Initialisation
  3711 ;; This function uses a non-reentrant model
  3712 ;;
  3713                           
  3714                           	psect	text8
  3715   01266A                     __ptext8:
  3716                           	callstack 0
  3717   01266A                     _Compass_Calibre:
  3718                           	callstack 20
  3719   01266A                     
  3720                           ;./Fonctions.c: 159:     unsigned char j=0;
  3721   01266A  0E00               	movlw	0
  3722   01266C  0101               	movlb	1	; () banked
  3723   01266E  6F90               	movwf	Compass_Calibre@j& (0+255),b
  3724   012670                     
  3725                           ; BSR set to: 1
  3726                           ;./Fonctions.c: 160:     LCD_Goto(0,0); LCD_Print(" CALIB. COMPAS  ");
  3727   012670  0E00               	movlw	0
  3728   012672  6F2E               	movwf	LCD_Goto@colonne& (0+255),b
  3729   012674  0E00               	movlw	0
  3730   012676  EC56  F0A2         	call	_LCD_Goto
  3731   01267A  0E0D               	movlw	low STR_7
  3732   01267C  0101               	movlb	1	; () banked
  3733   01267E  6F2E               	movwf	LCD_Print@t& (0+255),b
  3734   012680  0EFF               	movlw	high STR_7
  3735   012682  6F2F               	movwf	(LCD_Print@t+1)& (0+255),b
  3736   012684  ECB9  F0A1         	call	_LCD_Print	;wreg free
  3737   012688                     
  3738                           ;./Fonctions.c: 161:     LCD_Goto(1,0); LCD_Print("    EN COURS    ");
  3739   012688  0E00               	movlw	0
  3740   01268A  0101               	movlb	1	; () banked
  3741   01268C  6F2E               	movwf	LCD_Goto@colonne& (0+255),b
  3742   01268E  0E01               	movlw	1
  3743   012690  EC56  F0A2         	call	_LCD_Goto
  3744   012694  0EDA               	movlw	low STR_8
  3745   012696  0101               	movlb	1	; () banked
  3746   012698  6F2E               	movwf	LCD_Print@t& (0+255),b
  3747   01269A  0EFE               	movlw	high STR_8
  3748   01269C  6F2F               	movwf	(LCD_Print@t+1)& (0+255),b
  3749   01269E  ECB9  F0A1         	call	_LCD_Print	;wreg free
  3750   0126A2                     
  3751                           ;./Fonctions.c: 162:     Motors_Enable(1);
  3752   0126A2  0E01               	movlw	1
  3753   0126A4  EC9E  F0A2         	call	_Motors_Enable
  3754   0126A8                     
  3755                           ;./Fonctions.c: 163:     _delay((unsigned long)((500)*(64000000/4000.0)));
  3756   0126A8  0E29               	movlw	41
  3757   0126AA  0101               	movlb	1	; () banked
  3758   0126AC  6F8C               	movwf	(??_Compass_Calibre+1)& (0+255),b
  3759   0126AE  0E96               	movlw	150
  3760   0126B0  6F8B               	movwf	??_Compass_Calibre& (0+255),b
  3761   0126B2  0E7F               	movlw	127
  3762   0126B4                     u11177:
  3763   0126B4  2EE8               	decfsz	wreg,f,c
  3764   0126B6  D7FE               	bra	u11177
  3765   0126B8  2F8B               	decfsz	??_Compass_Calibre& (0+255),f,b
  3766   0126BA  D7FC               	bra	u11177
  3767   0126BC  2F8C               	decfsz	(??_Compass_Calibre+1)& (0+255),f,b
  3768   0126BE  D7FA               	bra	u11177
  3769   0126C0                     
  3770                           ;./Fonctions.c: 164:     for (i=0;i<12;i++)
  3771   0126C0  0E00               	movlw	0
  3772   0126C2  0101               	movlb	1	; () banked
  3773   0126C4  6F8F               	movwf	Compass_Calibre@i& (0+255),b
  3774   0126C6                     l6043:
  3775                           
  3776                           ; BSR set to: 1
  3777                           ;./Fonctions.c: 165:     {;./Fonctions.c: 166:         for (j=0;j<32;j++)
  3778   0126C6  0E00               	movlw	0
  3779   0126C8  6F90               	movwf	Compass_Calibre@j& (0+255),b
  3780   0126CA                     l6049:
  3781                           
  3782                           ; BSR set to: 1
  3783                           ;./Fonctions.c: 167:         {;./Fonctions.c: 168:             SSP2_Write(0x0C,0x31,0x01
      +                          ); _delay((unsigned long)((9)*(64000000/4000.0)));
  3784   0126CA  0E31               	movlw	49
  3785   0126CC  6F2A               	movwf	SSP2_Write@SSP2_REG& (0+255),b
  3786   0126CE  0E01               	movlw	1
  3787   0126D0  6F2B               	movwf	SSP2_Write@SSP2_DATA& (0+255),b
  3788   0126D2  0E0C               	movlw	12
  3789   0126D4  ECB0  F0A2         	call	_SSP2_Write
  3790   0126D8  0EBC               	movlw	188
  3791   0126DA  0101               	movlb	1	; () banked
  3792   0126DC  6F8B               	movwf	??_Compass_Calibre& (0+255),b
  3793   0126DE  0E01               	movlw	1
  3794   0126E0                     u11187:
  3795   0126E0  2EE8               	decfsz	wreg,f,c
  3796   0126E2  D7FE               	bra	u11187
  3797   0126E4  2F8B               	decfsz	??_Compass_Calibre& (0+255),f,b
  3798   0126E6  D7FC               	bra	u11187
  3799   0126E8  D000               	nop2	
  3800   0126EA                     
  3801                           ;./Fonctions.c: 169:             SSP2_Read(0x0C,0x12); _delay((unsigned long)((400)*(640
      +                          00000/4000000.0))); MAGN_X_H=SSP2_DATA_ISR;
  3802   0126EA  0E12               	movlw	18
  3803   0126EC  0101               	movlb	1	; () banked
  3804   0126EE  6F2A               	movwf	SSP2_Read@SSP2_REG& (0+255),b
  3805   0126F0  0E0C               	movlw	12
  3806   0126F2  ECF2  F0A2         	call	_SSP2_Read
  3807   0126F6  0E09               	movlw	9
  3808   0126F8  0101               	movlb	1	; () banked
  3809   0126FA  6F8B               	movwf	??_Compass_Calibre& (0+255),b
  3810   0126FC  0E4E               	movlw	78
  3811   0126FE                     u11197:
  3812   0126FE  2EE8               	decfsz	wreg,f,c
  3813   012700  D7FE               	bra	u11197
  3814   012702  2F8B               	decfsz	??_Compass_Calibre& (0+255),f,b
  3815   012704  D7FC               	bra	u11197
  3816   012706  0000               	nop	
  3817   012708  C1C1  F1BF         	movff	_SSP2_DATA_ISR,_MAGN_X_H
  3818   01270C  0101               	movlb	1	; () banked
  3819   01270E  6BC0               	clrf	(_MAGN_X_H+1)& (0+255),b
  3820   012710                     
  3821                           ; BSR set to: 1
  3822                           ;./Fonctions.c: 170:             SSP2_Read(0x0C,0x11); _delay((unsigned long)((400)*(640
      +                          00000/4000000.0))); MAGN_X_L=SSP2_DATA_ISR;
  3823   012710  0E11               	movlw	17
  3824   012712  6F2A               	movwf	SSP2_Read@SSP2_REG& (0+255),b
  3825   012714  0E0C               	movlw	12
  3826   012716  ECF2  F0A2         	call	_SSP2_Read
  3827   01271A  0E09               	movlw	9
  3828   01271C  0101               	movlb	1	; () banked
  3829   01271E  6F8B               	movwf	??_Compass_Calibre& (0+255),b
  3830   012720  0E4E               	movlw	78
  3831   012722                     u11207:
  3832   012722  2EE8               	decfsz	wreg,f,c
  3833   012724  D7FE               	bra	u11207
  3834   012726  2F8B               	decfsz	??_Compass_Calibre& (0+255),f,b
  3835   012728  D7FC               	bra	u11207
  3836   01272A  0000               	nop	
  3837   01272C  C1C1  F1BD         	movff	_SSP2_DATA_ISR,_MAGN_X_L
  3838   012730  0101               	movlb	1	; () banked
  3839   012732  6BBE               	clrf	(_MAGN_X_L+1)& (0+255),b
  3840   012734                     
  3841                           ; BSR set to: 1
  3842                           ;./Fonctions.c: 171:             MAGN_X=(MAGN_X_H<<8)+MAGN_X_L; MAGN_X_TOTAL=MAGN_X_TOTA
      +                          L+MAGN_X;
  3843   012734  51BF               	movf	_MAGN_X_H& (0+255),w,b
  3844   012736  6F8C               	movwf	(??_Compass_Calibre+1)& (0+255),b
  3845   012738  6B8B               	clrf	??_Compass_Calibre& (0+255),b
  3846   01273A  51BD               	movf	_MAGN_X_L& (0+255),w,b
  3847   01273C  258B               	addwf	??_Compass_Calibre& (0+255),w,b
  3848   01273E  6FBB               	movwf	_MAGN_X& (0+255),b
  3849   012740  51BE               	movf	(_MAGN_X_L+1)& (0+255),w,b
  3850   012742  218C               	addwfc	(??_Compass_Calibre+1)& (0+255),w,b
  3851   012744  6FBC               	movwf	(_MAGN_X+1)& (0+255),b
  3852   012746                     
  3853                           ; BSR set to: 1
  3854   012746  C1BB  F18B         	movff	_MAGN_X,??_Compass_Calibre
  3855   01274A  C1BC  F18C         	movff	_MAGN_X+1,??_Compass_Calibre+1
  3856   01274E  0E00               	movlw	0
  3857   012750  BF8C               	btfsc	(??_Compass_Calibre+1)& (0+255),7,b
  3858   012752  0EFF               	movlw	255
  3859   012754  6F8D               	movwf	(??_Compass_Calibre+2)& (0+255),b
  3860   012756  6F8E               	movwf	(??_Compass_Calibre+3)& (0+255),b
  3861   012758  51AF               	movf	_MAGN_X_TOTAL& (0+255),w,b
  3862   01275A  258B               	addwf	??_Compass_Calibre& (0+255),w,b
  3863   01275C  6FAF               	movwf	_MAGN_X_TOTAL& (0+255),b
  3864   01275E  51B0               	movf	(_MAGN_X_TOTAL+1)& (0+255),w,b
  3865   012760  218C               	addwfc	(??_Compass_Calibre+1)& (0+255),w,b
  3866   012762  6FB0               	movwf	(_MAGN_X_TOTAL+1)& (0+255),b
  3867   012764  51B1               	movf	(_MAGN_X_TOTAL+2)& (0+255),w,b
  3868   012766  218D               	addwfc	(??_Compass_Calibre+2)& (0+255),w,b
  3869   012768  6FB1               	movwf	(_MAGN_X_TOTAL+2)& (0+255),b
  3870   01276A  51B2               	movf	(_MAGN_X_TOTAL+3)& (0+255),w,b
  3871   01276C  218E               	addwfc	(??_Compass_Calibre+3)& (0+255),w,b
  3872   01276E  6FB2               	movwf	(_MAGN_X_TOTAL+3)& (0+255),b
  3873                           
  3874                           ;./Fonctions.c: 172:             SSP2_Read(0x0C,0x14); _delay((unsigned long)((400)*(640
      +                          00000/4000000.0))); MAGN_Y_H=SSP2_DATA_ISR;
  3875   012770  0E14               	movlw	20
  3876   012772  6F2A               	movwf	SSP2_Read@SSP2_REG& (0+255),b
  3877   012774  0E0C               	movlw	12
  3878   012776  ECF2  F0A2         	call	_SSP2_Read
  3879   01277A  0E09               	movlw	9
  3880   01277C  0101               	movlb	1	; () banked
  3881   01277E  6F8B               	movwf	??_Compass_Calibre& (0+255),b
  3882   012780  0E4E               	movlw	78
  3883   012782                     u11217:
  3884   012782  2EE8               	decfsz	wreg,f,c
  3885   012784  D7FE               	bra	u11217
  3886   012786  2F8B               	decfsz	??_Compass_Calibre& (0+255),f,b
  3887   012788  D7FC               	bra	u11217
  3888   01278A  0000               	nop	
  3889   01278C  C1C1  F1B9         	movff	_SSP2_DATA_ISR,_MAGN_Y_H
  3890   012790  0101               	movlb	1	; () banked
  3891   012792  6BBA               	clrf	(_MAGN_Y_H+1)& (0+255),b
  3892   012794                     
  3893                           ; BSR set to: 1
  3894                           ;./Fonctions.c: 173:             SSP2_Read(0x0C,0x13); _delay((unsigned long)((400)*(640
      +                          00000/4000000.0))); MAGN_Y_L=SSP2_DATA_ISR;
  3895   012794  0E13               	movlw	19
  3896   012796  6F2A               	movwf	SSP2_Read@SSP2_REG& (0+255),b
  3897   012798  0E0C               	movlw	12
  3898   01279A  ECF2  F0A2         	call	_SSP2_Read
  3899   01279E  0E09               	movlw	9
  3900   0127A0  0101               	movlb	1	; () banked
  3901   0127A2  6F8B               	movwf	??_Compass_Calibre& (0+255),b
  3902   0127A4  0E4E               	movlw	78
  3903   0127A6                     u11227:
  3904   0127A6  2EE8               	decfsz	wreg,f,c
  3905   0127A8  D7FE               	bra	u11227
  3906   0127AA  2F8B               	decfsz	??_Compass_Calibre& (0+255),f,b
  3907   0127AC  D7FC               	bra	u11227
  3908   0127AE  0000               	nop	
  3909   0127B0  C1C1  F1B7         	movff	_SSP2_DATA_ISR,_MAGN_Y_L
  3910   0127B4  0101               	movlb	1	; () banked
  3911   0127B6  6BB8               	clrf	(_MAGN_Y_L+1)& (0+255),b
  3912   0127B8                     
  3913                           ; BSR set to: 1
  3914                           ;./Fonctions.c: 174:             MAGN_Y=(MAGN_Y_H<<8)+MAGN_Y_L; MAGN_Y_TOTAL=MAGN_Y_TOTA
      +                          L+MAGN_Y;
  3915   0127B8  51B9               	movf	_MAGN_Y_H& (0+255),w,b
  3916   0127BA  6F8C               	movwf	(??_Compass_Calibre+1)& (0+255),b
  3917   0127BC  6B8B               	clrf	??_Compass_Calibre& (0+255),b
  3918   0127BE  51B7               	movf	_MAGN_Y_L& (0+255),w,b
  3919   0127C0  258B               	addwf	??_Compass_Calibre& (0+255),w,b
  3920   0127C2  6FB5               	movwf	_MAGN_Y& (0+255),b
  3921   0127C4  51B8               	movf	(_MAGN_Y_L+1)& (0+255),w,b
  3922   0127C6  218C               	addwfc	(??_Compass_Calibre+1)& (0+255),w,b
  3923   0127C8  6FB6               	movwf	(_MAGN_Y+1)& (0+255),b
  3924   0127CA                     
  3925                           ; BSR set to: 1
  3926   0127CA  C1B5  F18B         	movff	_MAGN_Y,??_Compass_Calibre
  3927   0127CE  C1B6  F18C         	movff	_MAGN_Y+1,??_Compass_Calibre+1
  3928   0127D2  0E00               	movlw	0
  3929   0127D4  BF8C               	btfsc	(??_Compass_Calibre+1)& (0+255),7,b
  3930   0127D6  0EFF               	movlw	255
  3931   0127D8  6F8D               	movwf	(??_Compass_Calibre+2)& (0+255),b
  3932   0127DA  6F8E               	movwf	(??_Compass_Calibre+3)& (0+255),b
  3933   0127DC  51AB               	movf	_MAGN_Y_TOTAL& (0+255),w,b
  3934   0127DE  258B               	addwf	??_Compass_Calibre& (0+255),w,b
  3935   0127E0  6FAB               	movwf	_MAGN_Y_TOTAL& (0+255),b
  3936   0127E2  51AC               	movf	(_MAGN_Y_TOTAL+1)& (0+255),w,b
  3937   0127E4  218C               	addwfc	(??_Compass_Calibre+1)& (0+255),w,b
  3938   0127E6  6FAC               	movwf	(_MAGN_Y_TOTAL+1)& (0+255),b
  3939   0127E8  51AD               	movf	(_MAGN_Y_TOTAL+2)& (0+255),w,b
  3940   0127EA  218D               	addwfc	(??_Compass_Calibre+2)& (0+255),w,b
  3941   0127EC  6FAD               	movwf	(_MAGN_Y_TOTAL+2)& (0+255),b
  3942   0127EE  51AE               	movf	(_MAGN_Y_TOTAL+3)& (0+255),w,b
  3943   0127F0  218E               	addwfc	(??_Compass_Calibre+3)& (0+255),w,b
  3944   0127F2  6FAE               	movwf	(_MAGN_Y_TOTAL+3)& (0+255),b
  3945   0127F4                     
  3946                           ; BSR set to: 1
  3947                           ;./Fonctions.c: 175:             SSP2_Read(0x0C,0x18); _delay((unsigned long)((400)*(640
      +                          00000/4000000.0)));
  3948   0127F4  0E18               	movlw	24
  3949   0127F6  6F2A               	movwf	SSP2_Read@SSP2_REG& (0+255),b
  3950   0127F8  0E0C               	movlw	12
  3951   0127FA  ECF2  F0A2         	call	_SSP2_Read
  3952   0127FE  0E09               	movlw	9
  3953   012800  0101               	movlb	1	; () banked
  3954   012802  6F8B               	movwf	??_Compass_Calibre& (0+255),b
  3955   012804  0E4E               	movlw	78
  3956   012806                     u11237:
  3957   012806  2EE8               	decfsz	wreg,f,c
  3958   012808  D7FE               	bra	u11237
  3959   01280A  2F8B               	decfsz	??_Compass_Calibre& (0+255),f,b
  3960   01280C  D7FC               	bra	u11237
  3961   01280E  0000               	nop	
  3962   012810                     
  3963                           ;./Fonctions.c: 176:             if (MAGN_X<MAGN_X_MIN) {MAGN_X_MIN=MAGN_X;}
  3964   012810  0101               	movlb	1	; () banked
  3965   012812  51C6               	movf	_MAGN_X_MIN& (0+255),w,b
  3966   012814  5DBB               	subwf	_MAGN_X& (0+255),w,b
  3967   012816  51BC               	movf	(_MAGN_X+1)& (0+255),w,b
  3968   012818  0A80               	xorlw	128
  3969   01281A  6F8B               	movwf	??_Compass_Calibre& (0+255),b
  3970   01281C  51C7               	movf	(_MAGN_X_MIN+1)& (0+255),w,b
  3971   01281E  0A80               	xorlw	128
  3972   012820  598B               	subwfb	??_Compass_Calibre& (0+255),w,b
  3973   012822  B0D8               	btfsc	status,0,c
  3974   012824  EF16  F094         	goto	u6361
  3975   012828  EF18  F094         	goto	u6360
  3976   01282C                     u6361:
  3977   01282C  EF1C  F094         	goto	l6087
  3978   012830                     u6360:
  3979   012830                     
  3980                           ; BSR set to: 1
  3981   012830  C1BB  F1C6         	movff	_MAGN_X,_MAGN_X_MIN
  3982   012834  C1BC  F1C7         	movff	_MAGN_X+1,_MAGN_X_MIN+1
  3983   012838                     l6087:
  3984                           
  3985                           ; BSR set to: 1
  3986                           ;./Fonctions.c: 177:             if (MAGN_X>MAGN_X_MAX) {MAGN_X_MAX=MAGN_X;}
  3987   012838  51BB               	movf	_MAGN_X& (0+255),w,b
  3988   01283A  5DC8               	subwf	_MAGN_X_MAX& (0+255),w,b
  3989   01283C  51C9               	movf	(_MAGN_X_MAX+1)& (0+255),w,b
  3990   01283E  0A80               	xorlw	128
  3991   012840  6F8B               	movwf	??_Compass_Calibre& (0+255),b
  3992   012842  51BC               	movf	(_MAGN_X+1)& (0+255),w,b
  3993   012844  0A80               	xorlw	128
  3994   012846  598B               	subwfb	??_Compass_Calibre& (0+255),w,b
  3995   012848  B0D8               	btfsc	status,0,c
  3996   01284A  EF29  F094         	goto	u6371
  3997   01284E  EF2B  F094         	goto	u6370
  3998   012852                     u6371:
  3999   012852  EF2F  F094         	goto	l6091
  4000   012856                     u6370:
  4001   012856                     
  4002                           ; BSR set to: 1
  4003   012856  C1BB  F1C8         	movff	_MAGN_X,_MAGN_X_MAX
  4004   01285A  C1BC  F1C9         	movff	_MAGN_X+1,_MAGN_X_MAX+1
  4005   01285E                     l6091:
  4006                           
  4007                           ; BSR set to: 1
  4008                           ;./Fonctions.c: 178:             if (MAGN_Y<MAGN_Y_MIN) {MAGN_Y_MIN=MAGN_Y;}
  4009   01285E  51C2               	movf	_MAGN_Y_MIN& (0+255),w,b
  4010   012860  5DB5               	subwf	_MAGN_Y& (0+255),w,b
  4011   012862  51B6               	movf	(_MAGN_Y+1)& (0+255),w,b
  4012   012864  0A80               	xorlw	128
  4013   012866  6F8B               	movwf	??_Compass_Calibre& (0+255),b
  4014   012868  51C3               	movf	(_MAGN_Y_MIN+1)& (0+255),w,b
  4015   01286A  0A80               	xorlw	128
  4016   01286C  598B               	subwfb	??_Compass_Calibre& (0+255),w,b
  4017   01286E  B0D8               	btfsc	status,0,c
  4018   012870  EF3C  F094         	goto	u6381
  4019   012874  EF3E  F094         	goto	u6380
  4020   012878                     u6381:
  4021   012878  EF42  F094         	goto	l6095
  4022   01287C                     u6380:
  4023   01287C                     
  4024                           ; BSR set to: 1
  4025   01287C  C1B5  F1C2         	movff	_MAGN_Y,_MAGN_Y_MIN
  4026   012880  C1B6  F1C3         	movff	_MAGN_Y+1,_MAGN_Y_MIN+1
  4027   012884                     l6095:
  4028                           
  4029                           ; BSR set to: 1
  4030                           ;./Fonctions.c: 179:             if (MAGN_Y>MAGN_Y_MAX) {MAGN_Y_MAX=MAGN_Y;}
  4031   012884  51B5               	movf	_MAGN_Y& (0+255),w,b
  4032   012886  5DC4               	subwf	_MAGN_Y_MAX& (0+255),w,b
  4033   012888  51C5               	movf	(_MAGN_Y_MAX+1)& (0+255),w,b
  4034   01288A  0A80               	xorlw	128
  4035   01288C  6F8B               	movwf	??_Compass_Calibre& (0+255),b
  4036   01288E  51B6               	movf	(_MAGN_Y+1)& (0+255),w,b
  4037   012890  0A80               	xorlw	128
  4038   012892  598B               	subwfb	??_Compass_Calibre& (0+255),w,b
  4039   012894  B0D8               	btfsc	status,0,c
  4040   012896  EF4F  F094         	goto	u6391
  4041   01289A  EF51  F094         	goto	u6390
  4042   01289E                     u6391:
  4043   01289E  EF55  F094         	goto	l6099
  4044   0128A2                     u6390:
  4045   0128A2                     
  4046                           ; BSR set to: 1
  4047   0128A2  C1B5  F1C4         	movff	_MAGN_Y,_MAGN_Y_MAX
  4048   0128A6  C1B6  F1C5         	movff	_MAGN_Y+1,_MAGN_Y_MAX+1
  4049   0128AA                     l6099:
  4050                           
  4051                           ; BSR set to: 1
  4052                           ;./Fonctions.c: 180:         }
  4053   0128AA  2B90               	incf	Compass_Calibre@j& (0+255),f,b
  4054   0128AC                     
  4055                           ; BSR set to: 1
  4056   0128AC  0E1F               	movlw	31
  4057   0128AE  6590               	cpfsgt	Compass_Calibre@j& (0+255),b
  4058   0128B0  EF5C  F094         	goto	u6401
  4059   0128B4  EF5E  F094         	goto	u6400
  4060   0128B8                     u6401:
  4061   0128B8  EF65  F093         	goto	l6049
  4062   0128BC                     u6400:
  4063   0128BC                     
  4064                           ; BSR set to: 1
  4065                           ;./Fonctions.c: 181:         Motors_Turn_Angle(30);
  4066   0128BC  0E00               	movlw	0
  4067   0128BE  6F6A               	movwf	(Motors_Turn_Angle@angle+1)& (0+255),b
  4068   0128C0  0E1E               	movlw	30
  4069   0128C2  6F69               	movwf	Motors_Turn_Angle@angle& (0+255),b
  4070   0128C4  ECCA  F098         	call	_Motors_Turn_Angle	;wreg free
  4071   0128C8                     
  4072                           ;./Fonctions.c: 182:         _delay((unsigned long)((100)*(64000000/4000.0)));
  4073   0128C8  0E09               	movlw	9
  4074   0128CA  0101               	movlb	1	; () banked
  4075   0128CC  6F8C               	movwf	(??_Compass_Calibre+1)& (0+255),b
  4076   0128CE  0E1E               	movlw	30
  4077   0128D0  6F8B               	movwf	??_Compass_Calibre& (0+255),b
  4078   0128D2  0EE4               	movlw	228
  4079   0128D4                     u11247:
  4080   0128D4  2EE8               	decfsz	wreg,f,c
  4081   0128D6  D7FE               	bra	u11247
  4082   0128D8  2F8B               	decfsz	??_Compass_Calibre& (0+255),f,b
  4083   0128DA  D7FC               	bra	u11247
  4084   0128DC  2F8C               	decfsz	(??_Compass_Calibre+1)& (0+255),f,b
  4085   0128DE  D7FA               	bra	u11247
  4086   0128E0  0000               	nop	
  4087   0128E2                     
  4088                           ;./Fonctions.c: 183:     }
  4089   0128E2  0101               	movlb	1	; () banked
  4090   0128E4  2B8F               	incf	Compass_Calibre@i& (0+255),f,b
  4091   0128E6                     
  4092                           ; BSR set to: 1
  4093   0128E6  0E0B               	movlw	11
  4094   0128E8  658F               	cpfsgt	Compass_Calibre@i& (0+255),b
  4095   0128EA  EF79  F094         	goto	u6411
  4096   0128EE  EF7B  F094         	goto	u6410
  4097   0128F2                     u6411:
  4098   0128F2  EF63  F093         	goto	l6043
  4099   0128F6                     u6410:
  4100   0128F6                     
  4101                           ; BSR set to: 1
  4102                           ;./Fonctions.c: 184:     MAGN_X_ZERO=(signed short)(MAGN_X_TOTAL/384);
  4103   0128F6  C1AF  F12A         	movff	_MAGN_X_TOTAL,___aldiv@dividend
  4104   0128FA  C1B0  F12B         	movff	_MAGN_X_TOTAL+1,___aldiv@dividend+1
  4105   0128FE  C1B1  F12C         	movff	_MAGN_X_TOTAL+2,___aldiv@dividend+2
  4106   012902  C1B2  F12D         	movff	_MAGN_X_TOTAL+3,___aldiv@dividend+3
  4107   012906  0E80               	movlw	128
  4108   012908  6F2E               	movwf	___aldiv@divisor& (0+255),b
  4109   01290A  0E01               	movlw	1
  4110   01290C  6F2F               	movwf	(___aldiv@divisor+1)& (0+255),b
  4111   01290E  0E00               	movlw	0
  4112   012910  6F30               	movwf	(___aldiv@divisor+2)& (0+255),b
  4113   012912  0E00               	movlw	0
  4114   012914  6F31               	movwf	(___aldiv@divisor+3)& (0+255),b
  4115   012916  ECAB  F09C         	call	___aldiv	;wreg free
  4116   01291A  C12A  F0CB         	movff	?___aldiv,_MAGN_X_ZERO
  4117   01291E  C12B  F0CC         	movff	?___aldiv+1,_MAGN_X_ZERO+1
  4118                           
  4119                           ;./Fonctions.c: 185:     MAGN_Y_ZERO=(signed short)(MAGN_Y_TOTAL/384);
  4120   012922  C1AB  F12A         	movff	_MAGN_Y_TOTAL,___aldiv@dividend
  4121   012926  C1AC  F12B         	movff	_MAGN_Y_TOTAL+1,___aldiv@dividend+1
  4122   01292A  C1AD  F12C         	movff	_MAGN_Y_TOTAL+2,___aldiv@dividend+2
  4123   01292E  C1AE  F12D         	movff	_MAGN_Y_TOTAL+3,___aldiv@dividend+3
  4124   012932  0E80               	movlw	128
  4125   012934  0101               	movlb	1	; () banked
  4126   012936  6F2E               	movwf	___aldiv@divisor& (0+255),b
  4127   012938  0E01               	movlw	1
  4128   01293A  6F2F               	movwf	(___aldiv@divisor+1)& (0+255),b
  4129   01293C  0E00               	movlw	0
  4130   01293E  6F30               	movwf	(___aldiv@divisor+2)& (0+255),b
  4131   012940  0E00               	movlw	0
  4132   012942  6F31               	movwf	(___aldiv@divisor+3)& (0+255),b
  4133   012944  ECAB  F09C         	call	___aldiv	;wreg free
  4134   012948  C12A  F0C9         	movff	?___aldiv,_MAGN_Y_ZERO
  4135   01294C  C12B  F0CA         	movff	?___aldiv+1,_MAGN_Y_ZERO+1
  4136                           
  4137                           ;./Fonctions.c: 186:     RAPPORT_X_Y=(float)(((float)(MAGN_X_MAX-MAGN_X_MIN))/((float)(M
      +                          AGN_Y_MAX-MAGN_Y_MIN)));
  4138   012950  0101               	movlb	1	; () banked
  4139   012952  51C6               	movf	_MAGN_X_MIN& (0+255),w,b
  4140   012954  5DC8               	subwf	_MAGN_X_MAX& (0+255),w,b
  4141   012956  6F8B               	movwf	??_Compass_Calibre& (0+255),b
  4142   012958  51C7               	movf	(_MAGN_X_MIN+1)& (0+255),w,b
  4143   01295A  59C9               	subwfb	(_MAGN_X_MAX+1)& (0+255),w,b
  4144   01295C  6F8C               	movwf	(??_Compass_Calibre+1)& (0+255),b
  4145   01295E  C18B  F12A         	movff	??_Compass_Calibre,___xxtofl@val
  4146   012962  C18C  F12B         	movff	??_Compass_Calibre+1,___xxtofl@val+1
  4147   012966  0E00               	movlw	0
  4148   012968  BF2B               	btfsc	(___xxtofl@val+1)& (0+255),7,b
  4149   01296A  0EFF               	movlw	-1
  4150   01296C  6F2C               	movwf	(___xxtofl@val+2)& (0+255),b
  4151   01296E  6F2D               	movwf	(___xxtofl@val+3)& (0+255),b
  4152   012970  0E01               	movlw	1
  4153   012972  EC3D  F09A         	call	___xxtofl
  4154   012976  C12A  F138         	movff	?___xxtofl,___fldiv@b
  4155   01297A  C12B  F139         	movff	?___xxtofl+1,___fldiv@b+1
  4156   01297E  C12C  F13A         	movff	?___xxtofl+2,___fldiv@b+2
  4157   012982  C12D  F13B         	movff	?___xxtofl+3,___fldiv@b+3
  4158   012986  0101               	movlb	1	; () banked
  4159   012988  51C2               	movf	_MAGN_Y_MIN& (0+255),w,b
  4160   01298A  5DC4               	subwf	_MAGN_Y_MAX& (0+255),w,b
  4161   01298C  6F8D               	movwf	(??_Compass_Calibre+2)& (0+255),b
  4162   01298E  51C3               	movf	(_MAGN_Y_MIN+1)& (0+255),w,b
  4163   012990  59C5               	subwfb	(_MAGN_Y_MAX+1)& (0+255),w,b
  4164   012992  6F8E               	movwf	(??_Compass_Calibre+3)& (0+255),b
  4165   012994  C18D  F12A         	movff	??_Compass_Calibre+2,___xxtofl@val
  4166   012998  C18E  F12B         	movff	??_Compass_Calibre+3,___xxtofl@val+1
  4167   01299C  0E00               	movlw	0
  4168   01299E  BF2B               	btfsc	(___xxtofl@val+1)& (0+255),7,b
  4169   0129A0  0EFF               	movlw	-1
  4170   0129A2  6F2C               	movwf	(___xxtofl@val+2)& (0+255),b
  4171   0129A4  6F2D               	movwf	(___xxtofl@val+3)& (0+255),b
  4172   0129A6  0E01               	movlw	1
  4173   0129A8  EC3D  F09A         	call	___xxtofl
  4174   0129AC  C12A  F13C         	movff	?___xxtofl,___fldiv@a
  4175   0129B0  C12B  F13D         	movff	?___xxtofl+1,___fldiv@a+1
  4176   0129B4  C12C  F13E         	movff	?___xxtofl+2,___fldiv@a+2
  4177   0129B8  C12D  F13F         	movff	?___xxtofl+3,___fldiv@a+3
  4178   0129BC  EC2E  F095         	call	___fldiv	;wreg free
  4179   0129C0  C138  F1A7         	movff	?___fldiv,_RAPPORT_X_Y
  4180   0129C4  C139  F1A8         	movff	?___fldiv+1,_RAPPORT_X_Y+1
  4181   0129C8  C13A  F1A9         	movff	?___fldiv+2,_RAPPORT_X_Y+2
  4182   0129CC  C13B  F1AA         	movff	?___fldiv+3,_RAPPORT_X_Y+3
  4183   0129D0                     
  4184                           ;./Fonctions.c: 187:     if (RAPPORT_X_Y<0) {RAPPORT_X_Y=-RAPPORT_X_Y;}
  4185   0129D0  0101               	movlb	1	; () banked
  4186   0129D2  BFAA               	btfsc	(_RAPPORT_X_Y+3)& (0+255),7,b
  4187   0129D4  EFF0  F094         	goto	u6420
  4188   0129D8  EFEE  F094         	goto	u6421
  4189   0129DC                     u6421:
  4190   0129DC  EF02  F095         	goto	l6117
  4191   0129E0                     u6420:
  4192   0129E0                     
  4193                           ; BSR set to: 1
  4194   0129E0  C1A7  F12A         	movff	_RAPPORT_X_Y,___flneg@f1
  4195   0129E4  C1A8  F12B         	movff	_RAPPORT_X_Y+1,___flneg@f1+1
  4196   0129E8  C1A9  F12C         	movff	_RAPPORT_X_Y+2,___flneg@f1+2
  4197   0129EC  C1AA  F12D         	movff	_RAPPORT_X_Y+3,___flneg@f1+3
  4198   0129F0  EC1D  F0A2         	call	___flneg	;wreg free
  4199   0129F4  C12A  F1A7         	movff	?___flneg,_RAPPORT_X_Y
  4200   0129F8  C12B  F1A8         	movff	?___flneg+1,_RAPPORT_X_Y+1
  4201   0129FC  C12C  F1A9         	movff	?___flneg+2,_RAPPORT_X_Y+2
  4202   012A00  C12D  F1AA         	movff	?___flneg+3,_RAPPORT_X_Y+3
  4203   012A04                     l6117:
  4204                           
  4205                           ;./Fonctions.c: 188:     Motors_Speed(0,0);
  4206   012A04  0E00               	movlw	0
  4207   012A06  0101               	movlb	1	; () banked
  4208   012A08  6F2A               	movwf	Motors_Speed@vitd& (0+255),b
  4209   012A0A  0E00               	movlw	0
  4210   012A0C  ECC1  F0A2         	call	_Motors_Speed
  4211   012A10                     
  4212                           ;./Fonctions.c: 189:     Motors_Enable(0);
  4213   012A10  0E00               	movlw	0
  4214   012A12  EC9E  F0A2         	call	_Motors_Enable
  4215   012A16                     
  4216                           ;./Fonctions.c: 190:     TMR3ON=1;
  4217   012A16  80C9               	bsf	4041,0,c	;volatile
  4218                           
  4219                           ;./Fonctions.c: 191:     LCD_Goto(0,0); LCD_Print("CALIB. BOUSSOLE ");
  4220   012A18  0E00               	movlw	0
  4221   012A1A  0101               	movlb	1	; () banked
  4222   012A1C  6F2E               	movwf	LCD_Goto@colonne& (0+255),b
  4223   012A1E  0E00               	movlw	0
  4224   012A20  EC56  F0A2         	call	_LCD_Goto
  4225   012A24  0E2F               	movlw	low STR_9
  4226   012A26  0101               	movlb	1	; () banked
  4227   012A28  6F2E               	movwf	LCD_Print@t& (0+255),b
  4228   012A2A  0EFF               	movlw	high STR_9
  4229   012A2C  6F2F               	movwf	(LCD_Print@t+1)& (0+255),b
  4230   012A2E  ECB9  F0A1         	call	_LCD_Print	;wreg free
  4231   012A32                     
  4232                           ;./Fonctions.c: 192:     LCD_Goto(1,0); LCD_Print("     FINIE      ");
  4233   012A32  0E00               	movlw	0
  4234   012A34  0101               	movlb	1	; () banked
  4235   012A36  6F2E               	movwf	LCD_Goto@colonne& (0+255),b
  4236   012A38  0E01               	movlw	1
  4237   012A3A  EC56  F0A2         	call	_LCD_Goto
  4238   012A3E  0EB8               	movlw	low STR_10
  4239   012A40  0101               	movlb	1	; () banked
  4240   012A42  6F2E               	movwf	LCD_Print@t& (0+255),b
  4241   012A44  0EFE               	movlw	high STR_10
  4242   012A46  6F2F               	movwf	(LCD_Print@t+1)& (0+255),b
  4243   012A48  ECB9  F0A1         	call	_LCD_Print	;wreg free
  4244   012A4C                     
  4245                           ;./Fonctions.c: 193:     ENC_Set_Value(0);
  4246   012A4C  0E00               	movlw	0
  4247   012A4E  0101               	movlb	1	; () banked
  4248   012A50  6F2B               	movwf	(ENC_Set_Value@val+1)& (0+255),b
  4249   012A52  0E00               	movlw	0
  4250   012A54  6F2A               	movwf	ENC_Set_Value@val& (0+255),b
  4251   012A56  EC4D  F0A3         	call	_ENC_Set_Value	;wreg free
  4252   012A5A  0012               	return		;funcret
  4253   012A5C                     __end_of_Compass_Calibre:
  4254                           	callstack 0
  4255                           
  4256 ;; *************** function ___flneg *****************
  4257 ;; Defined at:
  4258 ;;		line 15 in file "C:\Program Files\Microchip\xc8\v2.46\pic\sources\c99\common\flneg.c"
  4259 ;; Parameters:    Size  Location     Type
  4260 ;;  f1              4   42[BANK1 ] void 
  4261 ;; Auto vars:     Size  Location     Type
  4262 ;;		None
  4263 ;; Return value:  Size  Location     Type
  4264 ;;                  4   42[BANK1 ] void 
  4265 ;; Registers used:
  4266 ;;		wreg, status,2, status,0
  4267 ;; Tracked objects:
  4268 ;;		On entry : 0/0
  4269 ;;		On exit  : 0/0
  4270 ;;		Unchanged: 0/0
  4271 ;; Data sizes:     COMRAM   BANK0   BANK1   BANK2   BANK3   BANK4   BANK5   BANK6   BANK7   BANK8   BANK9  BANK10  BANK1
      +1  BANK12  BANK13  BANK14
  4272 ;;      Params:         0       0       4       0       0       0       0       0       0       0       0       0       
      +0       0       0       0
  4273 ;;      Locals:         0       0       0       0       0       0       0       0       0       0       0       0       
      +0       0       0       0
  4274 ;;      Temps:          0       0       0       0       0       0       0       0       0       0       0       0       
      +0       0       0       0
  4275 ;;      Totals:         0       0       4       0       0       0       0       0       0       0       0       0       
      +0       0       0       0
  4276 ;;Total ram usage:        4 bytes
  4277 ;; Hardware stack levels used: 1
  4278 ;; Hardware stack levels required when called: 6
  4279 ;; This function calls:
  4280 ;;		Nothing
  4281 ;; This function is called by:
  4282 ;;		_Compass_Calibre
  4283 ;; This function uses a non-reentrant model
  4284 ;;
  4285                           
  4286                           	psect	text9
  4287   01443A                     __ptext9:
  4288                           	callstack 0
  4289   01443A                     ___flneg:
  4290                           	callstack 22
  4291   01443A  0101               	movlb	1	; () banked
  4292   01443C  512A               	movf	___flneg@f1& (0+255),w,b
  4293   01443E  112B               	iorwf	(___flneg@f1+1)& (0+255),w,b
  4294   014440  112C               	iorwf	(___flneg@f1+2)& (0+255),w,b
  4295   014442  112D               	iorwf	(___flneg@f1+3)& (0+255),w,b
  4296   014444  B4D8               	btfsc	status,2,c
  4297   014446  EF27  F0A2         	goto	u5941
  4298   01444A  EF29  F0A2         	goto	u5940
  4299   01444E                     u5941:
  4300   01444E  EF31  F0A2         	goto	l5729
  4301   014452                     u5940:
  4302   014452                     
  4303                           ; BSR set to: 1
  4304   014452  0E00               	movlw	0
  4305   014454  1B2A               	xorwf	___flneg@f1& (0+255),f,b
  4306   014456  0E00               	movlw	0
  4307   014458  1B2B               	xorwf	(___flneg@f1+1)& (0+255),f,b
  4308   01445A  0E00               	movlw	0
  4309   01445C  1B2C               	xorwf	(___flneg@f1+2)& (0+255),f,b
  4310   01445E  0E80               	movlw	128
  4311   014460  1B2D               	xorwf	(___flneg@f1+3)& (0+255),f,b
  4312   014462                     l5729:
  4313                           
  4314                           ; BSR set to: 1
  4315   014462  C12A  F12A         	movff	___flneg@f1,?___flneg
  4316   014466  C12B  F12B         	movff	___flneg@f1+1,?___flneg+1
  4317   01446A  C12C  F12C         	movff	___flneg@f1+2,?___flneg+2
  4318   01446E  C12D  F12D         	movff	___flneg@f1+3,?___flneg+3
  4319   014472                     
  4320                           ; BSR set to: 1
  4321   014472  0012               	return		;funcret
  4322   014474                     __end_of___flneg:
  4323                           	callstack 0
  4324                           
  4325 ;; *************** function ___fldiv *****************
  4326 ;; Defined at:
  4327 ;;		line 11 in file "C:\Program Files\Microchip\xc8\v2.46\pic\sources\c99\common\sprcdiv.c"
  4328 ;; Parameters:    Size  Location     Type
  4329 ;;  b               4   56[BANK1 ] void 
  4330 ;;  a               4   60[BANK1 ] void 
  4331 ;; Auto vars:     Size  Location     Type
  4332 ;;  grs             4   75[BANK1 ] unsigned long 
  4333 ;;  rem             4   68[BANK1 ] unsigned long 
  4334 ;;  new_exp         2   73[BANK1 ] short 
  4335 ;;  aexp            1   80[BANK1 ] unsigned char 
  4336 ;;  bexp            1   79[BANK1 ] unsigned char 
  4337 ;;  sign            1   72[BANK1 ] unsigned char 
  4338 ;; Return value:  Size  Location     Type
  4339 ;;                  4   56[BANK1 ] unsigned char 
  4340 ;; Registers used:
  4341 ;;		wreg, status,2, status,0
  4342 ;; Tracked objects:
  4343 ;;		On entry : 0/0
  4344 ;;		On exit  : 0/0
  4345 ;;		Unchanged: 0/0
  4346 ;; Data sizes:     COMRAM   BANK0   BANK1   BANK2   BANK3   BANK4   BANK5   BANK6   BANK7   BANK8   BANK9  BANK10  BANK1
      +1  BANK12  BANK13  BANK14
  4347 ;;      Params:         0       0       8       0       0       0       0       0       0       0       0       0       
      +0       0       0       0
  4348 ;;      Locals:         0       0      13       0       0       0       0       0       0       0       0       0       
      +0       0       0       0
  4349 ;;      Temps:          0       0       4       0       0       0       0       0       0       0       0       0       
      +0       0       0       0
  4350 ;;      Totals:         0       0      25       0       0       0       0       0       0       0       0       0       
      +0       0       0       0
  4351 ;;Total ram usage:       25 bytes
  4352 ;; Hardware stack levels used: 1
  4353 ;; Hardware stack levels required when called: 6
  4354 ;; This function calls:
  4355 ;;		Nothing
  4356 ;; This function is called by:
  4357 ;;		_Compass_Calibre
  4358 ;; This function uses a non-reentrant model
  4359 ;;
  4360                           
  4361                           	psect	text10
  4362   012A5C                     __ptext10:
  4363                           	callstack 0
  4364   012A5C                     ___fldiv:
  4365                           	callstack 22
  4366   012A5C  0101               	movlb	1	; () banked
  4367   012A5E  513B               	movf	(___fldiv@b+3)& (0+255),w,b
  4368   012A60  0B80               	andlw	128
  4369   012A62  6F48               	movwf	___fldiv@sign& (0+255),b
  4370   012A64  513B               	movf	(___fldiv@b+3)& (0+255),w,b
  4371   012A66  253B               	addwf	(___fldiv@b+3)& (0+255),w,b
  4372   012A68  6F4F               	movwf	___fldiv@bexp& (0+255),b
  4373   012A6A                     
  4374                           ; BSR set to: 1
  4375   012A6A  AF3A               	btfss	(___fldiv@b+2)& (0+255),7,b
  4376   012A6C  EF3A  F095         	goto	u5711
  4377   012A70  EF3C  F095         	goto	u5710
  4378   012A74                     u5711:
  4379   012A74  EF3D  F095         	goto	l5593
  4380   012A78                     u5710:
  4381   012A78                     
  4382                           ; BSR set to: 1
  4383   012A78  814F               	bsf	___fldiv@bexp& (0+255),0,b
  4384   012A7A                     l5593:
  4385                           
  4386                           ; BSR set to: 1
  4387   012A7A  514F               	movf	___fldiv@bexp& (0+255),w,b
  4388   012A7C  B4D8               	btfsc	status,2,c
  4389   012A7E  EF43  F095         	goto	u5721
  4390   012A82  EF45  F095         	goto	u5720
  4391   012A86                     u5721:
  4392   012A86  EF5A  F095         	goto	l5603
  4393   012A8A                     u5720:
  4394   012A8A                     
  4395                           ; BSR set to: 1
  4396   012A8A  294F               	incf	___fldiv@bexp& (0+255),w,b
  4397   012A8C  A4D8               	btfss	status,2,c
  4398   012A8E  EF4B  F095         	goto	u5731
  4399   012A92  EF4D  F095         	goto	u5730
  4400   012A96                     u5731:
  4401   012A96  EF55  F095         	goto	l5599
  4402   012A9A                     u5730:
  4403   012A9A                     
  4404                           ; BSR set to: 1
  4405   012A9A  0E00               	movlw	0
  4406   012A9C  6F38               	movwf	___fldiv@b& (0+255),b
  4407   012A9E  0E00               	movlw	0
  4408   012AA0  6F39               	movwf	(___fldiv@b+1)& (0+255),b
  4409   012AA2  0E00               	movlw	0
  4410   012AA4  6F3A               	movwf	(___fldiv@b+2)& (0+255),b
  4411   012AA6  0E00               	movlw	0
  4412   012AA8  6F3B               	movwf	(___fldiv@b+3)& (0+255),b
  4413   012AAA                     l5599:
  4414                           
  4415                           ; BSR set to: 1
  4416   012AAA  8F3A               	bsf	(___fldiv@b+2)& (0+255),7,b
  4417   012AAC                     
  4418                           ; BSR set to: 1
  4419   012AAC  0E00               	movlw	0
  4420   012AAE  6F3B               	movwf	(___fldiv@b+3)& (0+255),b
  4421   012AB0  EF62  F095         	goto	l5605
  4422   012AB4                     l5603:
  4423                           
  4424                           ; BSR set to: 1
  4425   012AB4  0E00               	movlw	0
  4426   012AB6  6F38               	movwf	___fldiv@b& (0+255),b
  4427   012AB8  0E00               	movlw	0
  4428   012ABA  6F39               	movwf	(___fldiv@b+1)& (0+255),b
  4429   012ABC  0E00               	movlw	0
  4430   012ABE  6F3A               	movwf	(___fldiv@b+2)& (0+255),b
  4431   012AC0  0E00               	movlw	0
  4432   012AC2  6F3B               	movwf	(___fldiv@b+3)& (0+255),b
  4433   012AC4                     l5605:
  4434                           
  4435                           ; BSR set to: 1
  4436   012AC4  513F               	movf	(___fldiv@a+3)& (0+255),w,b
  4437   012AC6  0B80               	andlw	128
  4438   012AC8  1B48               	xorwf	___fldiv@sign& (0+255),f,b
  4439   012ACA                     
  4440                           ; BSR set to: 1
  4441   012ACA  513F               	movf	(___fldiv@a+3)& (0+255),w,b
  4442   012ACC  253F               	addwf	(___fldiv@a+3)& (0+255),w,b
  4443   012ACE  6F50               	movwf	___fldiv@aexp& (0+255),b
  4444   012AD0                     
  4445                           ; BSR set to: 1
  4446   012AD0  AF3E               	btfss	(___fldiv@a+2)& (0+255),7,b
  4447   012AD2  EF6D  F095         	goto	u5741
  4448   012AD6  EF6F  F095         	goto	u5740
  4449   012ADA                     u5741:
  4450   012ADA  EF70  F095         	goto	l5613
  4451   012ADE                     u5740:
  4452   012ADE                     
  4453                           ; BSR set to: 1
  4454   012ADE  8150               	bsf	___fldiv@aexp& (0+255),0,b
  4455   012AE0                     l5613:
  4456                           
  4457                           ; BSR set to: 1
  4458   012AE0  5150               	movf	___fldiv@aexp& (0+255),w,b
  4459   012AE2  B4D8               	btfsc	status,2,c
  4460   012AE4  EF76  F095         	goto	u5751
  4461   012AE8  EF78  F095         	goto	u5750
  4462   012AEC                     u5751:
  4463   012AEC  EF8D  F095         	goto	l5623
  4464   012AF0                     u5750:
  4465   012AF0                     
  4466                           ; BSR set to: 1
  4467   012AF0  2950               	incf	___fldiv@aexp& (0+255),w,b
  4468   012AF2  A4D8               	btfss	status,2,c
  4469   012AF4  EF7E  F095         	goto	u5761
  4470   012AF8  EF80  F095         	goto	u5760
  4471   012AFC                     u5761:
  4472   012AFC  EF88  F095         	goto	l5619
  4473   012B00                     u5760:
  4474   012B00                     
  4475                           ; BSR set to: 1
  4476   012B00  0E00               	movlw	0
  4477   012B02  6F3C               	movwf	___fldiv@a& (0+255),b
  4478   012B04  0E00               	movlw	0
  4479   012B06  6F3D               	movwf	(___fldiv@a+1)& (0+255),b
  4480   012B08  0E00               	movlw	0
  4481   012B0A  6F3E               	movwf	(___fldiv@a+2)& (0+255),b
  4482   012B0C  0E00               	movlw	0
  4483   012B0E  6F3F               	movwf	(___fldiv@a+3)& (0+255),b
  4484   012B10                     l5619:
  4485                           
  4486                           ; BSR set to: 1
  4487   012B10  8F3E               	bsf	(___fldiv@a+2)& (0+255),7,b
  4488   012B12                     
  4489                           ; BSR set to: 1
  4490   012B12  0E00               	movlw	0
  4491   012B14  6F3F               	movwf	(___fldiv@a+3)& (0+255),b
  4492   012B16  EF95  F095         	goto	l5625
  4493   012B1A                     l5623:
  4494                           
  4495                           ; BSR set to: 1
  4496   012B1A  0E00               	movlw	0
  4497   012B1C  6F3C               	movwf	___fldiv@a& (0+255),b
  4498   012B1E  0E00               	movlw	0
  4499   012B20  6F3D               	movwf	(___fldiv@a+1)& (0+255),b
  4500   012B22  0E00               	movlw	0
  4501   012B24  6F3E               	movwf	(___fldiv@a+2)& (0+255),b
  4502   012B26  0E00               	movlw	0
  4503   012B28  6F3F               	movwf	(___fldiv@a+3)& (0+255),b
  4504   012B2A                     l5625:
  4505                           
  4506                           ; BSR set to: 1
  4507   012B2A  513C               	movf	___fldiv@a& (0+255),w,b
  4508   012B2C  113D               	iorwf	(___fldiv@a+1)& (0+255),w,b
  4509   012B2E  113E               	iorwf	(___fldiv@a+2)& (0+255),w,b
  4510   012B30  113F               	iorwf	(___fldiv@a+3)& (0+255),w,b
  4511   012B32  A4D8               	btfss	status,2,c
  4512   012B34  EF9E  F095         	goto	u5771
  4513   012B38  EFA0  F095         	goto	u5770
  4514   012B3C                     u5771:
  4515   012B3C  EFB8  F095         	goto	l5637
  4516   012B40                     u5770:
  4517   012B40                     
  4518                           ; BSR set to: 1
  4519   012B40  0E00               	movlw	0
  4520   012B42  6F38               	movwf	___fldiv@b& (0+255),b
  4521   012B44  0E00               	movlw	0
  4522   012B46  6F39               	movwf	(___fldiv@b+1)& (0+255),b
  4523   012B48  0E00               	movlw	0
  4524   012B4A  6F3A               	movwf	(___fldiv@b+2)& (0+255),b
  4525   012B4C  0E00               	movlw	0
  4526   012B4E  6F3B               	movwf	(___fldiv@b+3)& (0+255),b
  4527   012B50                     
  4528                           ; BSR set to: 1
  4529   012B50  0E80               	movlw	128
  4530   012B52  133A               	iorwf	(___fldiv@b+2)& (0+255),f,b
  4531   012B54  0E7F               	movlw	127
  4532   012B56  133B               	iorwf	(___fldiv@b+3)& (0+255),f,b
  4533   012B58                     l5631:
  4534                           
  4535                           ; BSR set to: 1
  4536   012B58  5148               	movf	___fldiv@sign& (0+255),w,b
  4537   012B5A  133B               	iorwf	(___fldiv@b+3)& (0+255),f,b
  4538   012B5C                     
  4539                           ; BSR set to: 1
  4540   012B5C  C138  F138         	movff	___fldiv@b,?___fldiv
  4541   012B60  C139  F139         	movff	___fldiv@b+1,?___fldiv+1
  4542   012B64  C13A  F13A         	movff	___fldiv@b+2,?___fldiv+2
  4543   012B68  C13B  F13B         	movff	___fldiv@b+3,?___fldiv+3
  4544   012B6C  EFFB  F096         	goto	l1631
  4545   012B70                     l5637:
  4546                           
  4547                           ; BSR set to: 1
  4548   012B70  514F               	movf	___fldiv@bexp& (0+255),w,b
  4549   012B72  A4D8               	btfss	status,2,c
  4550   012B74  EFBE  F095         	goto	u5781
  4551   012B78  EFC0  F095         	goto	u5780
  4552   012B7C                     u5781:
  4553   012B7C  EFCA  F095         	goto	l5645
  4554   012B80                     u5780:
  4555   012B80                     
  4556                           ; BSR set to: 1
  4557   012B80  0E00               	movlw	0
  4558   012B82  6F38               	movwf	?___fldiv& (0+255),b
  4559   012B84  0E00               	movlw	0
  4560   012B86  6F39               	movwf	(?___fldiv+1)& (0+255),b
  4561   012B88  0E00               	movlw	0
  4562   012B8A  6F3A               	movwf	(?___fldiv+2)& (0+255),b
  4563   012B8C  0E00               	movlw	0
  4564   012B8E  6F3B               	movwf	(?___fldiv+3)& (0+255),b
  4565   012B90  EFFB  F096         	goto	l1631
  4566   012B94                     l5645:
  4567                           
  4568                           ; BSR set to: 1
  4569   012B94  5150               	movf	___fldiv@aexp& (0+255),w,b
  4570   012B96  C14F  F140         	movff	___fldiv@bexp,??___fldiv
  4571   012B9A  6B41               	clrf	(??___fldiv+1)& (0+255),b
  4572   012B9C  5F40               	subwf	??___fldiv& (0+255),f,b
  4573   012B9E  0E00               	movlw	0
  4574   012BA0  5B41               	subwfb	(??___fldiv+1)& (0+255),f,b
  4575   012BA2  0E7F               	movlw	127
  4576   012BA4  2540               	addwf	??___fldiv& (0+255),w,b
  4577   012BA6  6F49               	movwf	___fldiv@new_exp& (0+255),b
  4578   012BA8  0E00               	movlw	0
  4579   012BAA  2141               	addwfc	(??___fldiv+1)& (0+255),w,b
  4580   012BAC  6F4A               	movwf	(___fldiv@new_exp+1)& (0+255),b
  4581   012BAE                     
  4582                           ; BSR set to: 1
  4583   012BAE  C138  F144         	movff	___fldiv@b,___fldiv@rem
  4584   012BB2  C139  F145         	movff	___fldiv@b+1,___fldiv@rem+1
  4585   012BB6  C13A  F146         	movff	___fldiv@b+2,___fldiv@rem+2
  4586   012BBA  C13B  F147         	movff	___fldiv@b+3,___fldiv@rem+3
  4587   012BBE                     
  4588                           ; BSR set to: 1
  4589   012BBE  0E00               	movlw	0
  4590   012BC0  6F38               	movwf	___fldiv@b& (0+255),b
  4591   012BC2  0E00               	movlw	0
  4592   012BC4  6F39               	movwf	(___fldiv@b+1)& (0+255),b
  4593   012BC6  0E00               	movlw	0
  4594   012BC8  6F3A               	movwf	(___fldiv@b+2)& (0+255),b
  4595   012BCA  0E00               	movlw	0
  4596   012BCC  6F3B               	movwf	(___fldiv@b+3)& (0+255),b
  4597   012BCE                     
  4598                           ; BSR set to: 1
  4599   012BCE  0E00               	movlw	0
  4600   012BD0  6F4B               	movwf	___fldiv@grs& (0+255),b
  4601   012BD2  0E00               	movlw	0
  4602   012BD4  6F4C               	movwf	(___fldiv@grs+1)& (0+255),b
  4603   012BD6  0E00               	movlw	0
  4604   012BD8  6F4D               	movwf	(___fldiv@grs+2)& (0+255),b
  4605   012BDA  0E00               	movlw	0
  4606   012BDC  6F4E               	movwf	(___fldiv@grs+3)& (0+255),b
  4607   012BDE                     
  4608                           ; BSR set to: 1
  4609   012BDE  0E00               	movlw	0
  4610   012BE0  6F50               	movwf	___fldiv@aexp& (0+255),b
  4611   012BE2  EF2B  F096         	goto	l1633
  4612   012BE6                     l5655:
  4613                           
  4614                           ; BSR set to: 1
  4615   012BE6  5150               	movf	___fldiv@aexp& (0+255),w,b
  4616   012BE8  B4D8               	btfsc	status,2,c
  4617   012BEA  EFF9  F095         	goto	u5791
  4618   012BEE  EFFB  F095         	goto	u5790
  4619   012BF2                     u5791:
  4620   012BF2  EF12  F096         	goto	l5663
  4621   012BF6                     u5790:
  4622   012BF6                     
  4623                           ; BSR set to: 1
  4624   012BF6  90D8               	bcf	status,0,c
  4625   012BF8  3744               	rlcf	___fldiv@rem& (0+255),f,b
  4626   012BFA  3745               	rlcf	(___fldiv@rem+1)& (0+255),f,b
  4627   012BFC  3746               	rlcf	(___fldiv@rem+2)& (0+255),f,b
  4628   012BFE  3747               	rlcf	(___fldiv@rem+3)& (0+255),f,b
  4629   012C00  90D8               	bcf	status,0,c
  4630   012C02  3738               	rlcf	___fldiv@b& (0+255),f,b
  4631   012C04  3739               	rlcf	(___fldiv@b+1)& (0+255),f,b
  4632   012C06  373A               	rlcf	(___fldiv@b+2)& (0+255),f,b
  4633   012C08  373B               	rlcf	(___fldiv@b+3)& (0+255),f,b
  4634   012C0A                     
  4635                           ; BSR set to: 1
  4636   012C0A  AF4E               	btfss	(___fldiv@grs+3)& (0+255),7,b
  4637   012C0C  EF0A  F096         	goto	u5801
  4638   012C10  EF0C  F096         	goto	u5800
  4639   012C14                     u5801:
  4640   012C14  EF0D  F096         	goto	l1636
  4641   012C18                     u5800:
  4642   012C18                     
  4643                           ; BSR set to: 1
  4644   012C18  8138               	bsf	___fldiv@b& (0+255),0,b
  4645   012C1A                     l1636:
  4646                           
  4647                           ; BSR set to: 1
  4648   012C1A  90D8               	bcf	status,0,c
  4649   012C1C  374B               	rlcf	___fldiv@grs& (0+255),f,b
  4650   012C1E  374C               	rlcf	(___fldiv@grs+1)& (0+255),f,b
  4651   012C20  374D               	rlcf	(___fldiv@grs+2)& (0+255),f,b
  4652   012C22  374E               	rlcf	(___fldiv@grs+3)& (0+255),f,b
  4653   012C24                     l5663:
  4654                           
  4655                           ; BSR set to: 1
  4656   012C24  513C               	movf	___fldiv@a& (0+255),w,b
  4657   012C26  5D44               	subwf	___fldiv@rem& (0+255),w,b
  4658   012C28  513D               	movf	(___fldiv@a+1)& (0+255),w,b
  4659   012C2A  5945               	subwfb	(___fldiv@rem+1)& (0+255),w,b
  4660   012C2C  513E               	movf	(___fldiv@a+2)& (0+255),w,b
  4661   012C2E  5946               	subwfb	(___fldiv@rem+2)& (0+255),w,b
  4662   012C30  513F               	movf	(___fldiv@a+3)& (0+255),w,b
  4663   012C32  5947               	subwfb	(___fldiv@rem+3)& (0+255),w,b
  4664   012C34  A0D8               	btfss	status,0,c
  4665   012C36  EF1F  F096         	goto	u5811
  4666   012C3A  EF21  F096         	goto	u5810
  4667   012C3E                     u5811:
  4668   012C3E  EF2A  F096         	goto	l5669
  4669   012C42                     u5810:
  4670   012C42                     
  4671                           ; BSR set to: 1
  4672   012C42  8D4E               	bsf	(___fldiv@grs+3)& (0+255),6,b
  4673   012C44                     
  4674                           ; BSR set to: 1
  4675   012C44  513C               	movf	___fldiv@a& (0+255),w,b
  4676   012C46  5F44               	subwf	___fldiv@rem& (0+255),f,b
  4677   012C48  513D               	movf	(___fldiv@a+1)& (0+255),w,b
  4678   012C4A  5B45               	subwfb	(___fldiv@rem+1)& (0+255),f,b
  4679   012C4C  513E               	movf	(___fldiv@a+2)& (0+255),w,b
  4680   012C4E  5B46               	subwfb	(___fldiv@rem+2)& (0+255),f,b
  4681   012C50  513F               	movf	(___fldiv@a+3)& (0+255),w,b
  4682   012C52  5B47               	subwfb	(___fldiv@rem+3)& (0+255),f,b
  4683   012C54                     l5669:
  4684                           
  4685                           ; BSR set to: 1
  4686   012C54  2B50               	incf	___fldiv@aexp& (0+255),f,b
  4687   012C56                     l1633:
  4688                           
  4689                           ; BSR set to: 1
  4690   012C56  0E19               	movlw	25
  4691   012C58  6550               	cpfsgt	___fldiv@aexp& (0+255),b
  4692   012C5A  EF31  F096         	goto	u5821
  4693   012C5E  EF33  F096         	goto	u5820
  4694   012C62                     u5821:
  4695   012C62  EFF3  F095         	goto	l5655
  4696   012C66                     u5820:
  4697   012C66                     
  4698                           ; BSR set to: 1
  4699   012C66  5144               	movf	___fldiv@rem& (0+255),w,b
  4700   012C68  1145               	iorwf	(___fldiv@rem+1)& (0+255),w,b
  4701   012C6A  1146               	iorwf	(___fldiv@rem+2)& (0+255),w,b
  4702   012C6C  1147               	iorwf	(___fldiv@rem+3)& (0+255),w,b
  4703   012C6E  B4D8               	btfsc	status,2,c
  4704   012C70  EF3C  F096         	goto	u5831
  4705   012C74  EF3E  F096         	goto	u5830
  4706   012C78                     u5831:
  4707   012C78  EF56  F096         	goto	l5681
  4708   012C7C                     u5830:
  4709   012C7C                     
  4710                           ; BSR set to: 1
  4711   012C7C  814B               	bsf	___fldiv@grs& (0+255),0,b
  4712   012C7E  EF56  F096         	goto	l5681
  4713   012C82                     l5675:
  4714                           
  4715                           ; BSR set to: 1
  4716   012C82  90D8               	bcf	status,0,c
  4717   012C84  3738               	rlcf	___fldiv@b& (0+255),f,b
  4718   012C86  3739               	rlcf	(___fldiv@b+1)& (0+255),f,b
  4719   012C88  373A               	rlcf	(___fldiv@b+2)& (0+255),f,b
  4720   012C8A  373B               	rlcf	(___fldiv@b+3)& (0+255),f,b
  4721   012C8C                     
  4722                           ; BSR set to: 1
  4723   012C8C  AF4E               	btfss	(___fldiv@grs+3)& (0+255),7,b
  4724   012C8E  EF4B  F096         	goto	u5841
  4725   012C92  EF4D  F096         	goto	u5840
  4726   012C96                     u5841:
  4727   012C96  EF4E  F096         	goto	l1642
  4728   012C9A                     u5840:
  4729   012C9A                     
  4730                           ; BSR set to: 1
  4731   012C9A  8138               	bsf	___fldiv@b& (0+255),0,b
  4732   012C9C                     l1642:
  4733                           
  4734                           ; BSR set to: 1
  4735   012C9C  90D8               	bcf	status,0,c
  4736   012C9E  374B               	rlcf	___fldiv@grs& (0+255),f,b
  4737   012CA0  374C               	rlcf	(___fldiv@grs+1)& (0+255),f,b
  4738   012CA2  374D               	rlcf	(___fldiv@grs+2)& (0+255),f,b
  4739   012CA4  374E               	rlcf	(___fldiv@grs+3)& (0+255),f,b
  4740   012CA6  0749               	decf	___fldiv@new_exp& (0+255),f,b
  4741   012CA8  A0D8               	btfss	status,0,c
  4742   012CAA  074A               	decf	(___fldiv@new_exp+1)& (0+255),f,b
  4743   012CAC                     l5681:
  4744                           
  4745                           ; BSR set to: 1
  4746   012CAC  AF3A               	btfss	(___fldiv@b+2)& (0+255),7,b
  4747   012CAE  EF5B  F096         	goto	u5851
  4748   012CB2  EF5D  F096         	goto	u5850
  4749   012CB6                     u5851:
  4750   012CB6  EF41  F096         	goto	l5675
  4751   012CBA                     u5850:
  4752   012CBA                     
  4753                           ; BSR set to: 1
  4754   012CBA  0E00               	movlw	0
  4755   012CBC  6F50               	movwf	___fldiv@aexp& (0+255),b
  4756   012CBE                     
  4757                           ; BSR set to: 1
  4758   012CBE  AF4E               	btfss	(___fldiv@grs+3)& (0+255),7,b
  4759   012CC0  EF64  F096         	goto	u5861
  4760   012CC4  EF66  F096         	goto	u5860
  4761   012CC8                     u5861:
  4762   012CC8  EF8A  F096         	goto	l1644
  4763   012CCC                     u5860:
  4764   012CCC                     
  4765                           ; BSR set to: 1
  4766   012CCC  0EFF               	movlw	255
  4767   012CCE  154B               	andwf	___fldiv@grs& (0+255),w,b
  4768   012CD0  6F40               	movwf	??___fldiv& (0+255),b
  4769   012CD2  0EFF               	movlw	255
  4770   012CD4  154C               	andwf	(___fldiv@grs+1)& (0+255),w,b
  4771   012CD6  6F41               	movwf	(??___fldiv+1)& (0+255),b
  4772   012CD8  0EFF               	movlw	255
  4773   012CDA  154D               	andwf	(___fldiv@grs+2)& (0+255),w,b
  4774   012CDC  6F42               	movwf	(??___fldiv+2)& (0+255),b
  4775   012CDE  0E7F               	movlw	127
  4776   012CE0  154E               	andwf	(___fldiv@grs+3)& (0+255),w,b
  4777   012CE2  6F43               	movwf	(??___fldiv+3)& (0+255),b
  4778   012CE4  5140               	movf	??___fldiv& (0+255),w,b
  4779   012CE6  1141               	iorwf	(??___fldiv+1)& (0+255),w,b
  4780   012CE8  1142               	iorwf	(??___fldiv+2)& (0+255),w,b
  4781   012CEA  1143               	iorwf	(??___fldiv+3)& (0+255),w,b
  4782   012CEC  B4D8               	btfsc	status,2,c
  4783   012CEE  EF7B  F096         	goto	u5871
  4784   012CF2  EF7D  F096         	goto	u5870
  4785   012CF6                     u5871:
  4786   012CF6  EF81  F096         	goto	l1645
  4787   012CFA                     u5870:
  4788   012CFA                     l5689:
  4789                           
  4790                           ; BSR set to: 1
  4791   012CFA  0E01               	movlw	1
  4792   012CFC  6F50               	movwf	___fldiv@aexp& (0+255),b
  4793   012CFE  EF8A  F096         	goto	l1644
  4794   012D02                     l1645:
  4795                           
  4796                           ; BSR set to: 1
  4797   012D02  A138               	btfss	___fldiv@b& (0+255),0,b
  4798   012D04  EF86  F096         	goto	u5881
  4799   012D08  EF88  F096         	goto	u5880
  4800   012D0C                     u5881:
  4801   012D0C  EF8A  F096         	goto	l1644
  4802   012D10                     u5880:
  4803   012D10  EF7D  F096         	goto	l5689
  4804   012D14                     l1644:
  4805                           
  4806                           ; BSR set to: 1
  4807   012D14  5150               	movf	___fldiv@aexp& (0+255),w,b
  4808   012D16  B4D8               	btfsc	status,2,c
  4809   012D18  EF90  F096         	goto	u5891
  4810   012D1C  EF92  F096         	goto	u5890
  4811   012D20                     u5891:
  4812   012D20  EFB6  F096         	goto	l5701
  4813   012D24                     u5890:
  4814   012D24                     
  4815                           ; BSR set to: 1
  4816   012D24  0E01               	movlw	1
  4817   012D26  2738               	addwf	___fldiv@b& (0+255),f,b
  4818   012D28  0E00               	movlw	0
  4819   012D2A  2339               	addwfc	(___fldiv@b+1)& (0+255),f,b
  4820   012D2C  233A               	addwfc	(___fldiv@b+2)& (0+255),f,b
  4821   012D2E  233B               	addwfc	(___fldiv@b+3)& (0+255),f,b
  4822   012D30                     
  4823                           ; BSR set to: 1
  4824   012D30  A13B               	btfss	(___fldiv@b+3)& (0+255),0,b
  4825   012D32  EF9D  F096         	goto	u5901
  4826   012D36  EF9F  F096         	goto	u5900
  4827   012D3A                     u5901:
  4828   012D3A  EFB6  F096         	goto	l5701
  4829   012D3E                     u5900:
  4830   012D3E                     
  4831                           ; BSR set to: 1
  4832   012D3E  C138  F140         	movff	___fldiv@b,??___fldiv
  4833   012D42  C139  F141         	movff	___fldiv@b+1,??___fldiv+1
  4834   012D46  C13A  F142         	movff	___fldiv@b+2,??___fldiv+2
  4835   012D4A  C13B  F143         	movff	___fldiv@b+3,??___fldiv+3
  4836   012D4E  3543               	rlcf	(??___fldiv+3)& (0+255),w,b
  4837   012D50  3343               	rrcf	(??___fldiv+3)& (0+255),f,b
  4838   012D52  3342               	rrcf	(??___fldiv+2)& (0+255),f,b
  4839   012D54  3341               	rrcf	(??___fldiv+1)& (0+255),f,b
  4840   012D56  3340               	rrcf	??___fldiv& (0+255),f,b
  4841   012D58  C140  F138         	movff	??___fldiv,___fldiv@b
  4842   012D5C  C141  F139         	movff	??___fldiv+1,___fldiv@b+1
  4843   012D60  C142  F13A         	movff	??___fldiv+2,___fldiv@b+2
  4844   012D64  C143  F13B         	movff	??___fldiv+3,___fldiv@b+3
  4845   012D68                     
  4846                           ; BSR set to: 1
  4847   012D68  4B49               	infsnz	___fldiv@new_exp& (0+255),f,b
  4848   012D6A  2B4A               	incf	(___fldiv@new_exp+1)& (0+255),f,b
  4849   012D6C                     l5701:
  4850                           
  4851                           ; BSR set to: 1
  4852   012D6C  BF4A               	btfsc	(___fldiv@new_exp+1)& (0+255),7,b
  4853   012D6E  EFC1  F096         	goto	u5911
  4854   012D72  514A               	movf	(___fldiv@new_exp+1)& (0+255),w,b
  4855   012D74  E108               	bnz	u5910
  4856   012D76  2949               	incf	___fldiv@new_exp& (0+255),w,b
  4857   012D78  A0D8               	btfss	status,0,c
  4858   012D7A  EFC1  F096         	goto	u5911
  4859   012D7E  EFC3  F096         	goto	u5910
  4860   012D82                     u5911:
  4861   012D82  EFCE  F096         	goto	l5705
  4862   012D86                     u5910:
  4863   012D86                     
  4864                           ; BSR set to: 1
  4865   012D86  0E00               	movlw	0
  4866   012D88  6F4A               	movwf	(___fldiv@new_exp+1)& (0+255),b
  4867   012D8A  6949               	setf	___fldiv@new_exp& (0+255),b
  4868   012D8C  0E00               	movlw	0
  4869   012D8E  6F38               	movwf	___fldiv@b& (0+255),b
  4870   012D90  0E00               	movlw	0
  4871   012D92  6F39               	movwf	(___fldiv@b+1)& (0+255),b
  4872   012D94  0E00               	movlw	0
  4873   012D96  6F3A               	movwf	(___fldiv@b+2)& (0+255),b
  4874   012D98  0E00               	movlw	0
  4875   012D9A  6F3B               	movwf	(___fldiv@b+3)& (0+255),b
  4876   012D9C                     l5705:
  4877                           
  4878                           ; BSR set to: 1
  4879   012D9C  BF4A               	btfsc	(___fldiv@new_exp+1)& (0+255),7,b
  4880   012D9E  EFDB  F096         	goto	u5920
  4881   012DA2  514A               	movf	(___fldiv@new_exp+1)& (0+255),w,b
  4882   012DA4  E106               	bnz	u5921
  4883   012DA6  0549               	decf	___fldiv@new_exp& (0+255),w,b
  4884   012DA8  B0D8               	btfsc	status,0,c
  4885   012DAA  EFD9  F096         	goto	u5921
  4886   012DAE  EFDB  F096         	goto	u5920
  4887   012DB2                     u5921:
  4888   012DB2  EFE9  F096         	goto	l5709
  4889   012DB6                     u5920:
  4890   012DB6                     
  4891                           ; BSR set to: 1
  4892   012DB6  0E00               	movlw	0
  4893   012DB8  6F4A               	movwf	(___fldiv@new_exp+1)& (0+255),b
  4894   012DBA  0E00               	movlw	0
  4895   012DBC  6F49               	movwf	___fldiv@new_exp& (0+255),b
  4896   012DBE  0E00               	movlw	0
  4897   012DC0  6F38               	movwf	___fldiv@b& (0+255),b
  4898   012DC2  0E00               	movlw	0
  4899   012DC4  6F39               	movwf	(___fldiv@b+1)& (0+255),b
  4900   012DC6  0E00               	movlw	0
  4901   012DC8  6F3A               	movwf	(___fldiv@b+2)& (0+255),b
  4902   012DCA  0E00               	movlw	0
  4903   012DCC  6F3B               	movwf	(___fldiv@b+3)& (0+255),b
  4904   012DCE  0E00               	movlw	0
  4905   012DD0  6F48               	movwf	___fldiv@sign& (0+255),b
  4906   012DD2                     l5709:
  4907                           
  4908                           ; BSR set to: 1
  4909   012DD2  C149  F14F         	movff	___fldiv@new_exp,___fldiv@bexp
  4910   012DD6                     
  4911                           ; BSR set to: 1
  4912   012DD6  A14F               	btfss	___fldiv@bexp& (0+255),0,b
  4913   012DD8  EFF0  F096         	goto	u5931
  4914   012DDC  EFF2  F096         	goto	u5930
  4915   012DE0                     u5931:
  4916   012DE0  EFF5  F096         	goto	l5715
  4917   012DE4                     u5930:
  4918   012DE4                     
  4919                           ; BSR set to: 1
  4920   012DE4  8F3A               	bsf	(___fldiv@b+2)& (0+255),7,b
  4921   012DE6  EFF6  F096         	goto	l5717
  4922   012DEA                     l5715:
  4923                           
  4924                           ; BSR set to: 1
  4925   012DEA  9F3A               	bcf	(___fldiv@b+2)& (0+255),7,b
  4926   012DEC                     l5717:
  4927                           
  4928                           ; BSR set to: 1
  4929   012DEC  90D8               	bcf	status,0,c
  4930   012DEE  314F               	rrcf	___fldiv@bexp& (0+255),w,b
  4931   012DF0  6F3B               	movwf	(___fldiv@b+3)& (0+255),b
  4932   012DF2  EFAC  F095         	goto	l5631
  4933   012DF6                     l1631:
  4934                           
  4935                           ; BSR set to: 1
  4936   012DF6  0012               	return		;funcret
  4937   012DF8                     __end_of___fldiv:
  4938                           	callstack 0
  4939                           
  4940 ;; *************** function ___aldiv *****************
  4941 ;; Defined at:
  4942 ;;		line 7 in file "C:\Program Files\Microchip\xc8\v2.46\pic\sources\c99\common\aldiv.c"
  4943 ;; Parameters:    Size  Location     Type
  4944 ;;  dividend        4   42[BANK1 ] long 
  4945 ;;  divisor         4   46[BANK1 ] long 
  4946 ;; Auto vars:     Size  Location     Type
  4947 ;;  quotient        4   52[BANK1 ] long 
  4948 ;;  sign            1   51[BANK1 ] unsigned char 
  4949 ;;  counter         1   50[BANK1 ] unsigned char 
  4950 ;; Return value:  Size  Location     Type
  4951 ;;                  4   42[BANK1 ] long 
  4952 ;; Registers used:
  4953 ;;		wreg, status,2, status,0
  4954 ;; Tracked objects:
  4955 ;;		On entry : 0/0
  4956 ;;		On exit  : 0/0
  4957 ;;		Unchanged: 0/0
  4958 ;; Data sizes:     COMRAM   BANK0   BANK1   BANK2   BANK3   BANK4   BANK5   BANK6   BANK7   BANK8   BANK9  BANK10  BANK1
      +1  BANK12  BANK13  BANK14
  4959 ;;      Params:         0       0       8       0       0       0       0       0       0       0       0       0       
      +0       0       0       0
  4960 ;;      Locals:         0       0       6       0       0       0       0       0       0       0       0       0       
      +0       0       0       0
  4961 ;;      Temps:          0       0       0       0       0       0       0       0       0       0       0       0       
      +0       0       0       0
  4962 ;;      Totals:         0       0      14       0       0       0       0       0       0       0       0       0       
      +0       0       0       0
  4963 ;;Total ram usage:       14 bytes
  4964 ;; Hardware stack levels used: 1
  4965 ;; Hardware stack levels required when called: 6
  4966 ;; This function calls:
  4967 ;;		Nothing
  4968 ;; This function is called by:
  4969 ;;		_Compass_Calibre
  4970 ;; This function uses a non-reentrant model
  4971 ;;
  4972                           
  4973                           	psect	text11
  4974   013956                     __ptext11:
  4975                           	callstack 0
  4976   013956                     ___aldiv:
  4977                           	callstack 22
  4978   013956  0E00               	movlw	0
  4979   013958  0101               	movlb	1	; () banked
  4980   01395A  6F33               	movwf	___aldiv@sign& (0+255),b
  4981   01395C                     
  4982                           ; BSR set to: 1
  4983   01395C  BF31               	btfsc	(___aldiv@divisor+3)& (0+255),7,b
  4984   01395E  EFB5  F09C         	goto	u5650
  4985   013962  EFB3  F09C         	goto	u5651
  4986   013966                     u5651:
  4987   013966  EFBF  F09C         	goto	l5551
  4988   01396A                     u5650:
  4989   01396A                     
  4990                           ; BSR set to: 1
  4991   01396A  1F31               	comf	(___aldiv@divisor+3)& (0+255),f,b
  4992   01396C  1F30               	comf	(___aldiv@divisor+2)& (0+255),f,b
  4993   01396E  1F2F               	comf	(___aldiv@divisor+1)& (0+255),f,b
  4994   013970  6D2E               	negf	___aldiv@divisor& (0+255),b
  4995   013972  0E00               	movlw	0
  4996   013974  232F               	addwfc	(___aldiv@divisor+1)& (0+255),f,b
  4997   013976  2330               	addwfc	(___aldiv@divisor+2)& (0+255),f,b
  4998   013978  2331               	addwfc	(___aldiv@divisor+3)& (0+255),f,b
  4999   01397A                     
  5000                           ; BSR set to: 1
  5001   01397A  0E01               	movlw	1
  5002   01397C  6F33               	movwf	___aldiv@sign& (0+255),b
  5003   01397E                     l5551:
  5004                           
  5005                           ; BSR set to: 1
  5006   01397E  BF2D               	btfsc	(___aldiv@dividend+3)& (0+255),7,b
  5007   013980  EFC6  F09C         	goto	u5660
  5008   013984  EFC4  F09C         	goto	u5661
  5009   013988                     u5661:
  5010   013988  EFD0  F09C         	goto	l5557
  5011   01398C                     u5660:
  5012   01398C                     
  5013                           ; BSR set to: 1
  5014   01398C  1F2D               	comf	(___aldiv@dividend+3)& (0+255),f,b
  5015   01398E  1F2C               	comf	(___aldiv@dividend+2)& (0+255),f,b
  5016   013990  1F2B               	comf	(___aldiv@dividend+1)& (0+255),f,b
  5017   013992  6D2A               	negf	___aldiv@dividend& (0+255),b
  5018   013994  0E00               	movlw	0
  5019   013996  232B               	addwfc	(___aldiv@dividend+1)& (0+255),f,b
  5020   013998  232C               	addwfc	(___aldiv@dividend+2)& (0+255),f,b
  5021   01399A  232D               	addwfc	(___aldiv@dividend+3)& (0+255),f,b
  5022   01399C                     
  5023                           ; BSR set to: 1
  5024   01399C  0E01               	movlw	1
  5025   01399E  1B33               	xorwf	___aldiv@sign& (0+255),f,b
  5026   0139A0                     l5557:
  5027                           
  5028                           ; BSR set to: 1
  5029   0139A0  0E00               	movlw	0
  5030   0139A2  6F34               	movwf	___aldiv@quotient& (0+255),b
  5031   0139A4  0E00               	movlw	0
  5032   0139A6  6F35               	movwf	(___aldiv@quotient+1)& (0+255),b
  5033   0139A8  0E00               	movlw	0
  5034   0139AA  6F36               	movwf	(___aldiv@quotient+2)& (0+255),b
  5035   0139AC  0E00               	movlw	0
  5036   0139AE  6F37               	movwf	(___aldiv@quotient+3)& (0+255),b
  5037   0139B0                     
  5038                           ; BSR set to: 1
  5039   0139B0  512E               	movf	___aldiv@divisor& (0+255),w,b
  5040   0139B2  112F               	iorwf	(___aldiv@divisor+1)& (0+255),w,b
  5041   0139B4  1130               	iorwf	(___aldiv@divisor+2)& (0+255),w,b
  5042   0139B6  1131               	iorwf	(___aldiv@divisor+3)& (0+255),w,b
  5043   0139B8  B4D8               	btfsc	status,2,c
  5044   0139BA  EFE1  F09C         	goto	u5671
  5045   0139BE  EFE3  F09C         	goto	u5670
  5046   0139C2                     u5671:
  5047   0139C2  EF19  F09D         	goto	l5579
  5048   0139C6                     u5670:
  5049   0139C6                     
  5050                           ; BSR set to: 1
  5051   0139C6  0E01               	movlw	1
  5052   0139C8  6F32               	movwf	___aldiv@counter& (0+255),b
  5053   0139CA  EFED  F09C         	goto	l5565
  5054   0139CE                     l5563:
  5055                           
  5056                           ; BSR set to: 1
  5057   0139CE  90D8               	bcf	status,0,c
  5058   0139D0  372E               	rlcf	___aldiv@divisor& (0+255),f,b
  5059   0139D2  372F               	rlcf	(___aldiv@divisor+1)& (0+255),f,b
  5060   0139D4  3730               	rlcf	(___aldiv@divisor+2)& (0+255),f,b
  5061   0139D6  3731               	rlcf	(___aldiv@divisor+3)& (0+255),f,b
  5062   0139D8  2B32               	incf	___aldiv@counter& (0+255),f,b
  5063   0139DA                     l5565:
  5064                           
  5065                           ; BSR set to: 1
  5066   0139DA  AF31               	btfss	(___aldiv@divisor+3)& (0+255),7,b
  5067   0139DC  EFF2  F09C         	goto	u5681
  5068   0139E0  EFF4  F09C         	goto	u5680
  5069   0139E4                     u5681:
  5070   0139E4  EFE7  F09C         	goto	l5563
  5071   0139E8                     u5680:
  5072   0139E8                     l5567:
  5073                           
  5074                           ; BSR set to: 1
  5075   0139E8  90D8               	bcf	status,0,c
  5076   0139EA  3734               	rlcf	___aldiv@quotient& (0+255),f,b
  5077   0139EC  3735               	rlcf	(___aldiv@quotient+1)& (0+255),f,b
  5078   0139EE  3736               	rlcf	(___aldiv@quotient+2)& (0+255),f,b
  5079   0139F0  3737               	rlcf	(___aldiv@quotient+3)& (0+255),f,b
  5080   0139F2                     
  5081                           ; BSR set to: 1
  5082   0139F2  512E               	movf	___aldiv@divisor& (0+255),w,b
  5083   0139F4  5D2A               	subwf	___aldiv@dividend& (0+255),w,b
  5084   0139F6  512F               	movf	(___aldiv@divisor+1)& (0+255),w,b
  5085   0139F8  592B               	subwfb	(___aldiv@dividend+1)& (0+255),w,b
  5086   0139FA  5130               	movf	(___aldiv@divisor+2)& (0+255),w,b
  5087   0139FC  592C               	subwfb	(___aldiv@dividend+2)& (0+255),w,b
  5088   0139FE  5131               	movf	(___aldiv@divisor+3)& (0+255),w,b
  5089   013A00  592D               	subwfb	(___aldiv@dividend+3)& (0+255),w,b
  5090   013A02  A0D8               	btfss	status,0,c
  5091   013A04  EF06  F09D         	goto	u5691
  5092   013A08  EF08  F09D         	goto	u5690
  5093   013A0C                     u5691:
  5094   013A0C  EF11  F09D         	goto	l5575
  5095   013A10                     u5690:
  5096   013A10                     
  5097                           ; BSR set to: 1
  5098   013A10  512E               	movf	___aldiv@divisor& (0+255),w,b
  5099   013A12  5F2A               	subwf	___aldiv@dividend& (0+255),f,b
  5100   013A14  512F               	movf	(___aldiv@divisor+1)& (0+255),w,b
  5101   013A16  5B2B               	subwfb	(___aldiv@dividend+1)& (0+255),f,b
  5102   013A18  5130               	movf	(___aldiv@divisor+2)& (0+255),w,b
  5103   013A1A  5B2C               	subwfb	(___aldiv@dividend+2)& (0+255),f,b
  5104   013A1C  5131               	movf	(___aldiv@divisor+3)& (0+255),w,b
  5105   013A1E  5B2D               	subwfb	(___aldiv@dividend+3)& (0+255),f,b
  5106   013A20                     
  5107                           ; BSR set to: 1
  5108   013A20  8134               	bsf	___aldiv@quotient& (0+255),0,b
  5109   013A22                     l5575:
  5110                           
  5111                           ; BSR set to: 1
  5112   013A22  90D8               	bcf	status,0,c
  5113   013A24  3331               	rrcf	(___aldiv@divisor+3)& (0+255),f,b
  5114   013A26  3330               	rrcf	(___aldiv@divisor+2)& (0+255),f,b
  5115   013A28  332F               	rrcf	(___aldiv@divisor+1)& (0+255),f,b
  5116   013A2A  332E               	rrcf	___aldiv@divisor& (0+255),f,b
  5117   013A2C                     
  5118                           ; BSR set to: 1
  5119   013A2C  2F32               	decfsz	___aldiv@counter& (0+255),f,b
  5120   013A2E  EFF4  F09C         	goto	l5567
  5121   013A32                     l5579:
  5122                           
  5123                           ; BSR set to: 1
  5124   013A32  5133               	movf	___aldiv@sign& (0+255),w,b
  5125   013A34  B4D8               	btfsc	status,2,c
  5126   013A36  EF1F  F09D         	goto	u5701
  5127   013A3A  EF21  F09D         	goto	u5700
  5128   013A3E                     u5701:
  5129   013A3E  EF29  F09D         	goto	l5583
  5130   013A42                     u5700:
  5131   013A42                     
  5132                           ; BSR set to: 1
  5133   013A42  1F37               	comf	(___aldiv@quotient+3)& (0+255),f,b
  5134   013A44  1F36               	comf	(___aldiv@quotient+2)& (0+255),f,b
  5135   013A46  1F35               	comf	(___aldiv@quotient+1)& (0+255),f,b
  5136   013A48  6D34               	negf	___aldiv@quotient& (0+255),b
  5137   013A4A  0E00               	movlw	0
  5138   013A4C  2335               	addwfc	(___aldiv@quotient+1)& (0+255),f,b
  5139   013A4E  2336               	addwfc	(___aldiv@quotient+2)& (0+255),f,b
  5140   013A50  2337               	addwfc	(___aldiv@quotient+3)& (0+255),f,b
  5141   013A52                     l5583:
  5142                           
  5143                           ; BSR set to: 1
  5144   013A52  C134  F12A         	movff	___aldiv@quotient,?___aldiv
  5145   013A56  C135  F12B         	movff	___aldiv@quotient+1,?___aldiv+1
  5146   013A5A  C136  F12C         	movff	___aldiv@quotient+2,?___aldiv+2
  5147   013A5E  C137  F12D         	movff	___aldiv@quotient+3,?___aldiv+3
  5148   013A62                     
  5149                           ; BSR set to: 1
  5150   013A62  0012               	return		;funcret
  5151   013A64                     __end_of___aldiv:
  5152                           	callstack 0
  5153                           
  5154 ;; *************** function _SSP2_Write *****************
  5155 ;; Defined at:
  5156 ;;		line 81 in file "./Fonctions.c"
  5157 ;; Parameters:    Size  Location     Type
  5158 ;;  SSP2_ADD        1    wreg     unsigned char 
  5159 ;;  SSP2_REG        1   42[BANK1 ] unsigned char 
  5160 ;;  SSP2_DATA       1   43[BANK1 ] unsigned char 
  5161 ;; Auto vars:     Size  Location     Type
  5162 ;;  SSP2_ADD        1   44[BANK1 ] unsigned char 
  5163 ;; Return value:  Size  Location     Type
  5164 ;;                  1    wreg      void 
  5165 ;; Registers used:
  5166 ;;		wreg, status,2
  5167 ;; Tracked objects:
  5168 ;;		On entry : 0/0
  5169 ;;		On exit  : 0/0
  5170 ;;		Unchanged: 0/0
  5171 ;; Data sizes:     COMRAM   BANK0   BANK1   BANK2   BANK3   BANK4   BANK5   BANK6   BANK7   BANK8   BANK9  BANK10  BANK1
      +1  BANK12  BANK13  BANK14
  5172 ;;      Params:         0       0       2       0       0       0       0       0       0       0       0       0       
      +0       0       0       0
  5173 ;;      Locals:         0       0       1       0       0       0       0       0       0       0       0       0       
      +0       0       0       0
  5174 ;;      Temps:          0       0       0       0       0       0       0       0       0       0       0       0       
      +0       0       0       0
  5175 ;;      Totals:         0       0       3       0       0       0       0       0       0       0       0       0       
      +0       0       0       0
  5176 ;;Total ram usage:        3 bytes
  5177 ;; Hardware stack levels used: 1
  5178 ;; Hardware stack levels required when called: 6
  5179 ;; This function calls:
  5180 ;;		Nothing
  5181 ;; This function is called by:
  5182 ;;		_Compass_Init
  5183 ;;		_Compass_Calibre
  5184 ;; This function uses a non-reentrant model
  5185 ;;
  5186                           
  5187                           	psect	text12
  5188   014560                     __ptext12:
  5189                           	callstack 0
  5190   014560                     _SSP2_Write:
  5191                           	callstack 22
  5192                           
  5193                           ; BSR set to: 1
  5194                           ;incstack = 0
  5195                           ;SSP2_Write@SSP2_ADD stored from wreg
  5196   014560  0101               	movlb	1	; () banked
  5197   014562  6F2C               	movwf	SSP2_Write@SSP2_ADD& (0+255),b
  5198   014564                     
  5199                           ;./Fonctions.c: 81: void SSP2_Write (unsigned char SSP2_ADD, unsigned char SSP2_REG, uns
      +                          igned char SSP2_DATA);./Fonctions.c: 82: {;./Fonctions.c: 83:     CSSP2=0;
  5200   014564  0E00               	movlw	0
  5201   014566  6E46               	movwf	_CSSP2^0,c
  5202                           
  5203                           ;./Fonctions.c: 84:     READ=0;
  5204   014568  0E00               	movlw	0
  5205   01456A  6E45               	movwf	_READ^0,c
  5206                           
  5207                           ;./Fonctions.c: 85:     WRITE=1;
  5208   01456C  0E01               	movlw	1
  5209   01456E  6E44               	movwf	_WRITE^0,c
  5210   014570                     
  5211                           ;./Fonctions.c: 86:     SSP2_ADD_ISR=SSP2_ADD;
  5212   014570  C12C  F043         	movff	SSP2_Write@SSP2_ADD,_SSP2_ADD_ISR
  5213   014574                     
  5214                           ;./Fonctions.c: 87:     SSP2_REG_ISR=SSP2_REG;
  5215   014574  C12A  F042         	movff	SSP2_Write@SSP2_REG,_SSP2_REG_ISR
  5216   014578                     
  5217                           ;./Fonctions.c: 88:     SSP2_DATA_ISR=SSP2_DATA;
  5218   014578  C12B  F1C1         	movff	SSP2_Write@SSP2_DATA,_SSP2_DATA_ISR
  5219   01457C                     
  5220                           ;./Fonctions.c: 89:     SSP2CON2bits.SEN=1;
  5221   01457C  010E               	movlb	14	; () banked
  5222   01457E  8197               	bsf	151,0,b	;volatile
  5223   014580                     
  5224                           ; BSR set to: 14
  5225   014580  0012               	return		;funcret
  5226   014582                     __end_of_SSP2_Write:
  5227                           	callstack 0
  5228                           
  5229 ;; *************** function _SSP2_Read *****************
  5230 ;; Defined at:
  5231 ;;		line 92 in file "./Fonctions.c"
  5232 ;; Parameters:    Size  Location     Type
  5233 ;;  SSP2_ADD        1    wreg     unsigned char 
  5234 ;;  SSP2_REG        1   42[BANK1 ] unsigned char 
  5235 ;; Auto vars:     Size  Location     Type
  5236 ;;  SSP2_ADD        1   43[BANK1 ] unsigned char 
  5237 ;; Return value:  Size  Location     Type
  5238 ;;                  1    wreg      void 
  5239 ;; Registers used:
  5240 ;;		wreg, status,2
  5241 ;; Tracked objects:
  5242 ;;		On entry : 0/0
  5243 ;;		On exit  : 0/0
  5244 ;;		Unchanged: 0/0
  5245 ;; Data sizes:     COMRAM   BANK0   BANK1   BANK2   BANK3   BANK4   BANK5   BANK6   BANK7   BANK8   BANK9  BANK10  BANK1
      +1  BANK12  BANK13  BANK14
  5246 ;;      Params:         0       0       1       0       0       0       0       0       0       0       0       0       
      +0       0       0       0
  5247 ;;      Locals:         0       0       1       0       0       0       0       0       0       0       0       0       
      +0       0       0       0
  5248 ;;      Temps:          0       0       0       0       0       0       0       0       0       0       0       0       
      +0       0       0       0
  5249 ;;      Totals:         0       0       2       0       0       0       0       0       0       0       0       0       
      +0       0       0       0
  5250 ;;Total ram usage:        2 bytes
  5251 ;; Hardware stack levels used: 1
  5252 ;; Hardware stack levels required when called: 6
  5253 ;; This function calls:
  5254 ;;		Nothing
  5255 ;; This function is called by:
  5256 ;;		_Compass_Init
  5257 ;;		_Compass_Calibre
  5258 ;; This function uses a non-reentrant model
  5259 ;;
  5260                           
  5261                           	psect	text13
  5262   0145E4                     __ptext13:
  5263                           	callstack 0
  5264   0145E4                     _SSP2_Read:
  5265                           	callstack 22
  5266                           
  5267                           ; BSR set to: 14
  5268                           ;incstack = 0
  5269                           ;SSP2_Read@SSP2_ADD stored from wreg
  5270   0145E4  0101               	movlb	1	; () banked
  5271   0145E6  6F2B               	movwf	SSP2_Read@SSP2_ADD& (0+255),b
  5272   0145E8                     
  5273                           ;./Fonctions.c: 92: void SSP2_Read (unsigned char SSP2_ADD, unsigned char SSP2_REG);./Fo
      +                          nctions.c: 93: {;./Fonctions.c: 94:     CSSP2=0;
  5274   0145E8  0E00               	movlw	0
  5275   0145EA  6E46               	movwf	_CSSP2^0,c
  5276                           
  5277                           ;./Fonctions.c: 95:     READ=1;
  5278   0145EC  0E01               	movlw	1
  5279   0145EE  6E45               	movwf	_READ^0,c
  5280                           
  5281                           ;./Fonctions.c: 96:     WRITE=0;
  5282   0145F0  0E00               	movlw	0
  5283   0145F2  6E44               	movwf	_WRITE^0,c
  5284   0145F4                     
  5285                           ;./Fonctions.c: 97:     SSP2_ADD_ISR=SSP2_ADD;
  5286   0145F4  C12B  F043         	movff	SSP2_Read@SSP2_ADD,_SSP2_ADD_ISR
  5287   0145F8                     
  5288                           ;./Fonctions.c: 98:     SSP2_REG_ISR=SSP2_REG;
  5289   0145F8  C12A  F042         	movff	SSP2_Read@SSP2_REG,_SSP2_REG_ISR
  5290   0145FC                     
  5291                           ;./Fonctions.c: 99:     SSP2CON2bits.SEN=1;
  5292   0145FC  010E               	movlb	14	; () banked
  5293   0145FE  8197               	bsf	151,0,b	;volatile
  5294   014600                     
  5295                           ; BSR set to: 14
  5296   014600  0012               	return		;funcret
  5297   014602                     __end_of_SSP2_Read:
  5298                           	callstack 0
  5299                           
  5300 ;; *************** function _Motors_Turn_Angle *****************
  5301 ;; Defined at:
  5302 ;;		line 39 in file "./Fonctions.c"
  5303 ;; Parameters:    Size  Location     Type
  5304 ;;  angle           2  105[BANK1 ] short 
  5305 ;; Auto vars:     Size  Location     Type
  5306 ;;  erreurad        4  135[BANK1 ] long 
  5307 ;;  erreurag        4  131[BANK1 ] long 
  5308 ;;  anglefloat      4  127[BANK1 ] float 
  5309 ;;  coeff           4  123[BANK1 ] float 
  5310 ;;  encd            4  119[BANK1 ] long 
  5311 ;;  encg            4  115[BANK1 ] long 
  5312 ;; Return value:  Size  Location     Type
  5313 ;;                  1    wreg      void 
  5314 ;; Registers used:
  5315 ;;		wreg, status,2, status,0, prodl, prodh, cstack
  5316 ;; Tracked objects:
  5317 ;;		On entry : 0/0
  5318 ;;		On exit  : 0/0
  5319 ;;		Unchanged: 0/0
  5320 ;; Data sizes:     COMRAM   BANK0   BANK1   BANK2   BANK3   BANK4   BANK5   BANK6   BANK7   BANK8   BANK9  BANK10  BANK1
      +1  BANK12  BANK13  BANK14
  5321 ;;      Params:         0       0       2       0       0       0       0       0       0       0       0       0       
      +0       0       0       0
  5322 ;;      Locals:         0       0      24       0       0       0       0       0       0       0       0       0       
      +0       0       0       0
  5323 ;;      Temps:          0       0       8       0       0       0       0       0       0       0       0       0       
      +0       0       0       0
  5324 ;;      Totals:         0       0      34       0       0       0       0       0       0       0       0       0       
      +0       0       0       0
  5325 ;;Total ram usage:       34 bytes
  5326 ;; Hardware stack levels used: 1
  5327 ;; Hardware stack levels required when called: 8
  5328 ;; This function calls:
  5329 ;;		_Motors_Get_Enc_Left
  5330 ;;		_Motors_Get_Enc_Right
  5331 ;;		_Motors_Speed
  5332 ;;		___fladd
  5333 ;;		___flmul
  5334 ;;		___flsub
  5335 ;;		___fltol
  5336 ;;		___xxtofl
  5337 ;; This function is called by:
  5338 ;;		_Compass_Calibre
  5339 ;; This function uses a non-reentrant model
  5340 ;;
  5341                           
  5342                           	psect	text14
  5343   013194                     __ptext14:
  5344                           	callstack 0
  5345   013194                     _Motors_Turn_Angle:
  5346                           	callstack 20
  5347   013194                     
  5348                           ;./Fonctions.c: 39: void Motors_Turn_Angle (signed short angle);./Fonctions.c: 40: {;./F
      +                          onctions.c: 41:     signed long encg=Motors_Get_Enc_Left();
  5349   013194  EC39  F0A3         	call	_Motors_Get_Enc_Left	;wreg free
  5350   013198  C12A  F173         	movff	?_Motors_Get_Enc_Left,Motors_Turn_Angle@encg
  5351   01319C  C12B  F174         	movff	?_Motors_Get_Enc_Left+1,Motors_Turn_Angle@encg+1
  5352   0131A0  C12C  F175         	movff	?_Motors_Get_Enc_Left+2,Motors_Turn_Angle@encg+2
  5353   0131A4  C12D  F176         	movff	?_Motors_Get_Enc_Left+3,Motors_Turn_Angle@encg+3
  5354                           
  5355                           ;./Fonctions.c: 42:     signed long encd=Motors_Get_Enc_Right();
  5356   0131A8  EC30  F0A3         	call	_Motors_Get_Enc_Right	;wreg free
  5357   0131AC  C12A  F177         	movff	?_Motors_Get_Enc_Right,Motors_Turn_Angle@encd
  5358   0131B0  C12B  F178         	movff	?_Motors_Get_Enc_Right+1,Motors_Turn_Angle@encd+1
  5359   0131B4  C12C  F179         	movff	?_Motors_Get_Enc_Right+2,Motors_Turn_Angle@encd+2
  5360   0131B8  C12D  F17A         	movff	?_Motors_Get_Enc_Right+3,Motors_Turn_Angle@encd+3
  5361   0131BC                     
  5362                           ;./Fonctions.c: 43:     signed long erreurag=1;
  5363   0131BC  0E01               	movlw	1
  5364   0131BE  0101               	movlb	1	; () banked
  5365   0131C0  6F83               	movwf	Motors_Turn_Angle@erreurag& (0+255),b
  5366   0131C2  0E00               	movlw	0
  5367   0131C4  6F84               	movwf	(Motors_Turn_Angle@erreurag+1)& (0+255),b
  5368   0131C6  0E00               	movlw	0
  5369   0131C8  6F85               	movwf	(Motors_Turn_Angle@erreurag+2)& (0+255),b
  5370   0131CA  0E00               	movlw	0
  5371   0131CC  6F86               	movwf	(Motors_Turn_Angle@erreurag+3)& (0+255),b
  5372   0131CE                     
  5373                           ; BSR set to: 1
  5374                           ;./Fonctions.c: 44:     signed long erreurad=1;
  5375   0131CE  0E01               	movlw	1
  5376   0131D0  6F87               	movwf	Motors_Turn_Angle@erreurad& (0+255),b
  5377   0131D2  0E00               	movlw	0
  5378   0131D4  6F88               	movwf	(Motors_Turn_Angle@erreurad+1)& (0+255),b
  5379   0131D6  0E00               	movlw	0
  5380   0131D8  6F89               	movwf	(Motors_Turn_Angle@erreurad+2)& (0+255),b
  5381   0131DA  0E00               	movlw	0
  5382   0131DC  6F8A               	movwf	(Motors_Turn_Angle@erreurad+3)& (0+255),b
  5383   0131DE                     
  5384                           ; BSR set to: 1
  5385                           ;./Fonctions.c: 46:     float coeff=1.655;
  5386   0131DE  0E0A               	movlw	10
  5387   0131E0  6F7B               	movwf	Motors_Turn_Angle@coeff& (0+255),b
  5388   0131E2  0ED7               	movlw	215
  5389   0131E4  6F7C               	movwf	(Motors_Turn_Angle@coeff+1)& (0+255),b
  5390   0131E6  0ED3               	movlw	211
  5391   0131E8  6F7D               	movwf	(Motors_Turn_Angle@coeff+2)& (0+255),b
  5392   0131EA  0E3F               	movlw	63
  5393   0131EC  6F7E               	movwf	(Motors_Turn_Angle@coeff+3)& (0+255),b
  5394   0131EE                     
  5395                           ; BSR set to: 1
  5396                           ;./Fonctions.c: 47:     anglefloat=((float)(angle)*coeff)+resteturna;
  5397   0131EE  C17B  F13C         	movff	Motors_Turn_Angle@coeff,___flmul@a
  5398   0131F2  C17C  F13D         	movff	Motors_Turn_Angle@coeff+1,___flmul@a+1
  5399   0131F6  C17D  F13E         	movff	Motors_Turn_Angle@coeff+2,___flmul@a+2
  5400   0131FA  C17E  F13F         	movff	Motors_Turn_Angle@coeff+3,___flmul@a+3
  5401   0131FE  C169  F12A         	movff	Motors_Turn_Angle@angle,___xxtofl@val
  5402   013202  C16A  F12B         	movff	Motors_Turn_Angle@angle+1,___xxtofl@val+1
  5403   013206  0E00               	movlw	0
  5404   013208  BF2B               	btfsc	(___xxtofl@val+1)& (0+255),7,b
  5405   01320A  0EFF               	movlw	-1
  5406   01320C  6F2C               	movwf	(___xxtofl@val+2)& (0+255),b
  5407   01320E  6F2D               	movwf	(___xxtofl@val+3)& (0+255),b
  5408   013210  0E01               	movlw	1
  5409   013212  EC3D  F09A         	call	___xxtofl
  5410   013216  C12A  F138         	movff	?___xxtofl,___flmul@b
  5411   01321A  C12B  F139         	movff	?___xxtofl+1,___flmul@b+1
  5412   01321E  C12C  F13A         	movff	?___xxtofl+2,___flmul@b+2
  5413   013222  C12D  F13B         	movff	?___xxtofl+3,___flmul@b+3
  5414   013226  EC09  F08F         	call	___flmul	;wreg free
  5415   01322A  C138  F151         	movff	?___flmul,___fladd@b
  5416   01322E  C139  F152         	movff	?___flmul+1,___fladd@b+1
  5417   013232  C13A  F153         	movff	?___flmul+2,___fladd@b+2
  5418   013236  C13B  F154         	movff	?___flmul+3,___fladd@b+3
  5419   01323A  C197  F155         	movff	_resteturna,___fladd@a
  5420   01323E  C198  F156         	movff	_resteturna+1,___fladd@a+1
  5421   013242  C199  F157         	movff	_resteturna+2,___fladd@a+2
  5422   013246  C19A  F158         	movff	_resteturna+3,___fladd@a+3
  5423   01324A  EC47  F08A         	call	___fladd	;wreg free
  5424   01324E  C151  F17F         	movff	?___fladd,Motors_Turn_Angle@anglefloat
  5425   013252  C152  F180         	movff	?___fladd+1,Motors_Turn_Angle@anglefloat+1
  5426   013256  C153  F181         	movff	?___fladd+2,Motors_Turn_Angle@anglefloat+2
  5427   01325A  C154  F182         	movff	?___fladd+3,Motors_Turn_Angle@anglefloat+3
  5428   01325E                     
  5429                           ;./Fonctions.c: 48:     angle=(signed short)(anglefloat);
  5430   01325E  C17F  F12A         	movff	Motors_Turn_Angle@anglefloat,___fltol@f1
  5431   013262  C180  F12B         	movff	Motors_Turn_Angle@anglefloat+1,___fltol@f1+1
  5432   013266  C181  F12C         	movff	Motors_Turn_Angle@anglefloat+2,___fltol@f1+2
  5433   01326A  C182  F12D         	movff	Motors_Turn_Angle@anglefloat+3,___fltol@f1+3
  5434   01326E  ECB8  F09D         	call	___fltol	;wreg free
  5435   013272  C12A  F169         	movff	?___fltol,Motors_Turn_Angle@angle
  5436   013276  C12B  F16A         	movff	?___fltol+1,Motors_Turn_Angle@angle+1
  5437   01327A                     
  5438                           ;./Fonctions.c: 49:     resteturna=anglefloat-angle;
  5439   01327A  C17F  F161         	movff	Motors_Turn_Angle@anglefloat,___flsub@b
  5440   01327E  C180  F162         	movff	Motors_Turn_Angle@anglefloat+1,___flsub@b+1
  5441   013282  C181  F163         	movff	Motors_Turn_Angle@anglefloat+2,___flsub@b+2
  5442   013286  C182  F164         	movff	Motors_Turn_Angle@anglefloat+3,___flsub@b+3
  5443   01328A  C169  F12A         	movff	Motors_Turn_Angle@angle,___xxtofl@val
  5444   01328E  C16A  F12B         	movff	Motors_Turn_Angle@angle+1,___xxtofl@val+1
  5445   013292  0101               	movlb	1	; () banked
  5446   013294  0E00               	movlw	0
  5447   013296  BF2B               	btfsc	(___xxtofl@val+1)& (0+255),7,b
  5448   013298  0EFF               	movlw	-1
  5449   01329A  6F2C               	movwf	(___xxtofl@val+2)& (0+255),b
  5450   01329C  6F2D               	movwf	(___xxtofl@val+3)& (0+255),b
  5451   01329E  0E01               	movlw	1
  5452   0132A0  EC3D  F09A         	call	___xxtofl
  5453   0132A4  C12A  F165         	movff	?___xxtofl,___flsub@a
  5454   0132A8  C12B  F166         	movff	?___xxtofl+1,___flsub@a+1
  5455   0132AC  C12C  F167         	movff	?___xxtofl+2,___flsub@a+2
  5456   0132B0  C12D  F168         	movff	?___xxtofl+3,___flsub@a+3
  5457   0132B4  EC71  F0A1         	call	___flsub	;wreg free
  5458   0132B8  C161  F197         	movff	?___flsub,_resteturna
  5459   0132BC  C162  F198         	movff	?___flsub+1,_resteturna+1
  5460   0132C0  C163  F199         	movff	?___flsub+2,_resteturna+2
  5461   0132C4  C164  F19A         	movff	?___flsub+3,_resteturna+3
  5462                           
  5463                           ;./Fonctions.c: 50:     while ((erreurag!=0)||(erreurad!=0))
  5464   0132C8  EF25  F09A         	goto	l5521
  5465   0132CC                     l5499:
  5466                           
  5467                           ; BSR set to: 1
  5468                           ;./Fonctions.c: 51:     {;./Fonctions.c: 52:         erreurag=angle-Motors_Get_Enc_Left(
      +                          )+encg;
  5469   0132CC  EC39  F0A3         	call	_Motors_Get_Enc_Left	;wreg free
  5470   0132D0  C169  F16B         	movff	Motors_Turn_Angle@angle,??_Motors_Turn_Angle
  5471   0132D4  C16A  F16C         	movff	Motors_Turn_Angle@angle+1,??_Motors_Turn_Angle+1
  5472   0132D8  0E00               	movlw	0
  5473   0132DA  0101               	movlb	1	; () banked
  5474   0132DC  BF6C               	btfsc	(??_Motors_Turn_Angle+1)& (0+255),7,b
  5475   0132DE  0EFF               	movlw	255
  5476   0132E0  6F6D               	movwf	(??_Motors_Turn_Angle+2)& (0+255),b
  5477   0132E2  6F6E               	movwf	(??_Motors_Turn_Angle+3)& (0+255),b
  5478   0132E4  512A               	movf	?_Motors_Get_Enc_Left& (0+255),w,b
  5479   0132E6  5D6B               	subwf	??_Motors_Turn_Angle& (0+255),w,b
  5480   0132E8  6F6F               	movwf	(??_Motors_Turn_Angle+4)& (0+255),b
  5481   0132EA  512B               	movf	(?_Motors_Get_Enc_Left+1)& (0+255),w,b
  5482   0132EC  596C               	subwfb	(??_Motors_Turn_Angle+1)& (0+255),w,b
  5483   0132EE  6F70               	movwf	(??_Motors_Turn_Angle+5)& (0+255),b
  5484   0132F0  512C               	movf	(?_Motors_Get_Enc_Left+2)& (0+255),w,b
  5485   0132F2  596D               	subwfb	(??_Motors_Turn_Angle+2)& (0+255),w,b
  5486   0132F4  6F71               	movwf	(??_Motors_Turn_Angle+6)& (0+255),b
  5487   0132F6  512D               	movf	(?_Motors_Get_Enc_Left+3)& (0+255),w,b
  5488   0132F8  596E               	subwfb	(??_Motors_Turn_Angle+3)& (0+255),w,b
  5489   0132FA  6F72               	movwf	(??_Motors_Turn_Angle+7)& (0+255),b
  5490   0132FC  5173               	movf	Motors_Turn_Angle@encg& (0+255),w,b
  5491   0132FE  256F               	addwf	(??_Motors_Turn_Angle+4)& (0+255),w,b
  5492   013300  6F83               	movwf	Motors_Turn_Angle@erreurag& (0+255),b
  5493   013302  5174               	movf	(Motors_Turn_Angle@encg+1)& (0+255),w,b
  5494   013304  2170               	addwfc	(??_Motors_Turn_Angle+5)& (0+255),w,b
  5495   013306  6F84               	movwf	(Motors_Turn_Angle@erreurag+1)& (0+255),b
  5496   013308  5175               	movf	(Motors_Turn_Angle@encg+2)& (0+255),w,b
  5497   01330A  2171               	addwfc	(??_Motors_Turn_Angle+6)& (0+255),w,b
  5498   01330C  6F85               	movwf	(Motors_Turn_Angle@erreurag+2)& (0+255),b
  5499   01330E  5176               	movf	(Motors_Turn_Angle@encg+3)& (0+255),w,b
  5500   013310  2172               	addwfc	(??_Motors_Turn_Angle+7)& (0+255),w,b
  5501   013312  6F86               	movwf	(Motors_Turn_Angle@erreurag+3)& (0+255),b
  5502                           
  5503                           ;./Fonctions.c: 53:         erreurad=angle+Motors_Get_Enc_Right()-encd;
  5504   013314  EC30  F0A3         	call	_Motors_Get_Enc_Right	;wreg free
  5505   013318  C169  F16B         	movff	Motors_Turn_Angle@angle,??_Motors_Turn_Angle
  5506   01331C  C16A  F16C         	movff	Motors_Turn_Angle@angle+1,??_Motors_Turn_Angle+1
  5507   013320  0E00               	movlw	0
  5508   013322  0101               	movlb	1	; () banked
  5509   013324  BF6C               	btfsc	(??_Motors_Turn_Angle+1)& (0+255),7,b
  5510   013326  0EFF               	movlw	255
  5511   013328  6F6D               	movwf	(??_Motors_Turn_Angle+2)& (0+255),b
  5512   01332A  6F6E               	movwf	(??_Motors_Turn_Angle+3)& (0+255),b
  5513   01332C  512A               	movf	?_Motors_Get_Enc_Right& (0+255),w,b
  5514   01332E  256B               	addwf	??_Motors_Turn_Angle& (0+255),w,b
  5515   013330  6F6F               	movwf	(??_Motors_Turn_Angle+4)& (0+255),b
  5516   013332  512B               	movf	(?_Motors_Get_Enc_Right+1)& (0+255),w,b
  5517   013334  216C               	addwfc	(??_Motors_Turn_Angle+1)& (0+255),w,b
  5518   013336  6F70               	movwf	(??_Motors_Turn_Angle+5)& (0+255),b
  5519   013338  512C               	movf	(?_Motors_Get_Enc_Right+2)& (0+255),w,b
  5520   01333A  216D               	addwfc	(??_Motors_Turn_Angle+2)& (0+255),w,b
  5521   01333C  6F71               	movwf	(??_Motors_Turn_Angle+6)& (0+255),b
  5522   01333E  512D               	movf	(?_Motors_Get_Enc_Right+3)& (0+255),w,b
  5523   013340  216E               	addwfc	(??_Motors_Turn_Angle+3)& (0+255),w,b
  5524   013342  6F72               	movwf	(??_Motors_Turn_Angle+7)& (0+255),b
  5525   013344  5177               	movf	Motors_Turn_Angle@encd& (0+255),w,b
  5526   013346  5D6F               	subwf	(??_Motors_Turn_Angle+4)& (0+255),w,b
  5527   013348  6F87               	movwf	Motors_Turn_Angle@erreurad& (0+255),b
  5528   01334A  5178               	movf	(Motors_Turn_Angle@encd+1)& (0+255),w,b
  5529   01334C  5970               	subwfb	(??_Motors_Turn_Angle+5)& (0+255),w,b
  5530   01334E  6F88               	movwf	(Motors_Turn_Angle@erreurad+1)& (0+255),b
  5531   013350  5179               	movf	(Motors_Turn_Angle@encd+2)& (0+255),w,b
  5532   013352  5971               	subwfb	(??_Motors_Turn_Angle+6)& (0+255),w,b
  5533   013354  6F89               	movwf	(Motors_Turn_Angle@erreurad+2)& (0+255),b
  5534   013356  517A               	movf	(Motors_Turn_Angle@encd+3)& (0+255),w,b
  5535   013358  5972               	subwfb	(??_Motors_Turn_Angle+7)& (0+255),w,b
  5536   01335A  6F8A               	movwf	(Motors_Turn_Angle@erreurad+3)& (0+255),b
  5537   01335C                     
  5538                           ; BSR set to: 1
  5539                           ;./Fonctions.c: 54:         if (erreurag>7) {erreurag=7;} else if (erreurag<-7) {erreura
      +                          g=-7;}
  5540   01335C  BF86               	btfsc	(Motors_Turn_Angle@erreurag+3)& (0+255),7,b
  5541   01335E  EFBC  F099         	goto	u5591
  5542   013362  5186               	movf	(Motors_Turn_Angle@erreurag+3)& (0+255),w,b
  5543   013364  1185               	iorwf	(Motors_Turn_Angle@erreurag+2)& (0+255),w,b
  5544   013366  1184               	iorwf	(Motors_Turn_Angle@erreurag+1)& (0+255),w,b
  5545   013368  E109               	bnz	u5590
  5546   01336A  0E08               	movlw	8
  5547   01336C  5D83               	subwf	Motors_Turn_Angle@erreurag& (0+255),w,b
  5548   01336E  A0D8               	btfss	status,0,c
  5549   013370  EFBC  F099         	goto	u5591
  5550   013374  EFBE  F099         	goto	u5590
  5551   013378                     u5591:
  5552   013378  EFC8  F099         	goto	l5505
  5553   01337C                     u5590:
  5554   01337C                     
  5555                           ; BSR set to: 1
  5556   01337C  0E07               	movlw	7
  5557   01337E  6F83               	movwf	Motors_Turn_Angle@erreurag& (0+255),b
  5558   013380  0E00               	movlw	0
  5559   013382  6F84               	movwf	(Motors_Turn_Angle@erreurag+1)& (0+255),b
  5560   013384  0E00               	movlw	0
  5561   013386  6F85               	movwf	(Motors_Turn_Angle@erreurag+2)& (0+255),b
  5562   013388  0E00               	movlw	0
  5563   01338A  6F86               	movwf	(Motors_Turn_Angle@erreurag+3)& (0+255),b
  5564   01338C  EFE2  F099         	goto	l5509
  5565   013390                     l5505:
  5566                           
  5567                           ; BSR set to: 1
  5568   013390  AF86               	btfss	(Motors_Turn_Angle@erreurag+3)& (0+255),7,b
  5569   013392  EFD8  F099         	goto	u5601
  5570   013396  0EF9               	movlw	249
  5571   013398  5D83               	subwf	Motors_Turn_Angle@erreurag& (0+255),w,b
  5572   01339A  0EFF               	movlw	255
  5573   01339C  5984               	subwfb	(Motors_Turn_Angle@erreurag+1)& (0+255),w,b
  5574   01339E  0EFF               	movlw	255
  5575   0133A0  5985               	subwfb	(Motors_Turn_Angle@erreurag+2)& (0+255),w,b
  5576   0133A2  0EFF               	movlw	255
  5577   0133A4  5986               	subwfb	(Motors_Turn_Angle@erreurag+3)& (0+255),w,b
  5578   0133A6  B0D8               	btfsc	status,0,c
  5579   0133A8  EFD8  F099         	goto	u5601
  5580   0133AC  EFDA  F099         	goto	u5600
  5581   0133B0                     u5601:
  5582   0133B0  EFE2  F099         	goto	l5509
  5583   0133B4                     u5600:
  5584   0133B4                     
  5585                           ; BSR set to: 1
  5586   0133B4  0EF9               	movlw	249
  5587   0133B6  6F83               	movwf	Motors_Turn_Angle@erreurag& (0+255),b
  5588   0133B8  0EFF               	movlw	255
  5589   0133BA  6F84               	movwf	(Motors_Turn_Angle@erreurag+1)& (0+255),b
  5590   0133BC  0EFF               	movlw	255
  5591   0133BE  6F85               	movwf	(Motors_Turn_Angle@erreurag+2)& (0+255),b
  5592   0133C0  0EFF               	movlw	255
  5593   0133C2  6F86               	movwf	(Motors_Turn_Angle@erreurag+3)& (0+255),b
  5594   0133C4                     l5509:
  5595                           
  5596                           ; BSR set to: 1
  5597                           ;./Fonctions.c: 55:         if (erreurad>7) {erreurad=7;} else if (erreurad<-7) {erreura
      +                          d=-7;}
  5598   0133C4  BF8A               	btfsc	(Motors_Turn_Angle@erreurad+3)& (0+255),7,b
  5599   0133C6  EFF0  F099         	goto	u5611
  5600   0133CA  518A               	movf	(Motors_Turn_Angle@erreurad+3)& (0+255),w,b
  5601   0133CC  1189               	iorwf	(Motors_Turn_Angle@erreurad+2)& (0+255),w,b
  5602   0133CE  1188               	iorwf	(Motors_Turn_Angle@erreurad+1)& (0+255),w,b
  5603   0133D0  E109               	bnz	u5610
  5604   0133D2  0E08               	movlw	8
  5605   0133D4  5D87               	subwf	Motors_Turn_Angle@erreurad& (0+255),w,b
  5606   0133D6  A0D8               	btfss	status,0,c
  5607   0133D8  EFF0  F099         	goto	u5611
  5608   0133DC  EFF2  F099         	goto	u5610
  5609   0133E0                     u5611:
  5610   0133E0  EFFC  F099         	goto	l5513
  5611   0133E4                     u5610:
  5612   0133E4                     
  5613                           ; BSR set to: 1
  5614   0133E4  0E07               	movlw	7
  5615   0133E6  6F87               	movwf	Motors_Turn_Angle@erreurad& (0+255),b
  5616   0133E8  0E00               	movlw	0
  5617   0133EA  6F88               	movwf	(Motors_Turn_Angle@erreurad+1)& (0+255),b
  5618   0133EC  0E00               	movlw	0
  5619   0133EE  6F89               	movwf	(Motors_Turn_Angle@erreurad+2)& (0+255),b
  5620   0133F0  0E00               	movlw	0
  5621   0133F2  6F8A               	movwf	(Motors_Turn_Angle@erreurad+3)& (0+255),b
  5622   0133F4  EF16  F09A         	goto	l5517
  5623   0133F8                     l5513:
  5624                           
  5625                           ; BSR set to: 1
  5626   0133F8  AF8A               	btfss	(Motors_Turn_Angle@erreurad+3)& (0+255),7,b
  5627   0133FA  EF0C  F09A         	goto	u5621
  5628   0133FE  0EF9               	movlw	249
  5629   013400  5D87               	subwf	Motors_Turn_Angle@erreurad& (0+255),w,b
  5630   013402  0EFF               	movlw	255
  5631   013404  5988               	subwfb	(Motors_Turn_Angle@erreurad+1)& (0+255),w,b
  5632   013406  0EFF               	movlw	255
  5633   013408  5989               	subwfb	(Motors_Turn_Angle@erreurad+2)& (0+255),w,b
  5634   01340A  0EFF               	movlw	255
  5635   01340C  598A               	subwfb	(Motors_Turn_Angle@erreurad+3)& (0+255),w,b
  5636   01340E  B0D8               	btfsc	status,0,c
  5637   013410  EF0C  F09A         	goto	u5621
  5638   013414  EF0E  F09A         	goto	u5620
  5639   013418                     u5621:
  5640   013418  EF16  F09A         	goto	l5517
  5641   01341C                     u5620:
  5642   01341C                     
  5643                           ; BSR set to: 1
  5644   01341C  0EF9               	movlw	249
  5645   01341E  6F87               	movwf	Motors_Turn_Angle@erreurad& (0+255),b
  5646   013420  0EFF               	movlw	255
  5647   013422  6F88               	movwf	(Motors_Turn_Angle@erreurad+1)& (0+255),b
  5648   013424  0EFF               	movlw	255
  5649   013426  6F89               	movwf	(Motors_Turn_Angle@erreurad+2)& (0+255),b
  5650   013428  0EFF               	movlw	255
  5651   01342A  6F8A               	movwf	(Motors_Turn_Angle@erreurad+3)& (0+255),b
  5652   01342C                     l5517:
  5653                           
  5654                           ; BSR set to: 1
  5655                           ;./Fonctions.c: 56:         Motors_Speed((signed char)erreurag,(signed char)-erreurad);
  5656   01342C  5187               	movf	Motors_Turn_Angle@erreurad& (0+255),w,b
  5657   01342E  0800               	sublw	0
  5658   013430  6F2A               	movwf	Motors_Speed@vitd& (0+255),b
  5659   013432  5183               	movf	Motors_Turn_Angle@erreurag& (0+255),w,b
  5660   013434  ECC1  F0A2         	call	_Motors_Speed
  5661   013438                     
  5662                           ;./Fonctions.c: 57:         _delay((unsigned long)((200)*(64000000/4000000.0)));
  5663   013438  0E05               	movlw	5
  5664   01343A  0101               	movlb	1	; () banked
  5665   01343C  6F6B               	movwf	??_Motors_Turn_Angle& (0+255),b
  5666   01343E  0E26               	movlw	38
  5667   013440                     u11257:
  5668   013440  2EE8               	decfsz	wreg,f,c
  5669   013442  D7FE               	bra	u11257
  5670   013444  2F6B               	decfsz	??_Motors_Turn_Angle& (0+255),f,b
  5671   013446  D7FC               	bra	u11257
  5672   013448  0000               	nop	
  5673   01344A                     l5521:
  5674                           
  5675                           ;./Fonctions.c: 50:     while ((erreurag!=0)||(erreurad!=0))
  5676   01344A  0101               	movlb	1	; () banked
  5677   01344C  5183               	movf	Motors_Turn_Angle@erreurag& (0+255),w,b
  5678   01344E  1184               	iorwf	(Motors_Turn_Angle@erreurag+1)& (0+255),w,b
  5679   013450  1185               	iorwf	(Motors_Turn_Angle@erreurag+2)& (0+255),w,b
  5680   013452  1186               	iorwf	(Motors_Turn_Angle@erreurag+3)& (0+255),w,b
  5681   013454  A4D8               	btfss	status,2,c
  5682   013456  EF2F  F09A         	goto	u5631
  5683   01345A  EF31  F09A         	goto	u5630
  5684   01345E                     u5631:
  5685   01345E  EF66  F099         	goto	l5499
  5686   013462                     u5630:
  5687   013462                     
  5688                           ; BSR set to: 1
  5689   013462  5187               	movf	Motors_Turn_Angle@erreurad& (0+255),w,b
  5690   013464  1188               	iorwf	(Motors_Turn_Angle@erreurad+1)& (0+255),w,b
  5691   013466  1189               	iorwf	(Motors_Turn_Angle@erreurad+2)& (0+255),w,b
  5692   013468  118A               	iorwf	(Motors_Turn_Angle@erreurad+3)& (0+255),w,b
  5693   01346A  A4D8               	btfss	status,2,c
  5694   01346C  EF3A  F09A         	goto	u5641
  5695   013470  EF3C  F09A         	goto	u5640
  5696   013474                     u5641:
  5697   013474  EF66  F099         	goto	l5499
  5698   013478                     u5640:
  5699   013478                     
  5700                           ; BSR set to: 1
  5701   013478  0012               	return		;funcret
  5702   01347A                     __end_of_Motors_Turn_Angle:
  5703                           	callstack 0
  5704                           
  5705 ;; *************** function ___xxtofl *****************
  5706 ;; Defined at:
  5707 ;;		line 10 in file "C:\Program Files\Microchip\xc8\v2.46\pic\sources\c99\common\xxtofl.c"
  5708 ;; Parameters:    Size  Location     Type
  5709 ;;  sign            1    wreg     unsigned char 
  5710 ;;  val             4   42[BANK1 ] long 
  5711 ;; Auto vars:     Size  Location     Type
  5712 ;;  sign            1   50[BANK1 ] unsigned char 
  5713 ;;  arg             4   52[BANK1 ] unsigned long 
  5714 ;;  exp             1   51[BANK1 ] unsigned char 
  5715 ;; Return value:  Size  Location     Type
  5716 ;;                  4   42[BANK1 ] unsigned char 
  5717 ;; Registers used:
  5718 ;;		wreg, status,2, status,0
  5719 ;; Tracked objects:
  5720 ;;		On entry : 0/0
  5721 ;;		On exit  : 0/0
  5722 ;;		Unchanged: 0/0
  5723 ;; Data sizes:     COMRAM   BANK0   BANK1   BANK2   BANK3   BANK4   BANK5   BANK6   BANK7   BANK8   BANK9  BANK10  BANK1
      +1  BANK12  BANK13  BANK14
  5724 ;;      Params:         0       0       4       0       0       0       0       0       0       0       0       0       
      +0       0       0       0
  5725 ;;      Locals:         0       0       6       0       0       0       0       0       0       0       0       0       
      +0       0       0       0
  5726 ;;      Temps:          0       0       4       0       0       0       0       0       0       0       0       0       
      +0       0       0       0
  5727 ;;      Totals:         0       0      14       0       0       0       0       0       0       0       0       0       
      +0       0       0       0
  5728 ;;Total ram usage:       14 bytes
  5729 ;; Hardware stack levels used: 1
  5730 ;; Hardware stack levels required when called: 6
  5731 ;; This function calls:
  5732 ;;		Nothing
  5733 ;; This function is called by:
  5734 ;;		_Motors_Turn_Angle
  5735 ;;		_Compass_Calibre
  5736 ;;		_NOTE
  5737 ;;		_NOTE_Start
  5738 ;; This function uses a non-reentrant model
  5739 ;;
  5740                           
  5741                           	psect	text15
  5742   01347A                     __ptext15:
  5743                           	callstack 0
  5744   01347A                     ___xxtofl:
  5745                           	callstack 22
  5746                           
  5747                           ; BSR set to: 1
  5748                           ;incstack = 0
  5749                           ;___xxtofl@sign stored from wreg
  5750   01347A  0101               	movlb	1	; () banked
  5751   01347C  6F32               	movwf	___xxtofl@sign& (0+255),b
  5752   01347E  0101               	movlb	1	; () banked
  5753   013480  5132               	movf	___xxtofl@sign& (0+255),w,b
  5754   013482  B4D8               	btfsc	status,2,c
  5755   013484  EF46  F09A         	goto	u5461
  5756   013488  EF48  F09A         	goto	u5460
  5757   01348C                     u5461:
  5758   01348C  EF6A  F09A         	goto	l1704
  5759   013490                     u5460:
  5760   013490                     
  5761                           ; BSR set to: 1
  5762   013490  BF2D               	btfsc	(___xxtofl@val+3)& (0+255),7,b
  5763   013492  EF4F  F09A         	goto	u5470
  5764   013496  EF4D  F09A         	goto	u5471
  5765   01349A                     u5471:
  5766   01349A  EF6A  F09A         	goto	l1704
  5767   01349E                     u5470:
  5768   01349E                     
  5769                           ; BSR set to: 1
  5770   01349E  C12A  F12E         	movff	___xxtofl@val,??___xxtofl
  5771   0134A2  C12B  F12F         	movff	___xxtofl@val+1,??___xxtofl+1
  5772   0134A6  C12C  F130         	movff	___xxtofl@val+2,??___xxtofl+2
  5773   0134AA  C12D  F131         	movff	___xxtofl@val+3,??___xxtofl+3
  5774   0134AE  1F2E               	comf	??___xxtofl& (0+255),f,b
  5775   0134B0  1F2F               	comf	(??___xxtofl+1)& (0+255),f,b
  5776   0134B2  1F30               	comf	(??___xxtofl+2)& (0+255),f,b
  5777   0134B4  1F31               	comf	(??___xxtofl+3)& (0+255),f,b
  5778   0134B6  2B2E               	incf	??___xxtofl& (0+255),f,b
  5779   0134B8  0E00               	movlw	0
  5780   0134BA  232F               	addwfc	(??___xxtofl+1)& (0+255),f,b
  5781   0134BC  2330               	addwfc	(??___xxtofl+2)& (0+255),f,b
  5782   0134BE  2331               	addwfc	(??___xxtofl+3)& (0+255),f,b
  5783   0134C0  C12E  F134         	movff	??___xxtofl,___xxtofl@arg
  5784   0134C4  C12F  F135         	movff	??___xxtofl+1,___xxtofl@arg+1
  5785   0134C8  C130  F136         	movff	??___xxtofl+2,___xxtofl@arg+2
  5786   0134CC  C131  F137         	movff	??___xxtofl+3,___xxtofl@arg+3
  5787   0134D0  EF72  F09A         	goto	l5417
  5788   0134D4                     l1704:
  5789                           
  5790                           ; BSR set to: 1
  5791   0134D4  C12A  F134         	movff	___xxtofl@val,___xxtofl@arg
  5792   0134D8  C12B  F135         	movff	___xxtofl@val+1,___xxtofl@arg+1
  5793   0134DC  C12C  F136         	movff	___xxtofl@val+2,___xxtofl@arg+2
  5794   0134E0  C12D  F137         	movff	___xxtofl@val+3,___xxtofl@arg+3
  5795   0134E4                     l5417:
  5796                           
  5797                           ; BSR set to: 1
  5798   0134E4  512A               	movf	___xxtofl@val& (0+255),w,b
  5799   0134E6  112B               	iorwf	(___xxtofl@val+1)& (0+255),w,b
  5800   0134E8  112C               	iorwf	(___xxtofl@val+2)& (0+255),w,b
  5801   0134EA  112D               	iorwf	(___xxtofl@val+3)& (0+255),w,b
  5802   0134EC  A4D8               	btfss	status,2,c
  5803   0134EE  EF7B  F09A         	goto	u5481
  5804   0134F2  EF7D  F09A         	goto	u5480
  5805   0134F6                     u5481:
  5806   0134F6  EF87  F09A         	goto	l5423
  5807   0134FA                     u5480:
  5808   0134FA                     
  5809                           ; BSR set to: 1
  5810   0134FA  0E00               	movlw	0
  5811   0134FC  6F2A               	movwf	?___xxtofl& (0+255),b
  5812   0134FE  0E00               	movlw	0
  5813   013500  6F2B               	movwf	(?___xxtofl+1)& (0+255),b
  5814   013502  0E00               	movlw	0
  5815   013504  6F2C               	movwf	(?___xxtofl+2)& (0+255),b
  5816   013506  0E00               	movlw	0
  5817   013508  6F2D               	movwf	(?___xxtofl+3)& (0+255),b
  5818   01350A  EF18  F09B         	goto	l1707
  5819   01350E                     l5423:
  5820                           
  5821                           ; BSR set to: 1
  5822   01350E  0E96               	movlw	150
  5823   013510  6F33               	movwf	___xxtofl@exp& (0+255),b
  5824   013512  EF91  F09A         	goto	l5427
  5825   013516                     l5425:
  5826                           
  5827                           ; BSR set to: 1
  5828   013516  2B33               	incf	___xxtofl@exp& (0+255),f,b
  5829   013518  90D8               	bcf	status,0,c
  5830   01351A  3337               	rrcf	(___xxtofl@arg+3)& (0+255),f,b
  5831   01351C  3336               	rrcf	(___xxtofl@arg+2)& (0+255),f,b
  5832   01351E  3335               	rrcf	(___xxtofl@arg+1)& (0+255),f,b
  5833   013520  3334               	rrcf	___xxtofl@arg& (0+255),f,b
  5834   013522                     l5427:
  5835                           
  5836                           ; BSR set to: 1
  5837   013522  0E00               	movlw	0
  5838   013524  1534               	andwf	___xxtofl@arg& (0+255),w,b
  5839   013526  6F2E               	movwf	??___xxtofl& (0+255),b
  5840   013528  0E00               	movlw	0
  5841   01352A  1535               	andwf	(___xxtofl@arg+1)& (0+255),w,b
  5842   01352C  6F2F               	movwf	(??___xxtofl+1)& (0+255),b
  5843   01352E  0E00               	movlw	0
  5844   013530  1536               	andwf	(___xxtofl@arg+2)& (0+255),w,b
  5845   013532  6F30               	movwf	(??___xxtofl+2)& (0+255),b
  5846   013534  0EFE               	movlw	254
  5847   013536  1537               	andwf	(___xxtofl@arg+3)& (0+255),w,b
  5848   013538  6F31               	movwf	(??___xxtofl+3)& (0+255),b
  5849   01353A  512E               	movf	??___xxtofl& (0+255),w,b
  5850   01353C  112F               	iorwf	(??___xxtofl+1)& (0+255),w,b
  5851   01353E  1130               	iorwf	(??___xxtofl+2)& (0+255),w,b
  5852   013540  1131               	iorwf	(??___xxtofl+3)& (0+255),w,b
  5853   013542  A4D8               	btfss	status,2,c
  5854   013544  EFA6  F09A         	goto	u5491
  5855   013548  EFA8  F09A         	goto	u5490
  5856   01354C                     u5491:
  5857   01354C  EF8B  F09A         	goto	l5425
  5858   013550                     u5490:
  5859   013550  EFB6  F09A         	goto	l1711
  5860   013554                     l5429:
  5861                           
  5862                           ; BSR set to: 1
  5863   013554  2B33               	incf	___xxtofl@exp& (0+255),f,b
  5864   013556                     
  5865                           ; BSR set to: 1
  5866   013556  0E01               	movlw	1
  5867   013558  2734               	addwf	___xxtofl@arg& (0+255),f,b
  5868   01355A  0E00               	movlw	0
  5869   01355C  2335               	addwfc	(___xxtofl@arg+1)& (0+255),f,b
  5870   01355E  2336               	addwfc	(___xxtofl@arg+2)& (0+255),f,b
  5871   013560  2337               	addwfc	(___xxtofl@arg+3)& (0+255),f,b
  5872   013562                     
  5873                           ; BSR set to: 1
  5874   013562  90D8               	bcf	status,0,c
  5875   013564  3337               	rrcf	(___xxtofl@arg+3)& (0+255),f,b
  5876   013566  3336               	rrcf	(___xxtofl@arg+2)& (0+255),f,b
  5877   013568  3335               	rrcf	(___xxtofl@arg+1)& (0+255),f,b
  5878   01356A  3334               	rrcf	___xxtofl@arg& (0+255),f,b
  5879   01356C                     l1711:
  5880                           
  5881                           ; BSR set to: 1
  5882   01356C  0E00               	movlw	0
  5883   01356E  1534               	andwf	___xxtofl@arg& (0+255),w,b
  5884   013570  6F2E               	movwf	??___xxtofl& (0+255),b
  5885   013572  0E00               	movlw	0
  5886   013574  1535               	andwf	(___xxtofl@arg+1)& (0+255),w,b
  5887   013576  6F2F               	movwf	(??___xxtofl+1)& (0+255),b
  5888   013578  0E00               	movlw	0
  5889   01357A  1536               	andwf	(___xxtofl@arg+2)& (0+255),w,b
  5890   01357C  6F30               	movwf	(??___xxtofl+2)& (0+255),b
  5891   01357E  0EFF               	movlw	255
  5892   013580  1537               	andwf	(___xxtofl@arg+3)& (0+255),w,b
  5893   013582  6F31               	movwf	(??___xxtofl+3)& (0+255),b
  5894   013584  512E               	movf	??___xxtofl& (0+255),w,b
  5895   013586  112F               	iorwf	(??___xxtofl+1)& (0+255),w,b
  5896   013588  1130               	iorwf	(??___xxtofl+2)& (0+255),w,b
  5897   01358A  1131               	iorwf	(??___xxtofl+3)& (0+255),w,b
  5898   01358C  A4D8               	btfss	status,2,c
  5899   01358E  EFCB  F09A         	goto	u5501
  5900   013592  EFCD  F09A         	goto	u5500
  5901   013596                     u5501:
  5902   013596  EFAA  F09A         	goto	l5429
  5903   01359A                     u5500:
  5904   01359A  EFD5  F09A         	goto	l5437
  5905   01359E                     l5435:
  5906                           
  5907                           ; BSR set to: 1
  5908   01359E  0733               	decf	___xxtofl@exp& (0+255),f,b
  5909   0135A0  90D8               	bcf	status,0,c
  5910   0135A2  3734               	rlcf	___xxtofl@arg& (0+255),f,b
  5911   0135A4  3735               	rlcf	(___xxtofl@arg+1)& (0+255),f,b
  5912   0135A6  3736               	rlcf	(___xxtofl@arg+2)& (0+255),f,b
  5913   0135A8  3737               	rlcf	(___xxtofl@arg+3)& (0+255),f,b
  5914   0135AA                     l5437:
  5915                           
  5916                           ; BSR set to: 1
  5917   0135AA  BF36               	btfsc	(___xxtofl@arg+2)& (0+255),7,b
  5918   0135AC  EFDA  F09A         	goto	u5511
  5919   0135B0  EFDC  F09A         	goto	u5510
  5920   0135B4                     u5511:
  5921   0135B4  EFE4  F09A         	goto	l1718
  5922   0135B8                     u5510:
  5923   0135B8                     
  5924                           ; BSR set to: 1
  5925   0135B8  0E02               	movlw	2
  5926   0135BA  6133               	cpfslt	___xxtofl@exp& (0+255),b
  5927   0135BC  EFE2  F09A         	goto	u5521
  5928   0135C0  EFE4  F09A         	goto	u5520
  5929   0135C4                     u5521:
  5930   0135C4  EFCF  F09A         	goto	l5435
  5931   0135C8                     u5520:
  5932   0135C8                     l1718:
  5933                           
  5934                           ; BSR set to: 1
  5935   0135C8  B133               	btfsc	___xxtofl@exp& (0+255),0,b
  5936   0135CA  EFE9  F09A         	goto	u5531
  5937   0135CE  EFEB  F09A         	goto	u5530
  5938   0135D2                     u5531:
  5939   0135D2  EFEC  F09A         	goto	l5443
  5940   0135D6                     u5530:
  5941   0135D6                     
  5942                           ; BSR set to: 1
  5943   0135D6  9F36               	bcf	(___xxtofl@arg+2)& (0+255),7,b
  5944   0135D8                     l5443:
  5945                           
  5946                           ; BSR set to: 1
  5947   0135D8  90D8               	bcf	status,0,c
  5948   0135DA  3333               	rrcf	___xxtofl@exp& (0+255),f,b
  5949   0135DC                     
  5950                           ; BSR set to: 1
  5951   0135DC  C133  F12E         	movff	___xxtofl@exp,??___xxtofl
  5952   0135E0  6B2F               	clrf	(??___xxtofl+1)& (0+255),b
  5953   0135E2  6B30               	clrf	(??___xxtofl+2)& (0+255),b
  5954   0135E4  6B31               	clrf	(??___xxtofl+3)& (0+255),b
  5955   0135E6  C12E  F131         	movff	??___xxtofl,??___xxtofl+3
  5956   0135EA  6B30               	clrf	(??___xxtofl+2)& (0+255),b
  5957   0135EC  6B2F               	clrf	(??___xxtofl+1)& (0+255),b
  5958   0135EE  6B2E               	clrf	??___xxtofl& (0+255),b
  5959   0135F0  512E               	movf	??___xxtofl& (0+255),w,b
  5960   0135F2  1334               	iorwf	___xxtofl@arg& (0+255),f,b
  5961   0135F4  512F               	movf	(??___xxtofl+1)& (0+255),w,b
  5962   0135F6  1335               	iorwf	(___xxtofl@arg+1)& (0+255),f,b
  5963   0135F8  5130               	movf	(??___xxtofl+2)& (0+255),w,b
  5964   0135FA  1336               	iorwf	(___xxtofl@arg+2)& (0+255),f,b
  5965   0135FC  5131               	movf	(??___xxtofl+3)& (0+255),w,b
  5966   0135FE  1337               	iorwf	(___xxtofl@arg+3)& (0+255),f,b
  5967   013600                     
  5968                           ; BSR set to: 1
  5969   013600  5132               	movf	___xxtofl@sign& (0+255),w,b
  5970   013602  B4D8               	btfsc	status,2,c
  5971   013604  EF06  F09B         	goto	u5541
  5972   013608  EF08  F09B         	goto	u5540
  5973   01360C                     u5541:
  5974   01360C  EF10  F09B         	goto	l5453
  5975   013610                     u5540:
  5976   013610                     
  5977                           ; BSR set to: 1
  5978   013610  BF2D               	btfsc	(___xxtofl@val+3)& (0+255),7,b
  5979   013612  EF0F  F09B         	goto	u5550
  5980   013616  EF0D  F09B         	goto	u5551
  5981   01361A                     u5551:
  5982   01361A  EF10  F09B         	goto	l5453
  5983   01361E                     u5550:
  5984   01361E                     
  5985                           ; BSR set to: 1
  5986   01361E  8F37               	bsf	(___xxtofl@arg+3)& (0+255),7,b
  5987   013620                     l5453:
  5988                           
  5989                           ; BSR set to: 1
  5990   013620  C134  F12A         	movff	___xxtofl@arg,?___xxtofl
  5991   013624  C135  F12B         	movff	___xxtofl@arg+1,?___xxtofl+1
  5992   013628  C136  F12C         	movff	___xxtofl@arg+2,?___xxtofl+2
  5993   01362C  C137  F12D         	movff	___xxtofl@arg+3,?___xxtofl+3
  5994   013630                     l1707:
  5995                           
  5996                           ; BSR set to: 1
  5997   013630  0012               	return		;funcret
  5998   013632                     __end_of___xxtofl:
  5999                           	callstack 0
  6000                           
  6001 ;; *************** function ___fltol *****************
  6002 ;; Defined at:
  6003 ;;		line 43 in file "C:\Program Files\Microchip\xc8\v2.46\pic\sources\c99\common\fltol.c"
  6004 ;; Parameters:    Size  Location     Type
  6005 ;;  f1              4   42[BANK1 ] unsigned char 
  6006 ;; Auto vars:     Size  Location     Type
  6007 ;;  exp1            1   51[BANK1 ] unsigned char 
  6008 ;;  sign1           1   50[BANK1 ] unsigned char 
  6009 ;; Return value:  Size  Location     Type
  6010 ;;                  4   42[BANK1 ] long 
  6011 ;; Registers used:
  6012 ;;		wreg, status,2, status,0
  6013 ;; Tracked objects:
  6014 ;;		On entry : 0/0
  6015 ;;		On exit  : 0/0
  6016 ;;		Unchanged: 0/0
  6017 ;; Data sizes:     COMRAM   BANK0   BANK1   BANK2   BANK3   BANK4   BANK5   BANK6   BANK7   BANK8   BANK9  BANK10  BANK1
      +1  BANK12  BANK13  BANK14
  6018 ;;      Params:         0       0       4       0       0       0       0       0       0       0       0       0       
      +0       0       0       0
  6019 ;;      Locals:         0       0       2       0       0       0       0       0       0       0       0       0       
      +0       0       0       0
  6020 ;;      Temps:          0       0       4       0       0       0       0       0       0       0       0       0       
      +0       0       0       0
  6021 ;;      Totals:         0       0      10       0       0       0       0       0       0       0       0       0       
      +0       0       0       0
  6022 ;;Total ram usage:       10 bytes
  6023 ;; Hardware stack levels used: 1
  6024 ;; Hardware stack levels required when called: 6
  6025 ;; This function calls:
  6026 ;;		Nothing
  6027 ;; This function is called by:
  6028 ;;		_Motors_Turn_Angle
  6029 ;;		_NOTE
  6030 ;;		_NOTE_Start
  6031 ;;		_Compass_Get_Angle_Magn
  6032 ;; This function uses a non-reentrant model
  6033 ;;
  6034                           
  6035                           	psect	text16
  6036   013B70                     __ptext16:
  6037                           	callstack 0
  6038   013B70                     ___fltol:
  6039                           	callstack 21
  6040   013B70  0101               	movlb	1	; () banked
  6041   013B72  352C               	rlcf	(___fltol@f1+2)& (0+255),w,b
  6042   013B74  352D               	rlcf	(___fltol@f1+3)& (0+255),w,b
  6043   013B76  6F33               	movwf	___fltol@exp1& (0+255),b
  6044   013B78  5133               	movf	___fltol@exp1& (0+255),w,b
  6045   013B7A  A4D8               	btfss	status,2,c
  6046   013B7C  EFC2  F09D         	goto	u5391
  6047   013B80  EFC4  F09D         	goto	u5390
  6048   013B84                     u5391:
  6049   013B84  EFCE  F09D         	goto	l5373
  6050   013B88                     u5390:
  6051   013B88                     l5369:
  6052                           
  6053                           ; BSR set to: 1
  6054   013B88  0E00               	movlw	0
  6055   013B8A  6F2A               	movwf	?___fltol& (0+255),b
  6056   013B8C  0E00               	movlw	0
  6057   013B8E  6F2B               	movwf	(?___fltol+1)& (0+255),b
  6058   013B90  0E00               	movlw	0
  6059   013B92  6F2C               	movwf	(?___fltol+2)& (0+255),b
  6060   013B94  0E00               	movlw	0
  6061   013B96  6F2D               	movwf	(?___fltol+3)& (0+255),b
  6062   013B98  EF3B  F09E         	goto	l1346
  6063   013B9C                     l5373:
  6064                           
  6065                           ; BSR set to: 1
  6066   013B9C  C12A  F12E         	movff	___fltol@f1,??___fltol
  6067   013BA0  C12B  F12F         	movff	___fltol@f1+1,??___fltol+1
  6068   013BA4  C12C  F130         	movff	___fltol@f1+2,??___fltol+2
  6069   013BA8  C12D  F131         	movff	___fltol@f1+3,??___fltol+3
  6070   013BAC  0E20               	movlw	32
  6071   013BAE  EFDE  F09D         	goto	u5400
  6072   013BB2                     u5405:
  6073   013BB2  90D8               	bcf	status,0,c
  6074   013BB4  3331               	rrcf	(??___fltol+3)& (0+255),f,b
  6075   013BB6  3330               	rrcf	(??___fltol+2)& (0+255),f,b
  6076   013BB8  332F               	rrcf	(??___fltol+1)& (0+255),f,b
  6077   013BBA  332E               	rrcf	??___fltol& (0+255),f,b
  6078   013BBC                     u5400:
  6079   013BBC  2EE8               	decfsz	wreg,f,c
  6080   013BBE  EFD9  F09D         	goto	u5405
  6081   013BC2  512E               	movf	??___fltol& (0+255),w,b
  6082   013BC4  6F32               	movwf	___fltol@sign1& (0+255),b
  6083   013BC6                     
  6084                           ; BSR set to: 1
  6085   013BC6  8F2C               	bsf	(___fltol@f1+2)& (0+255),7,b
  6086   013BC8                     
  6087                           ; BSR set to: 1
  6088   013BC8  0EFF               	movlw	255
  6089   013BCA  172A               	andwf	___fltol@f1& (0+255),f,b
  6090   013BCC  0EFF               	movlw	255
  6091   013BCE  172B               	andwf	(___fltol@f1+1)& (0+255),f,b
  6092   013BD0  0EFF               	movlw	255
  6093   013BD2  172C               	andwf	(___fltol@f1+2)& (0+255),f,b
  6094   013BD4  0E00               	movlw	0
  6095   013BD6  172D               	andwf	(___fltol@f1+3)& (0+255),f,b
  6096   013BD8                     
  6097                           ; BSR set to: 1
  6098   013BD8  0E96               	movlw	150
  6099   013BDA  5F33               	subwf	___fltol@exp1& (0+255),f,b
  6100   013BDC                     
  6101                           ; BSR set to: 1
  6102   013BDC  BF33               	btfsc	___fltol@exp1& (0+255),7,b
  6103   013BDE  EFF5  F09D         	goto	u5410
  6104   013BE2  EFF3  F09D         	goto	u5411
  6105   013BE6                     u5411:
  6106   013BE6  EF0B  F09E         	goto	l5393
  6107   013BEA                     u5410:
  6108   013BEA                     
  6109                           ; BSR set to: 1
  6110   013BEA  5133               	movf	___fltol@exp1& (0+255),w,b
  6111   013BEC  0A80               	xorlw	128
  6112   013BEE  0F97               	addlw	151
  6113   013BF0  B0D8               	btfsc	status,0,c
  6114   013BF2  EFFD  F09D         	goto	u5421
  6115   013BF6  EFFF  F09D         	goto	u5420
  6116   013BFA                     u5421:
  6117   013BFA  EF01  F09E         	goto	l5389
  6118   013BFE                     u5420:
  6119   013BFE  EFC4  F09D         	goto	l5369
  6120   013C02                     l5389:
  6121                           
  6122                           ; BSR set to: 1
  6123   013C02  90D8               	bcf	status,0,c
  6124   013C04  332D               	rrcf	(___fltol@f1+3)& (0+255),f,b
  6125   013C06  332C               	rrcf	(___fltol@f1+2)& (0+255),f,b
  6126   013C08  332B               	rrcf	(___fltol@f1+1)& (0+255),f,b
  6127   013C0A  332A               	rrcf	___fltol@f1& (0+255),f,b
  6128   013C0C                     
  6129                           ; BSR set to: 1
  6130   013C0C  3F33               	incfsz	___fltol@exp1& (0+255),f,b
  6131   013C0E  EF01  F09E         	goto	l5389
  6132   013C12  EF23  F09E         	goto	l5403
  6133   013C16                     l5393:
  6134                           
  6135                           ; BSR set to: 1
  6136   013C16  0E1F               	movlw	31
  6137   013C18  6533               	cpfsgt	___fltol@exp1& (0+255),b
  6138   013C1A  EF11  F09E         	goto	u5431
  6139   013C1E  EF13  F09E         	goto	u5430
  6140   013C22                     u5431:
  6141   013C22  EF1B  F09E         	goto	l5401
  6142   013C26                     u5430:
  6143   013C26  EFC4  F09D         	goto	l5369
  6144   013C2A                     l5399:
  6145                           
  6146                           ; BSR set to: 1
  6147   013C2A  90D8               	bcf	status,0,c
  6148   013C2C  372A               	rlcf	___fltol@f1& (0+255),f,b
  6149   013C2E  372B               	rlcf	(___fltol@f1+1)& (0+255),f,b
  6150   013C30  372C               	rlcf	(___fltol@f1+2)& (0+255),f,b
  6151   013C32  372D               	rlcf	(___fltol@f1+3)& (0+255),f,b
  6152   013C34  0733               	decf	___fltol@exp1& (0+255),f,b
  6153   013C36                     l5401:
  6154                           
  6155                           ; BSR set to: 1
  6156   013C36  5133               	movf	___fltol@exp1& (0+255),w,b
  6157   013C38  A4D8               	btfss	status,2,c
  6158   013C3A  EF21  F09E         	goto	u5441
  6159   013C3E  EF23  F09E         	goto	u5440
  6160   013C42                     u5441:
  6161   013C42  EF15  F09E         	goto	l5399
  6162   013C46                     u5440:
  6163   013C46                     l5403:
  6164                           
  6165                           ; BSR set to: 1
  6166   013C46  5132               	movf	___fltol@sign1& (0+255),w,b
  6167   013C48  B4D8               	btfsc	status,2,c
  6168   013C4A  EF29  F09E         	goto	u5451
  6169   013C4E  EF2B  F09E         	goto	u5450
  6170   013C52                     u5451:
  6171   013C52  EF33  F09E         	goto	l5407
  6172   013C56                     u5450:
  6173   013C56                     
  6174                           ; BSR set to: 1
  6175   013C56  1F2D               	comf	(___fltol@f1+3)& (0+255),f,b
  6176   013C58  1F2C               	comf	(___fltol@f1+2)& (0+255),f,b
  6177   013C5A  1F2B               	comf	(___fltol@f1+1)& (0+255),f,b
  6178   013C5C  6D2A               	negf	___fltol@f1& (0+255),b
  6179   013C5E  0E00               	movlw	0
  6180   013C60  232B               	addwfc	(___fltol@f1+1)& (0+255),f,b
  6181   013C62  232C               	addwfc	(___fltol@f1+2)& (0+255),f,b
  6182   013C64  232D               	addwfc	(___fltol@f1+3)& (0+255),f,b
  6183   013C66                     l5407:
  6184                           
  6185                           ; BSR set to: 1
  6186   013C66  C12A  F12A         	movff	___fltol@f1,?___fltol
  6187   013C6A  C12B  F12B         	movff	___fltol@f1+1,?___fltol+1
  6188   013C6E  C12C  F12C         	movff	___fltol@f1+2,?___fltol+2
  6189   013C72  C12D  F12D         	movff	___fltol@f1+3,?___fltol+3
  6190   013C76                     l1346:
  6191                           
  6192                           ; BSR set to: 1
  6193   013C76  0012               	return		;funcret
  6194   013C78                     __end_of___fltol:
  6195                           	callstack 0
  6196                           
  6197 ;; *************** function ___flsub *****************
  6198 ;; Defined at:
  6199 ;;		line 245 in file "C:\Program Files\Microchip\xc8\v2.46\pic\sources\c99\common\sprcadd.c"
  6200 ;; Parameters:    Size  Location     Type
  6201 ;;  b               4   97[BANK1 ] long 
  6202 ;;  a               4  101[BANK1 ] long 
  6203 ;; Auto vars:     Size  Location     Type
  6204 ;;		None
  6205 ;; Return value:  Size  Location     Type
  6206 ;;                  4   97[BANK1 ] long 
  6207 ;; Registers used:
  6208 ;;		wreg, status,2, status,0, cstack
  6209 ;; Tracked objects:
  6210 ;;		On entry : 0/0
  6211 ;;		On exit  : 0/0
  6212 ;;		Unchanged: 0/0
  6213 ;; Data sizes:     COMRAM   BANK0   BANK1   BANK2   BANK3   BANK4   BANK5   BANK6   BANK7   BANK8   BANK9  BANK10  BANK1
      +1  BANK12  BANK13  BANK14
  6214 ;;      Params:         0       0       8       0       0       0       0       0       0       0       0       0       
      +0       0       0       0
  6215 ;;      Locals:         0       0       0       0       0       0       0       0       0       0       0       0       
      +0       0       0       0
  6216 ;;      Temps:          0       0       0       0       0       0       0       0       0       0       0       0       
      +0       0       0       0
  6217 ;;      Totals:         0       0       8       0       0       0       0       0       0       0       0       0       
      +0       0       0       0
  6218 ;;Total ram usage:        8 bytes
  6219 ;; Hardware stack levels used: 1
  6220 ;; Hardware stack levels required when called: 7
  6221 ;; This function calls:
  6222 ;;		___fladd
  6223 ;; This function is called by:
  6224 ;;		_Motors_Turn_Angle
  6225 ;; This function uses a non-reentrant model
  6226 ;;
  6227                           
  6228                           	psect	text17
  6229   0142E2                     __ptext17:
  6230                           	callstack 0
  6231   0142E2                     ___flsub:
  6232                           	callstack 20
  6233   0142E2  0E00               	movlw	0
  6234   0142E4  0101               	movlb	1	; () banked
  6235   0142E6  1B65               	xorwf	___flsub@a& (0+255),f,b
  6236   0142E8  0E00               	movlw	0
  6237   0142EA  1B66               	xorwf	(___flsub@a+1)& (0+255),f,b
  6238   0142EC  0E00               	movlw	0
  6239   0142EE  1B67               	xorwf	(___flsub@a+2)& (0+255),f,b
  6240   0142F0  0E80               	movlw	128
  6241   0142F2  1B68               	xorwf	(___flsub@a+3)& (0+255),f,b
  6242   0142F4                     
  6243                           ; BSR set to: 1
  6244   0142F4  C161  F151         	movff	___flsub@b,___fladd@b
  6245   0142F8  C162  F152         	movff	___flsub@b+1,___fladd@b+1
  6246   0142FC  C163  F153         	movff	___flsub@b+2,___fladd@b+2
  6247   014300  C164  F154         	movff	___flsub@b+3,___fladd@b+3
  6248   014304  C165  F155         	movff	___flsub@a,___fladd@a
  6249   014308  C166  F156         	movff	___flsub@a+1,___fladd@a+1
  6250   01430C  C167  F157         	movff	___flsub@a+2,___fladd@a+2
  6251   014310  C168  F158         	movff	___flsub@a+3,___fladd@a+3
  6252   014314  EC47  F08A         	call	___fladd	;wreg free
  6253   014318  C151  F161         	movff	?___fladd,?___flsub
  6254   01431C  C152  F162         	movff	?___fladd+1,?___flsub+1
  6255   014320  C153  F163         	movff	?___fladd+2,?___flsub+2
  6256   014324  C154  F164         	movff	?___fladd+3,?___flsub+3
  6257   014328  0012               	return		;funcret
  6258   01432A                     __end_of___flsub:
  6259                           	callstack 0
  6260                           
  6261 ;; *************** function ___fladd *****************
  6262 ;; Defined at:
  6263 ;;		line 10 in file "C:\Program Files\Microchip\xc8\v2.46\pic\sources\c99\common\sprcadd.c"
  6264 ;; Parameters:    Size  Location     Type
  6265 ;;  b               4   81[BANK1 ] long 
  6266 ;;  a               4   85[BANK1 ] long 
  6267 ;; Auto vars:     Size  Location     Type
  6268 ;;  grs             1   96[BANK1 ] unsigned char 
  6269 ;;  bexp            1   95[BANK1 ] unsigned char 
  6270 ;;  aexp            1   94[BANK1 ] unsigned char 
  6271 ;;  signs           1   93[BANK1 ] unsigned char 
  6272 ;; Return value:  Size  Location     Type
  6273 ;;                  4   81[BANK1 ] unsigned char 
  6274 ;; Registers used:
  6275 ;;		wreg, status,2, status,0
  6276 ;; Tracked objects:
  6277 ;;		On entry : 0/0
  6278 ;;		On exit  : 0/0
  6279 ;;		Unchanged: 0/0
  6280 ;; Data sizes:     COMRAM   BANK0   BANK1   BANK2   BANK3   BANK4   BANK5   BANK6   BANK7   BANK8   BANK9  BANK10  BANK1
      +1  BANK12  BANK13  BANK14
  6281 ;;      Params:         0       0       8       0       0       0       0       0       0       0       0       0       
      +0       0       0       0
  6282 ;;      Locals:         0       0       4       0       0       0       0       0       0       0       0       0       
      +0       0       0       0
  6283 ;;      Temps:          0       0       4       0       0       0       0       0       0       0       0       0       
      +0       0       0       0
  6284 ;;      Totals:         0       0      16       0       0       0       0       0       0       0       0       0       
      +0       0       0       0
  6285 ;;Total ram usage:       16 bytes
  6286 ;; Hardware stack levels used: 1
  6287 ;; Hardware stack levels required when called: 6
  6288 ;; This function calls:
  6289 ;;		Nothing
  6290 ;; This function is called by:
  6291 ;;		_Motors_Turn_Angle
  6292 ;;		___flsub
  6293 ;; This function uses a non-reentrant model
  6294 ;;
  6295                           
  6296                           	psect	text18
  6297   01148E                     __ptext18:
  6298                           	callstack 0
  6299   01148E                     ___fladd:
  6300                           	callstack 20
  6301   01148E  0101               	movlb	1	; () banked
  6302   011490  5154               	movf	(___fladd@b+3)& (0+255),w,b
  6303   011492  0B80               	andlw	128
  6304   011494  6F5D               	movwf	___fladd@signs& (0+255),b
  6305   011496  5154               	movf	(___fladd@b+3)& (0+255),w,b
  6306   011498  2554               	addwf	(___fladd@b+3)& (0+255),w,b
  6307   01149A  6F5F               	movwf	___fladd@bexp& (0+255),b
  6308   01149C                     
  6309                           ; BSR set to: 1
  6310   01149C  AF53               	btfss	(___fladd@b+2)& (0+255),7,b
  6311   01149E  EF53  F08A         	goto	u4801
  6312   0114A2  EF55  F08A         	goto	u4800
  6313   0114A6                     u4801:
  6314   0114A6  EF56  F08A         	goto	l5017
  6315   0114AA                     u4800:
  6316   0114AA                     
  6317                           ; BSR set to: 1
  6318   0114AA  815F               	bsf	___fladd@bexp& (0+255),0,b
  6319   0114AC                     l5017:
  6320                           
  6321                           ; BSR set to: 1
  6322   0114AC  515F               	movf	___fladd@bexp& (0+255),w,b
  6323   0114AE  B4D8               	btfsc	status,2,c
  6324   0114B0  EF5C  F08A         	goto	u4811
  6325   0114B4  EF5E  F08A         	goto	u4810
  6326   0114B8                     u4811:
  6327   0114B8  EF73  F08A         	goto	l5027
  6328   0114BC                     u4810:
  6329   0114BC                     
  6330                           ; BSR set to: 1
  6331   0114BC  295F               	incf	___fladd@bexp& (0+255),w,b
  6332   0114BE  A4D8               	btfss	status,2,c
  6333   0114C0  EF64  F08A         	goto	u4821
  6334   0114C4  EF66  F08A         	goto	u4820
  6335   0114C8                     u4821:
  6336   0114C8  EF6E  F08A         	goto	l5023
  6337   0114CC                     u4820:
  6338   0114CC                     
  6339                           ; BSR set to: 1
  6340   0114CC  0E00               	movlw	0
  6341   0114CE  6F51               	movwf	___fladd@b& (0+255),b
  6342   0114D0  0E00               	movlw	0
  6343   0114D2  6F52               	movwf	(___fladd@b+1)& (0+255),b
  6344   0114D4  0E00               	movlw	0
  6345   0114D6  6F53               	movwf	(___fladd@b+2)& (0+255),b
  6346   0114D8  0E00               	movlw	0
  6347   0114DA  6F54               	movwf	(___fladd@b+3)& (0+255),b
  6348   0114DC                     l5023:
  6349                           
  6350                           ; BSR set to: 1
  6351   0114DC  8F53               	bsf	(___fladd@b+2)& (0+255),7,b
  6352   0114DE                     
  6353                           ; BSR set to: 1
  6354   0114DE  0E00               	movlw	0
  6355   0114E0  6F54               	movwf	(___fladd@b+3)& (0+255),b
  6356   0114E2  EF7B  F08A         	goto	l5029
  6357   0114E6                     l5027:
  6358                           
  6359                           ; BSR set to: 1
  6360   0114E6  0E00               	movlw	0
  6361   0114E8  6F51               	movwf	___fladd@b& (0+255),b
  6362   0114EA  0E00               	movlw	0
  6363   0114EC  6F52               	movwf	(___fladd@b+1)& (0+255),b
  6364   0114EE  0E00               	movlw	0
  6365   0114F0  6F53               	movwf	(___fladd@b+2)& (0+255),b
  6366   0114F2  0E00               	movlw	0
  6367   0114F4  6F54               	movwf	(___fladd@b+3)& (0+255),b
  6368   0114F6                     l5029:
  6369                           
  6370                           ; BSR set to: 1
  6371   0114F6  5158               	movf	(___fladd@a+3)& (0+255),w,b
  6372   0114F8  0B80               	andlw	128
  6373   0114FA  6F5E               	movwf	___fladd@aexp& (0+255),b
  6374   0114FC                     
  6375                           ; BSR set to: 1
  6376   0114FC  515D               	movf	___fladd@signs& (0+255),w,b
  6377   0114FE  195E               	xorwf	___fladd@aexp& (0+255),w,b
  6378   011500  B4D8               	btfsc	status,2,c
  6379   011502  EF85  F08A         	goto	u4831
  6380   011506  EF87  F08A         	goto	u4830
  6381   01150A                     u4831:
  6382   01150A  EF88  F08A         	goto	l5035
  6383   01150E                     u4830:
  6384   01150E                     
  6385                           ; BSR set to: 1
  6386   01150E  8D5D               	bsf	___fladd@signs& (0+255),6,b
  6387   011510                     l5035:
  6388                           
  6389                           ; BSR set to: 1
  6390   011510  5158               	movf	(___fladd@a+3)& (0+255),w,b
  6391   011512  2558               	addwf	(___fladd@a+3)& (0+255),w,b
  6392   011514  6F5E               	movwf	___fladd@aexp& (0+255),b
  6393   011516                     
  6394                           ; BSR set to: 1
  6395   011516  AF57               	btfss	(___fladd@a+2)& (0+255),7,b
  6396   011518  EF90  F08A         	goto	u4841
  6397   01151C  EF92  F08A         	goto	u4840
  6398   011520                     u4841:
  6399   011520  EF93  F08A         	goto	l5041
  6400   011524                     u4840:
  6401   011524                     
  6402                           ; BSR set to: 1
  6403   011524  815E               	bsf	___fladd@aexp& (0+255),0,b
  6404   011526                     l5041:
  6405                           
  6406                           ; BSR set to: 1
  6407   011526  515E               	movf	___fladd@aexp& (0+255),w,b
  6408   011528  B4D8               	btfsc	status,2,c
  6409   01152A  EF99  F08A         	goto	u4851
  6410   01152E  EF9B  F08A         	goto	u4850
  6411   011532                     u4851:
  6412   011532  EFB0  F08A         	goto	l5051
  6413   011536                     u4850:
  6414   011536                     
  6415                           ; BSR set to: 1
  6416   011536  295E               	incf	___fladd@aexp& (0+255),w,b
  6417   011538  A4D8               	btfss	status,2,c
  6418   01153A  EFA1  F08A         	goto	u4861
  6419   01153E  EFA3  F08A         	goto	u4860
  6420   011542                     u4861:
  6421   011542  EFAB  F08A         	goto	l5047
  6422   011546                     u4860:
  6423   011546                     
  6424                           ; BSR set to: 1
  6425   011546  0E00               	movlw	0
  6426   011548  6F55               	movwf	___fladd@a& (0+255),b
  6427   01154A  0E00               	movlw	0
  6428   01154C  6F56               	movwf	(___fladd@a+1)& (0+255),b
  6429   01154E  0E00               	movlw	0
  6430   011550  6F57               	movwf	(___fladd@a+2)& (0+255),b
  6431   011552  0E00               	movlw	0
  6432   011554  6F58               	movwf	(___fladd@a+3)& (0+255),b
  6433   011556                     l5047:
  6434                           
  6435                           ; BSR set to: 1
  6436   011556  8F57               	bsf	(___fladd@a+2)& (0+255),7,b
  6437   011558                     
  6438                           ; BSR set to: 1
  6439   011558  0E00               	movlw	0
  6440   01155A  6F58               	movwf	(___fladd@a+3)& (0+255),b
  6441   01155C  EFB8  F08A         	goto	l5053
  6442   011560                     l5051:
  6443                           
  6444                           ; BSR set to: 1
  6445   011560  0E00               	movlw	0
  6446   011562  6F55               	movwf	___fladd@a& (0+255),b
  6447   011564  0E00               	movlw	0
  6448   011566  6F56               	movwf	(___fladd@a+1)& (0+255),b
  6449   011568  0E00               	movlw	0
  6450   01156A  6F57               	movwf	(___fladd@a+2)& (0+255),b
  6451   01156C  0E00               	movlw	0
  6452   01156E  6F58               	movwf	(___fladd@a+3)& (0+255),b
  6453   011570                     l5053:
  6454                           
  6455                           ; BSR set to: 1
  6456   011570  515F               	movf	___fladd@bexp& (0+255),w,b
  6457   011572  5D5E               	subwf	___fladd@aexp& (0+255),w,b
  6458   011574  B0D8               	btfsc	status,0,c
  6459   011576  EFBF  F08A         	goto	u4871
  6460   01157A  EFC1  F08A         	goto	u4870
  6461   01157E                     u4871:
  6462   01157E  EFE8  F08A         	goto	l5089
  6463   011582                     u4870:
  6464   011582                     
  6465                           ; BSR set to: 1
  6466   011582  AD5D               	btfss	___fladd@signs& (0+255),6,b
  6467   011584  EFC6  F08A         	goto	u4881
  6468   011588  EFC8  F08A         	goto	u4880
  6469   01158C                     u4881:
  6470   01158C  EFCA  F08A         	goto	l5059
  6471   011590                     u4880:
  6472   011590                     
  6473                           ; BSR set to: 1
  6474   011590  0E80               	movlw	128
  6475   011592  1B5D               	xorwf	___fladd@signs& (0+255),f,b
  6476   011594                     l5059:
  6477                           
  6478                           ; BSR set to: 1
  6479   011594  C15F  F160         	movff	___fladd@bexp,___fladd@grs
  6480   011598                     
  6481                           ; BSR set to: 1
  6482   011598  C15E  F15F         	movff	___fladd@aexp,___fladd@bexp
  6483   01159C                     
  6484                           ; BSR set to: 1
  6485   01159C  C160  F15E         	movff	___fladd@grs,___fladd@aexp
  6486   0115A0                     
  6487                           ; BSR set to: 1
  6488   0115A0  C151  F160         	movff	___fladd@b,___fladd@grs
  6489   0115A4                     
  6490                           ; BSR set to: 1
  6491   0115A4  C155  F151         	movff	___fladd@a,___fladd@b
  6492   0115A8                     
  6493                           ; BSR set to: 1
  6494   0115A8  C160  F155         	movff	___fladd@grs,___fladd@a
  6495   0115AC                     
  6496                           ; BSR set to: 1
  6497   0115AC  C152  F160         	movff	___fladd@b+1,___fladd@grs
  6498   0115B0                     
  6499                           ; BSR set to: 1
  6500   0115B0  C156  F152         	movff	___fladd@a+1,___fladd@b+1
  6501   0115B4                     
  6502                           ; BSR set to: 1
  6503   0115B4  C160  F156         	movff	___fladd@grs,___fladd@a+1
  6504   0115B8                     
  6505                           ; BSR set to: 1
  6506   0115B8  C153  F160         	movff	___fladd@b+2,___fladd@grs
  6507   0115BC                     
  6508                           ; BSR set to: 1
  6509   0115BC  C157  F153         	movff	___fladd@a+2,___fladd@b+2
  6510   0115C0                     
  6511                           ; BSR set to: 1
  6512   0115C0  C160  F157         	movff	___fladd@grs,___fladd@a+2
  6513   0115C4                     
  6514                           ; BSR set to: 1
  6515   0115C4  C154  F160         	movff	___fladd@b+3,___fladd@grs
  6516   0115C8                     
  6517                           ; BSR set to: 1
  6518   0115C8  C158  F154         	movff	___fladd@a+3,___fladd@b+3
  6519   0115CC                     
  6520                           ; BSR set to: 1
  6521   0115CC  C160  F158         	movff	___fladd@grs,___fladd@a+3
  6522   0115D0                     l5089:
  6523                           
  6524                           ; BSR set to: 1
  6525   0115D0  0E00               	movlw	0
  6526   0115D2  6F60               	movwf	___fladd@grs& (0+255),b
  6527   0115D4                     
  6528                           ; BSR set to: 1
  6529   0115D4  515F               	movf	___fladd@bexp& (0+255),w,b
  6530   0115D6  C15E  F159         	movff	___fladd@aexp,??___fladd
  6531   0115DA  6B5A               	clrf	(??___fladd+1)& (0+255),b
  6532   0115DC  5F59               	subwf	??___fladd& (0+255),f,b
  6533   0115DE  0E00               	movlw	0
  6534   0115E0  5B5A               	subwfb	(??___fladd+1)& (0+255),f,b
  6535   0115E2  BF5A               	btfsc	(??___fladd+1)& (0+255),7,b
  6536   0115E4  EFFD  F08A         	goto	u4891
  6537   0115E8  515A               	movf	(??___fladd+1)& (0+255),w,b
  6538   0115EA  E109               	bnz	u4890
  6539   0115EC  0E1A               	movlw	26
  6540   0115EE  5D59               	subwf	??___fladd& (0+255),w,b
  6541   0115F0  A0D8               	btfss	status,0,c
  6542   0115F2  EFFD  F08A         	goto	u4891
  6543   0115F6  EFFF  F08A         	goto	u4890
  6544   0115FA                     u4891:
  6545   0115FA  EF36  F08B         	goto	l1578
  6546   0115FE                     u4890:
  6547   0115FE                     
  6548                           ; BSR set to: 1
  6549   0115FE  5151               	movf	___fladd@b& (0+255),w,b
  6550   011600  1152               	iorwf	(___fladd@b+1)& (0+255),w,b
  6551   011602  1153               	iorwf	(___fladd@b+2)& (0+255),w,b
  6552   011604  1154               	iorwf	(___fladd@b+3)& (0+255),w,b
  6553   011606  A4D8               	btfss	status,2,c
  6554   011608  EF08  F08B         	goto	u4901
  6555   01160C  EF0B  F08B         	goto	u4900
  6556   011610                     u4901:
  6557   011610  0E01               	movlw	1
  6558   011612  EF0C  F08B         	goto	u4910
  6559   011616                     u4900:
  6560   011616  0E00               	movlw	0
  6561   011618                     u4910:
  6562   011618  6F60               	movwf	___fladd@grs& (0+255),b
  6563   01161A                     
  6564                           ; BSR set to: 1
  6565   01161A  0E00               	movlw	0
  6566   01161C  6F51               	movwf	___fladd@b& (0+255),b
  6567   01161E  0E00               	movlw	0
  6568   011620  6F52               	movwf	(___fladd@b+1)& (0+255),b
  6569   011622  0E00               	movlw	0
  6570   011624  6F53               	movwf	(___fladd@b+2)& (0+255),b
  6571   011626  0E00               	movlw	0
  6572   011628  6F54               	movwf	(___fladd@b+3)& (0+255),b
  6573   01162A                     
  6574                           ; BSR set to: 1
  6575   01162A  C15E  F15F         	movff	___fladd@aexp,___fladd@bexp
  6576   01162E  EF3F  F08B         	goto	l1577
  6577   011632                     l1579:
  6578                           
  6579                           ; BSR set to: 1
  6580   011632  A160               	btfss	___fladd@grs& (0+255),0,b
  6581   011634  EF1E  F08B         	goto	u4921
  6582   011638  EF20  F08B         	goto	u4920
  6583   01163C                     u4921:
  6584   01163C  EF26  F08B         	goto	l5101
  6585   011640                     u4920:
  6586   011640                     
  6587                           ; BSR set to: 1
  6588   011640  90D8               	bcf	status,0,c
  6589   011642  3160               	rrcf	___fladd@grs& (0+255),w,b
  6590   011644  0901               	iorlw	1
  6591   011646  6F60               	movwf	___fladd@grs& (0+255),b
  6592   011648  EF28  F08B         	goto	l5103
  6593   01164C                     l5101:
  6594                           
  6595                           ; BSR set to: 1
  6596   01164C  90D8               	bcf	status,0,c
  6597   01164E  3360               	rrcf	___fladd@grs& (0+255),f,b
  6598   011650                     l5103:
  6599                           
  6600                           ; BSR set to: 1
  6601   011650  A151               	btfss	___fladd@b& (0+255),0,b
  6602   011652  EF2D  F08B         	goto	u4931
  6603   011656  EF2F  F08B         	goto	u4930
  6604   01165A                     u4931:
  6605   01165A  EF30  F08B         	goto	l5107
  6606   01165E                     u4930:
  6607   01165E                     
  6608                           ; BSR set to: 1
  6609   01165E  8F60               	bsf	___fladd@grs& (0+255),7,b
  6610   011660                     l5107:
  6611                           
  6612                           ; BSR set to: 1
  6613   011660  3554               	rlcf	(___fladd@b+3)& (0+255),w,b
  6614   011662  3354               	rrcf	(___fladd@b+3)& (0+255),f,b
  6615   011664  3353               	rrcf	(___fladd@b+2)& (0+255),f,b
  6616   011666  3352               	rrcf	(___fladd@b+1)& (0+255),f,b
  6617   011668  3351               	rrcf	___fladd@b& (0+255),f,b
  6618   01166A                     
  6619                           ; BSR set to: 1
  6620   01166A  2B5F               	incf	___fladd@bexp& (0+255),f,b
  6621   01166C                     l1578:
  6622                           
  6623                           ; BSR set to: 1
  6624   01166C  515E               	movf	___fladd@aexp& (0+255),w,b
  6625   01166E  5D5F               	subwf	___fladd@bexp& (0+255),w,b
  6626   011670  A0D8               	btfss	status,0,c
  6627   011672  EF3D  F08B         	goto	u4941
  6628   011676  EF3F  F08B         	goto	u4940
  6629   01167A                     u4941:
  6630   01167A  EF19  F08B         	goto	l1579
  6631   01167E                     u4940:
  6632   01167E                     l1577:
  6633                           
  6634                           ; BSR set to: 1
  6635   01167E  BD5D               	btfsc	___fladd@signs& (0+255),6,b
  6636   011680  EF44  F08B         	goto	u4951
  6637   011684  EF46  F08B         	goto	u4950
  6638   011688                     u4951:
  6639   011688  EF86  F08B         	goto	l5135
  6640   01168C                     u4950:
  6641   01168C                     
  6642                           ; BSR set to: 1
  6643   01168C  515F               	movf	___fladd@bexp& (0+255),w,b
  6644   01168E  A4D8               	btfss	status,2,c
  6645   011690  EF4C  F08B         	goto	u4961
  6646   011694  EF4E  F08B         	goto	u4960
  6647   011698                     u4961:
  6648   011698  EF58  F08B         	goto	l5117
  6649   01169C                     u4960:
  6650   01169C                     
  6651                           ; BSR set to: 1
  6652   01169C  0E00               	movlw	0
  6653   01169E  6F51               	movwf	?___fladd& (0+255),b
  6654   0116A0  0E00               	movlw	0
  6655   0116A2  6F52               	movwf	(?___fladd+1)& (0+255),b
  6656   0116A4  0E00               	movlw	0
  6657   0116A6  6F53               	movwf	(?___fladd+2)& (0+255),b
  6658   0116A8  0E00               	movlw	0
  6659   0116AA  6F54               	movwf	(?___fladd+3)& (0+255),b
  6660   0116AC  EFA7  F08C         	goto	l1586
  6661   0116B0                     l5117:
  6662                           
  6663                           ; BSR set to: 1
  6664   0116B0  5155               	movf	___fladd@a& (0+255),w,b
  6665   0116B2  2751               	addwf	___fladd@b& (0+255),f,b
  6666   0116B4  5156               	movf	(___fladd@a+1)& (0+255),w,b
  6667   0116B6  2352               	addwfc	(___fladd@b+1)& (0+255),f,b
  6668   0116B8  5157               	movf	(___fladd@a+2)& (0+255),w,b
  6669   0116BA  2353               	addwfc	(___fladd@b+2)& (0+255),f,b
  6670   0116BC  5158               	movf	(___fladd@a+3)& (0+255),w,b
  6671   0116BE  2354               	addwfc	(___fladd@b+3)& (0+255),f,b
  6672   0116C0                     
  6673                           ; BSR set to: 1
  6674   0116C0  A154               	btfss	(___fladd@b+3)& (0+255),0,b
  6675   0116C2  EF65  F08B         	goto	u4971
  6676   0116C6  EF67  F08B         	goto	u4970
  6677   0116CA                     u4971:
  6678   0116CA  EF13  F08C         	goto	l5171
  6679   0116CE                     u4970:
  6680   0116CE                     
  6681                           ; BSR set to: 1
  6682   0116CE  A160               	btfss	___fladd@grs& (0+255),0,b
  6683   0116D0  EF6C  F08B         	goto	u4981
  6684   0116D4  EF6E  F08B         	goto	u4980
  6685   0116D8                     u4981:
  6686   0116D8  EF74  F08B         	goto	l5125
  6687   0116DC                     u4980:
  6688   0116DC                     
  6689                           ; BSR set to: 1
  6690   0116DC  90D8               	bcf	status,0,c
  6691   0116DE  3160               	rrcf	___fladd@grs& (0+255),w,b
  6692   0116E0  0901               	iorlw	1
  6693   0116E2  6F60               	movwf	___fladd@grs& (0+255),b
  6694   0116E4  EF76  F08B         	goto	l5127
  6695   0116E8                     l5125:
  6696                           
  6697                           ; BSR set to: 1
  6698   0116E8  90D8               	bcf	status,0,c
  6699   0116EA  3360               	rrcf	___fladd@grs& (0+255),f,b
  6700   0116EC                     l5127:
  6701                           
  6702                           ; BSR set to: 1
  6703   0116EC  A151               	btfss	___fladd@b& (0+255),0,b
  6704   0116EE  EF7B  F08B         	goto	u4991
  6705   0116F2  EF7D  F08B         	goto	u4990
  6706   0116F6                     u4991:
  6707   0116F6  EF7E  F08B         	goto	l5131
  6708   0116FA                     u4990:
  6709   0116FA                     
  6710                           ; BSR set to: 1
  6711   0116FA  8F60               	bsf	___fladd@grs& (0+255),7,b
  6712   0116FC                     l5131:
  6713                           
  6714                           ; BSR set to: 1
  6715   0116FC  3554               	rlcf	(___fladd@b+3)& (0+255),w,b
  6716   0116FE  3354               	rrcf	(___fladd@b+3)& (0+255),f,b
  6717   011700  3353               	rrcf	(___fladd@b+2)& (0+255),f,b
  6718   011702  3352               	rrcf	(___fladd@b+1)& (0+255),f,b
  6719   011704  3351               	rrcf	___fladd@b& (0+255),f,b
  6720   011706                     
  6721                           ; BSR set to: 1
  6722   011706  2B5F               	incf	___fladd@bexp& (0+255),f,b
  6723   011708  EF13  F08C         	goto	l5171
  6724   01170C                     l5135:
  6725                           
  6726                           ; BSR set to: 1
  6727   01170C  5155               	movf	___fladd@a& (0+255),w,b
  6728   01170E  5D51               	subwf	___fladd@b& (0+255),w,b
  6729   011710  5156               	movf	(___fladd@a+1)& (0+255),w,b
  6730   011712  5952               	subwfb	(___fladd@b+1)& (0+255),w,b
  6731   011714  5157               	movf	(___fladd@a+2)& (0+255),w,b
  6732   011716  5953               	subwfb	(___fladd@b+2)& (0+255),w,b
  6733   011718  5154               	movf	(___fladd@b+3)& (0+255),w,b
  6734   01171A  0A80               	xorlw	128
  6735   01171C  6F59               	movwf	??___fladd& (0+255),b
  6736   01171E  5158               	movf	(___fladd@a+3)& (0+255),w,b
  6737   011720  0A80               	xorlw	128
  6738   011722  5959               	subwfb	??___fladd& (0+255),w,b
  6739   011724  B0D8               	btfsc	status,0,c
  6740   011726  EF97  F08B         	goto	u5001
  6741   01172A  EF99  F08B         	goto	u5000
  6742   01172E                     u5001:
  6743   01172E  EFC4  F08B         	goto	l5145
  6744   011732                     u5000:
  6745   011732                     
  6746                           ; BSR set to: 1
  6747   011732  5151               	movf	___fladd@b& (0+255),w,b
  6748   011734  5D55               	subwf	___fladd@a& (0+255),w,b
  6749   011736  6F59               	movwf	??___fladd& (0+255),b
  6750   011738  5152               	movf	(___fladd@b+1)& (0+255),w,b
  6751   01173A  5956               	subwfb	(___fladd@a+1)& (0+255),w,b
  6752   01173C  6F5A               	movwf	(??___fladd+1)& (0+255),b
  6753   01173E  5153               	movf	(___fladd@b+2)& (0+255),w,b
  6754   011740  5957               	subwfb	(___fladd@a+2)& (0+255),w,b
  6755   011742  6F5B               	movwf	(??___fladd+2)& (0+255),b
  6756   011744  5154               	movf	(___fladd@b+3)& (0+255),w,b
  6757   011746  5958               	subwfb	(___fladd@a+3)& (0+255),w,b
  6758   011748  6F5C               	movwf	(??___fladd+3)& (0+255),b
  6759   01174A  0EFF               	movlw	255
  6760   01174C  2559               	addwf	??___fladd& (0+255),w,b
  6761   01174E  6F51               	movwf	___fladd@b& (0+255),b
  6762   011750  0EFF               	movlw	255
  6763   011752  215A               	addwfc	(??___fladd+1)& (0+255),w,b
  6764   011754  6F52               	movwf	(___fladd@b+1)& (0+255),b
  6765   011756  0EFF               	movlw	255
  6766   011758  215B               	addwfc	(??___fladd+2)& (0+255),w,b
  6767   01175A  6F53               	movwf	(___fladd@b+2)& (0+255),b
  6768   01175C  0EFF               	movlw	255
  6769   01175E  215C               	addwfc	(??___fladd+3)& (0+255),w,b
  6770   011760  6F54               	movwf	(___fladd@b+3)& (0+255),b
  6771   011762  0E80               	movlw	128
  6772   011764  1B5D               	xorwf	___fladd@signs& (0+255),f,b
  6773   011766                     
  6774                           ; BSR set to: 1
  6775   011766  6D60               	negf	___fladd@grs& (0+255),b
  6776   011768                     
  6777                           ; BSR set to: 1
  6778   011768  5160               	movf	___fladd@grs& (0+255),w,b
  6779   01176A  A4D8               	btfss	status,2,c
  6780   01176C  EFBA  F08B         	goto	u5011
  6781   011770  EFBC  F08B         	goto	u5010
  6782   011774                     u5011:
  6783   011774  EFCC  F08B         	goto	l1594
  6784   011778                     u5010:
  6785   011778                     
  6786                           ; BSR set to: 1
  6787   011778  0E01               	movlw	1
  6788   01177A  2751               	addwf	___fladd@b& (0+255),f,b
  6789   01177C  0E00               	movlw	0
  6790   01177E  2352               	addwfc	(___fladd@b+1)& (0+255),f,b
  6791   011780  2353               	addwfc	(___fladd@b+2)& (0+255),f,b
  6792   011782  2354               	addwfc	(___fladd@b+3)& (0+255),f,b
  6793   011784  EFCC  F08B         	goto	l1594
  6794   011788                     l5145:
  6795                           
  6796                           ; BSR set to: 1
  6797   011788  5155               	movf	___fladd@a& (0+255),w,b
  6798   01178A  5F51               	subwf	___fladd@b& (0+255),f,b
  6799   01178C  5156               	movf	(___fladd@a+1)& (0+255),w,b
  6800   01178E  5B52               	subwfb	(___fladd@b+1)& (0+255),f,b
  6801   011790  5157               	movf	(___fladd@a+2)& (0+255),w,b
  6802   011792  5B53               	subwfb	(___fladd@b+2)& (0+255),f,b
  6803   011794  5158               	movf	(___fladd@a+3)& (0+255),w,b
  6804   011796  5B54               	subwfb	(___fladd@b+3)& (0+255),f,b
  6805   011798                     l1594:
  6806                           
  6807                           ; BSR set to: 1
  6808   011798  5151               	movf	___fladd@b& (0+255),w,b
  6809   01179A  1152               	iorwf	(___fladd@b+1)& (0+255),w,b
  6810   01179C  1153               	iorwf	(___fladd@b+2)& (0+255),w,b
  6811   01179E  1154               	iorwf	(___fladd@b+3)& (0+255),w,b
  6812   0117A0  A4D8               	btfss	status,2,c
  6813   0117A2  EFD5  F08B         	goto	u5021
  6814   0117A6  EFD7  F08B         	goto	u5020
  6815   0117AA                     u5021:
  6816   0117AA  EF0C  F08C         	goto	l5169
  6817   0117AE                     u5020:
  6818   0117AE                     
  6819                           ; BSR set to: 1
  6820   0117AE  5160               	movf	___fladd@grs& (0+255),w,b
  6821   0117B0  A4D8               	btfss	status,2,c
  6822   0117B2  EFDD  F08B         	goto	u5031
  6823   0117B6  EFDF  F08B         	goto	u5030
  6824   0117BA                     u5031:
  6825   0117BA  EF0C  F08C         	goto	l5169
  6826   0117BE                     u5030:
  6827   0117BE                     
  6828                           ; BSR set to: 1
  6829   0117BE  0E00               	movlw	0
  6830   0117C0  6F51               	movwf	?___fladd& (0+255),b
  6831   0117C2  0E00               	movlw	0
  6832   0117C4  6F52               	movwf	(?___fladd+1)& (0+255),b
  6833   0117C6  0E00               	movlw	0
  6834   0117C8  6F53               	movwf	(?___fladd+2)& (0+255),b
  6835   0117CA  0E00               	movlw	0
  6836   0117CC  6F54               	movwf	(?___fladd+3)& (0+255),b
  6837   0117CE  EFA7  F08C         	goto	l1586
  6838   0117D2                     l5153:
  6839                           
  6840                           ; BSR set to: 1
  6841   0117D2  90D8               	bcf	status,0,c
  6842   0117D4  3751               	rlcf	___fladd@b& (0+255),f,b
  6843   0117D6  3752               	rlcf	(___fladd@b+1)& (0+255),f,b
  6844   0117D8  3753               	rlcf	(___fladd@b+2)& (0+255),f,b
  6845   0117DA  3754               	rlcf	(___fladd@b+3)& (0+255),f,b
  6846   0117DC                     
  6847                           ; BSR set to: 1
  6848   0117DC  AF60               	btfss	___fladd@grs& (0+255),7,b
  6849   0117DE  EFF3  F08B         	goto	u5041
  6850   0117E2  EFF5  F08B         	goto	u5040
  6851   0117E6                     u5041:
  6852   0117E6  EFF6  F08B         	goto	l5159
  6853   0117EA                     u5040:
  6854   0117EA                     
  6855                           ; BSR set to: 1
  6856   0117EA  8151               	bsf	___fladd@b& (0+255),0,b
  6857   0117EC                     l5159:
  6858                           
  6859                           ; BSR set to: 1
  6860   0117EC  A160               	btfss	___fladd@grs& (0+255),0,b
  6861   0117EE  EFFB  F08B         	goto	u5051
  6862   0117F2  EFFD  F08B         	goto	u5050
  6863   0117F6                     u5051:
  6864   0117F6  EF01  F08C         	goto	l5163
  6865   0117FA                     u5050:
  6866   0117FA                     
  6867                           ; BSR set to: 1
  6868   0117FA  80D8               	bsf	status,0,c
  6869   0117FC  3760               	rlcf	___fladd@grs& (0+255),f,b
  6870   0117FE  EF03  F08C         	goto	l5165
  6871   011802                     l5163:
  6872                           
  6873                           ; BSR set to: 1
  6874   011802  90D8               	bcf	status,0,c
  6875   011804  3760               	rlcf	___fladd@grs& (0+255),f,b
  6876   011806                     l5165:
  6877                           
  6878                           ; BSR set to: 1
  6879   011806  515F               	movf	___fladd@bexp& (0+255),w,b
  6880   011808  B4D8               	btfsc	status,2,c
  6881   01180A  EF09  F08C         	goto	u5061
  6882   01180E  EF0B  F08C         	goto	u5060
  6883   011812                     u5061:
  6884   011812  EF0C  F08C         	goto	l5169
  6885   011816                     u5060:
  6886   011816                     
  6887                           ; BSR set to: 1
  6888   011816  075F               	decf	___fladd@bexp& (0+255),f,b
  6889   011818                     l5169:
  6890                           
  6891                           ; BSR set to: 1
  6892   011818  AF53               	btfss	(___fladd@b+2)& (0+255),7,b
  6893   01181A  EF11  F08C         	goto	u5071
  6894   01181E  EF13  F08C         	goto	u5070
  6895   011822                     u5071:
  6896   011822  EFE9  F08B         	goto	l5153
  6897   011826                     u5070:
  6898   011826                     l5171:
  6899                           
  6900                           ; BSR set to: 1
  6901   011826  0E00               	movlw	0
  6902   011828  6F5E               	movwf	___fladd@aexp& (0+255),b
  6903   01182A                     
  6904                           ; BSR set to: 1
  6905   01182A  AF60               	btfss	___fladd@grs& (0+255),7,b
  6906   01182C  EF1A  F08C         	goto	u5081
  6907   011830  EF1C  F08C         	goto	u5080
  6908   011834                     u5081:
  6909   011834  EF34  F08C         	goto	l1603
  6910   011838                     u5080:
  6911   011838                     
  6912                           ; BSR set to: 1
  6913   011838  C160  F159         	movff	___fladd@grs,??___fladd
  6914   01183C  0E7F               	movlw	127
  6915   01183E  1759               	andwf	??___fladd& (0+255),f,b
  6916   011840  B4D8               	btfsc	status,2,c
  6917   011842  EF25  F08C         	goto	u5091
  6918   011846  EF27  F08C         	goto	u5090
  6919   01184A                     u5091:
  6920   01184A  EF2B  F08C         	goto	l1604
  6921   01184E                     u5090:
  6922   01184E                     l5177:
  6923                           
  6924                           ; BSR set to: 1
  6925   01184E  0E01               	movlw	1
  6926   011850  6F5E               	movwf	___fladd@aexp& (0+255),b
  6927   011852  EF34  F08C         	goto	l1603
  6928   011856                     l1604:
  6929                           
  6930                           ; BSR set to: 1
  6931   011856  A151               	btfss	___fladd@b& (0+255),0,b
  6932   011858  EF30  F08C         	goto	u5101
  6933   01185C  EF32  F08C         	goto	u5100
  6934   011860                     u5101:
  6935   011860  EF34  F08C         	goto	l1603
  6936   011864                     u5100:
  6937   011864  EF27  F08C         	goto	l5177
  6938   011868                     l1603:
  6939                           
  6940                           ; BSR set to: 1
  6941   011868  515E               	movf	___fladd@aexp& (0+255),w,b
  6942   01186A  B4D8               	btfsc	status,2,c
  6943   01186C  EF3A  F08C         	goto	u5111
  6944   011870  EF3C  F08C         	goto	u5110
  6945   011874                     u5111:
  6946   011874  EF67  F08C         	goto	l5189
  6947   011878                     u5110:
  6948   011878                     
  6949                           ; BSR set to: 1
  6950   011878  0E01               	movlw	1
  6951   01187A  2751               	addwf	___fladd@b& (0+255),f,b
  6952   01187C  0E00               	movlw	0
  6953   01187E  2352               	addwfc	(___fladd@b+1)& (0+255),f,b
  6954   011880  2353               	addwfc	(___fladd@b+2)& (0+255),f,b
  6955   011882  2354               	addwfc	(___fladd@b+3)& (0+255),f,b
  6956   011884                     
  6957                           ; BSR set to: 1
  6958   011884  A154               	btfss	(___fladd@b+3)& (0+255),0,b
  6959   011886  EF47  F08C         	goto	u5121
  6960   01188A  EF49  F08C         	goto	u5120
  6961   01188E                     u5121:
  6962   01188E  EF67  F08C         	goto	l5189
  6963   011892                     u5120:
  6964   011892                     
  6965                           ; BSR set to: 1
  6966   011892  C151  F159         	movff	___fladd@b,??___fladd
  6967   011896  C152  F15A         	movff	___fladd@b+1,??___fladd+1
  6968   01189A  C153  F15B         	movff	___fladd@b+2,??___fladd+2
  6969   01189E  C154  F15C         	movff	___fladd@b+3,??___fladd+3
  6970   0118A2  355C               	rlcf	(??___fladd+3)& (0+255),w,b
  6971   0118A4  335C               	rrcf	(??___fladd+3)& (0+255),f,b
  6972   0118A6  335B               	rrcf	(??___fladd+2)& (0+255),f,b
  6973   0118A8  335A               	rrcf	(??___fladd+1)& (0+255),f,b
  6974   0118AA  3359               	rrcf	??___fladd& (0+255),f,b
  6975   0118AC  C159  F151         	movff	??___fladd,___fladd@b
  6976   0118B0  C15A  F152         	movff	??___fladd+1,___fladd@b+1
  6977   0118B4  C15B  F153         	movff	??___fladd+2,___fladd@b+2
  6978   0118B8  C15C  F154         	movff	??___fladd+3,___fladd@b+3
  6979   0118BC  295F               	incf	___fladd@bexp& (0+255),w,b
  6980   0118BE  B4D8               	btfsc	status,2,c
  6981   0118C0  EF64  F08C         	goto	u5131
  6982   0118C4  EF66  F08C         	goto	u5130
  6983   0118C8                     u5131:
  6984   0118C8  EF67  F08C         	goto	l5189
  6985   0118CC                     u5130:
  6986   0118CC                     
  6987                           ; BSR set to: 1
  6988   0118CC  2B5F               	incf	___fladd@bexp& (0+255),f,b
  6989   0118CE                     l5189:
  6990                           
  6991                           ; BSR set to: 1
  6992   0118CE  295F               	incf	___fladd@bexp& (0+255),w,b
  6993   0118D0  B4D8               	btfsc	status,2,c
  6994   0118D2  EF6D  F08C         	goto	u5141
  6995   0118D6  EF6F  F08C         	goto	u5140
  6996   0118DA                     u5141:
  6997   0118DA  EF77  F08C         	goto	l5193
  6998   0118DE                     u5140:
  6999   0118DE                     
  7000                           ; BSR set to: 1
  7001   0118DE  515F               	movf	___fladd@bexp& (0+255),w,b
  7002   0118E0  A4D8               	btfss	status,2,c
  7003   0118E2  EF75  F08C         	goto	u5151
  7004   0118E6  EF77  F08C         	goto	u5150
  7005   0118EA                     u5151:
  7006   0118EA  EF89  F08C         	goto	l5197
  7007   0118EE                     u5150:
  7008   0118EE                     l5193:
  7009                           
  7010                           ; BSR set to: 1
  7011   0118EE  0E00               	movlw	0
  7012   0118F0  6F51               	movwf	___fladd@b& (0+255),b
  7013   0118F2  0E00               	movlw	0
  7014   0118F4  6F52               	movwf	(___fladd@b+1)& (0+255),b
  7015   0118F6  0E00               	movlw	0
  7016   0118F8  6F53               	movwf	(___fladd@b+2)& (0+255),b
  7017   0118FA  0E00               	movlw	0
  7018   0118FC  6F54               	movwf	(___fladd@b+3)& (0+255),b
  7019   0118FE  515F               	movf	___fladd@bexp& (0+255),w,b
  7020   011900  A4D8               	btfss	status,2,c
  7021   011902  EF85  F08C         	goto	u5161
  7022   011906  EF87  F08C         	goto	u5160
  7023   01190A                     u5161:
  7024   01190A  EF89  F08C         	goto	l5197
  7025   01190E                     u5160:
  7026   01190E                     
  7027                           ; BSR set to: 1
  7028   01190E  0E00               	movlw	0
  7029   011910  6F5D               	movwf	___fladd@signs& (0+255),b
  7030   011912                     l5197:
  7031                           
  7032                           ; BSR set to: 1
  7033   011912  A15F               	btfss	___fladd@bexp& (0+255),0,b
  7034   011914  EF8E  F08C         	goto	u5171
  7035   011918  EF90  F08C         	goto	u5170
  7036   01191C                     u5171:
  7037   01191C  EF93  F08C         	goto	l5201
  7038   011920                     u5170:
  7039   011920                     
  7040                           ; BSR set to: 1
  7041   011920  8F53               	bsf	(___fladd@b+2)& (0+255),7,b
  7042   011922  EF94  F08C         	goto	l5203
  7043   011926                     l5201:
  7044                           
  7045                           ; BSR set to: 1
  7046   011926  9F53               	bcf	(___fladd@b+2)& (0+255),7,b
  7047   011928                     l5203:
  7048                           
  7049                           ; BSR set to: 1
  7050   011928  90D8               	bcf	status,0,c
  7051   01192A  315F               	rrcf	___fladd@bexp& (0+255),w,b
  7052   01192C  6F54               	movwf	(___fladd@b+3)& (0+255),b
  7053   01192E                     
  7054                           ; BSR set to: 1
  7055   01192E  AF5D               	btfss	___fladd@signs& (0+255),7,b
  7056   011930  EF9C  F08C         	goto	u5181
  7057   011934  EF9E  F08C         	goto	u5180
  7058   011938                     u5181:
  7059   011938  EF9F  F08C         	goto	l5209
  7060   01193C                     u5180:
  7061   01193C                     
  7062                           ; BSR set to: 1
  7063   01193C  8F54               	bsf	(___fladd@b+3)& (0+255),7,b
  7064   01193E                     l5209:
  7065                           
  7066                           ; BSR set to: 1
  7067   01193E  C151  F151         	movff	___fladd@b,?___fladd
  7068   011942  C152  F152         	movff	___fladd@b+1,?___fladd+1
  7069   011946  C153  F153         	movff	___fladd@b+2,?___fladd+2
  7070   01194A  C154  F154         	movff	___fladd@b+3,?___fladd+3
  7071   01194E                     l1586:
  7072                           
  7073                           ; BSR set to: 1
  7074   01194E  0012               	return		;funcret
  7075   011950                     __end_of___fladd:
  7076                           	callstack 0
  7077                           
  7078 ;; *************** function ___flmul *****************
  7079 ;; Defined at:
  7080 ;;		line 8 in file "C:\Program Files\Microchip\xc8\v2.46\pic\sources\c99\common\sprcmul.c"
  7081 ;; Parameters:    Size  Location     Type
  7082 ;;  b               4   56[BANK1 ] unsigned char 
  7083 ;;  a               4   60[BANK1 ] unsigned char 
  7084 ;; Auto vars:     Size  Location     Type
  7085 ;;  prod            4   75[BANK1 ] struct .
  7086 ;;  grs             4   69[BANK1 ] unsigned long 
  7087 ;;  temp            2   79[BANK1 ] struct .
  7088 ;;  bexp            1   74[BANK1 ] unsigned char 
  7089 ;;  aexp            1   73[BANK1 ] unsigned char 
  7090 ;;  sign            1   68[BANK1 ] unsigned char 
  7091 ;; Return value:  Size  Location     Type
  7092 ;;                  4   56[BANK1 ] unsigned char 
  7093 ;; Registers used:
  7094 ;;		wreg, status,2, status,0, prodl, prodh
  7095 ;; Tracked objects:
  7096 ;;		On entry : 0/0
  7097 ;;		On exit  : 0/0
  7098 ;;		Unchanged: 0/0
  7099 ;; Data sizes:     COMRAM   BANK0   BANK1   BANK2   BANK3   BANK4   BANK5   BANK6   BANK7   BANK8   BANK9  BANK10  BANK1
      +1  BANK12  BANK13  BANK14
  7100 ;;      Params:         0       0       8       0       0       0       0       0       0       0       0       0       
      +0       0       0       0
  7101 ;;      Locals:         0       0      13       0       0       0       0       0       0       0       0       0       
      +0       0       0       0
  7102 ;;      Temps:          0       0       4       0       0       0       0       0       0       0       0       0       
      +0       0       0       0
  7103 ;;      Totals:         0       0      25       0       0       0       0       0       0       0       0       0       
      +0       0       0       0
  7104 ;;Total ram usage:       25 bytes
  7105 ;; Hardware stack levels used: 1
  7106 ;; Hardware stack levels required when called: 6
  7107 ;; This function calls:
  7108 ;;		Nothing
  7109 ;; This function is called by:
  7110 ;;		_Motors_Turn_Angle
  7111 ;;		_NOTE
  7112 ;;		_NOTE_Start
  7113 ;; This function uses a non-reentrant model
  7114 ;;
  7115                           
  7116                           	psect	text19
  7117   011E12                     __ptext19:
  7118                           	callstack 0
  7119   011E12                     ___flmul:
  7120                           	callstack 21
  7121   011E12  0101               	movlb	1	; () banked
  7122   011E14  513B               	movf	(___flmul@b+3)& (0+255),w,b
  7123   011E16  0B80               	andlw	128
  7124   011E18  6F44               	movwf	___flmul@sign& (0+255),b
  7125   011E1A  513B               	movf	(___flmul@b+3)& (0+255),w,b
  7126   011E1C  253B               	addwf	(___flmul@b+3)& (0+255),w,b
  7127   011E1E  6F4A               	movwf	___flmul@bexp& (0+255),b
  7128   011E20                     
  7129                           ; BSR set to: 1
  7130   011E20  AF3A               	btfss	(___flmul@b+2)& (0+255),7,b
  7131   011E22  EF15  F08F         	goto	u5201
  7132   011E26  EF17  F08F         	goto	u5200
  7133   011E2A                     u5201:
  7134   011E2A  EF18  F08F         	goto	l5237
  7135   011E2E                     u5200:
  7136   011E2E                     
  7137                           ; BSR set to: 1
  7138   011E2E  814A               	bsf	___flmul@bexp& (0+255),0,b
  7139   011E30                     l5237:
  7140                           
  7141                           ; BSR set to: 1
  7142   011E30  514A               	movf	___flmul@bexp& (0+255),w,b
  7143   011E32  B4D8               	btfsc	status,2,c
  7144   011E34  EF1E  F08F         	goto	u5211
  7145   011E38  EF20  F08F         	goto	u5210
  7146   011E3C                     u5211:
  7147   011E3C  EF33  F08F         	goto	l5245
  7148   011E40                     u5210:
  7149   011E40                     
  7150                           ; BSR set to: 1
  7151   011E40  294A               	incf	___flmul@bexp& (0+255),w,b
  7152   011E42  A4D8               	btfss	status,2,c
  7153   011E44  EF26  F08F         	goto	u5221
  7154   011E48  EF28  F08F         	goto	u5220
  7155   011E4C                     u5221:
  7156   011E4C  EF30  F08F         	goto	l5243
  7157   011E50                     u5220:
  7158   011E50                     
  7159                           ; BSR set to: 1
  7160   011E50  0E00               	movlw	0
  7161   011E52  6F38               	movwf	___flmul@b& (0+255),b
  7162   011E54  0E00               	movlw	0
  7163   011E56  6F39               	movwf	(___flmul@b+1)& (0+255),b
  7164   011E58  0E00               	movlw	0
  7165   011E5A  6F3A               	movwf	(___flmul@b+2)& (0+255),b
  7166   011E5C  0E00               	movlw	0
  7167   011E5E  6F3B               	movwf	(___flmul@b+3)& (0+255),b
  7168   011E60                     l5243:
  7169                           
  7170                           ; BSR set to: 1
  7171   011E60  8F3A               	bsf	(___flmul@b+2)& (0+255),7,b
  7172   011E62  EF3B  F08F         	goto	l5247
  7173   011E66                     l5245:
  7174                           
  7175                           ; BSR set to: 1
  7176   011E66  0E00               	movlw	0
  7177   011E68  6F38               	movwf	___flmul@b& (0+255),b
  7178   011E6A  0E00               	movlw	0
  7179   011E6C  6F39               	movwf	(___flmul@b+1)& (0+255),b
  7180   011E6E  0E00               	movlw	0
  7181   011E70  6F3A               	movwf	(___flmul@b+2)& (0+255),b
  7182   011E72  0E00               	movlw	0
  7183   011E74  6F3B               	movwf	(___flmul@b+3)& (0+255),b
  7184   011E76                     l5247:
  7185                           
  7186                           ; BSR set to: 1
  7187   011E76  513F               	movf	(___flmul@a+3)& (0+255),w,b
  7188   011E78  0B80               	andlw	128
  7189   011E7A  1B44               	xorwf	___flmul@sign& (0+255),f,b
  7190   011E7C                     
  7191                           ; BSR set to: 1
  7192   011E7C  513F               	movf	(___flmul@a+3)& (0+255),w,b
  7193   011E7E  253F               	addwf	(___flmul@a+3)& (0+255),w,b
  7194   011E80  6F49               	movwf	___flmul@aexp& (0+255),b
  7195   011E82                     
  7196                           ; BSR set to: 1
  7197   011E82  AF3E               	btfss	(___flmul@a+2)& (0+255),7,b
  7198   011E84  EF46  F08F         	goto	u5231
  7199   011E88  EF48  F08F         	goto	u5230
  7200   011E8C                     u5231:
  7201   011E8C  EF49  F08F         	goto	l5255
  7202   011E90                     u5230:
  7203   011E90                     
  7204                           ; BSR set to: 1
  7205   011E90  8149               	bsf	___flmul@aexp& (0+255),0,b
  7206   011E92                     l5255:
  7207                           
  7208                           ; BSR set to: 1
  7209   011E92  5149               	movf	___flmul@aexp& (0+255),w,b
  7210   011E94  B4D8               	btfsc	status,2,c
  7211   011E96  EF4F  F08F         	goto	u5241
  7212   011E9A  EF51  F08F         	goto	u5240
  7213   011E9E                     u5241:
  7214   011E9E  EF64  F08F         	goto	l5263
  7215   011EA2                     u5240:
  7216   011EA2                     
  7217                           ; BSR set to: 1
  7218   011EA2  2949               	incf	___flmul@aexp& (0+255),w,b
  7219   011EA4  A4D8               	btfss	status,2,c
  7220   011EA6  EF57  F08F         	goto	u5251
  7221   011EAA  EF59  F08F         	goto	u5250
  7222   011EAE                     u5251:
  7223   011EAE  EF61  F08F         	goto	l5261
  7224   011EB2                     u5250:
  7225   011EB2                     
  7226                           ; BSR set to: 1
  7227   011EB2  0E00               	movlw	0
  7228   011EB4  6F3C               	movwf	___flmul@a& (0+255),b
  7229   011EB6  0E00               	movlw	0
  7230   011EB8  6F3D               	movwf	(___flmul@a+1)& (0+255),b
  7231   011EBA  0E00               	movlw	0
  7232   011EBC  6F3E               	movwf	(___flmul@a+2)& (0+255),b
  7233   011EBE  0E00               	movlw	0
  7234   011EC0  6F3F               	movwf	(___flmul@a+3)& (0+255),b
  7235   011EC2                     l5261:
  7236                           
  7237                           ; BSR set to: 1
  7238   011EC2  8F3E               	bsf	(___flmul@a+2)& (0+255),7,b
  7239   011EC4  EF6C  F08F         	goto	l1663
  7240   011EC8                     l5263:
  7241                           
  7242                           ; BSR set to: 1
  7243   011EC8  0E00               	movlw	0
  7244   011ECA  6F3C               	movwf	___flmul@a& (0+255),b
  7245   011ECC  0E00               	movlw	0
  7246   011ECE  6F3D               	movwf	(___flmul@a+1)& (0+255),b
  7247   011ED0  0E00               	movlw	0
  7248   011ED2  6F3E               	movwf	(___flmul@a+2)& (0+255),b
  7249   011ED4  0E00               	movlw	0
  7250   011ED6  6F3F               	movwf	(___flmul@a+3)& (0+255),b
  7251   011ED8                     l1663:
  7252                           
  7253                           ; BSR set to: 1
  7254   011ED8  5149               	movf	___flmul@aexp& (0+255),w,b
  7255   011EDA  B4D8               	btfsc	status,2,c
  7256   011EDC  EF72  F08F         	goto	u5261
  7257   011EE0  EF74  F08F         	goto	u5260
  7258   011EE4                     u5261:
  7259   011EE4  EF7C  F08F         	goto	l5267
  7260   011EE8                     u5260:
  7261   011EE8                     
  7262                           ; BSR set to: 1
  7263   011EE8  514A               	movf	___flmul@bexp& (0+255),w,b
  7264   011EEA  A4D8               	btfss	status,2,c
  7265   011EEC  EF7A  F08F         	goto	u5271
  7266   011EF0  EF7C  F08F         	goto	u5270
  7267   011EF4                     u5271:
  7268   011EF4  EF86  F08F         	goto	l5271
  7269   011EF8                     u5270:
  7270   011EF8                     l5267:
  7271                           
  7272                           ; BSR set to: 1
  7273   011EF8  0E00               	movlw	0
  7274   011EFA  6F38               	movwf	?___flmul& (0+255),b
  7275   011EFC  0E00               	movlw	0
  7276   011EFE  6F39               	movwf	(?___flmul+1)& (0+255),b
  7277   011F00  0E00               	movlw	0
  7278   011F02  6F3A               	movwf	(?___flmul+2)& (0+255),b
  7279   011F04  0E00               	movlw	0
  7280   011F06  6F3B               	movwf	(?___flmul+3)& (0+255),b
  7281   011F08  EF1E  F091         	goto	l1667
  7282   011F0C                     l5271:
  7283                           
  7284                           ; BSR set to: 1
  7285   011F0C  513E               	movf	(___flmul@a+2)& (0+255),w,b
  7286   011F0E  0338               	mulwf	___flmul@b& (0+255),b
  7287   011F10  CFF3 F14F          	movff	prodl,___flmul@temp
  7288   011F14  CFF4 F150          	movff	prodh,___flmul@temp+1
  7289   011F18                     
  7290                           ; BSR set to: 1
  7291   011F18  514F               	movf	___flmul@temp& (0+255),w,b
  7292   011F1A  6F45               	movwf	___flmul@grs& (0+255),b
  7293   011F1C  6B46               	clrf	(___flmul@grs+1)& (0+255),b
  7294   011F1E  6B47               	clrf	(___flmul@grs+2)& (0+255),b
  7295   011F20  6B48               	clrf	(___flmul@grs+3)& (0+255),b
  7296   011F22                     
  7297                           ; BSR set to: 1
  7298   011F22  5150               	movf	(___flmul@temp+1)& (0+255),w,b
  7299   011F24  6F4B               	movwf	___flmul@prod& (0+255),b
  7300   011F26  6B4C               	clrf	(___flmul@prod+1)& (0+255),b
  7301   011F28  6B4D               	clrf	(___flmul@prod+2)& (0+255),b
  7302   011F2A  6B4E               	clrf	(___flmul@prod+3)& (0+255),b
  7303   011F2C  513D               	movf	(___flmul@a+1)& (0+255),w,b
  7304   011F2E  0339               	mulwf	(___flmul@b+1)& (0+255),b
  7305   011F30  CFF3 F14F          	movff	prodl,___flmul@temp
  7306   011F34  CFF4 F150          	movff	prodh,___flmul@temp+1
  7307   011F38                     
  7308                           ; BSR set to: 1
  7309   011F38  514F               	movf	___flmul@temp& (0+255),w,b
  7310   011F3A  2745               	addwf	___flmul@grs& (0+255),f,b
  7311   011F3C  0E00               	movlw	0
  7312   011F3E  2346               	addwfc	(___flmul@grs+1)& (0+255),f,b
  7313   011F40  2347               	addwfc	(___flmul@grs+2)& (0+255),f,b
  7314   011F42  2348               	addwfc	(___flmul@grs+3)& (0+255),f,b
  7315   011F44                     
  7316                           ; BSR set to: 1
  7317   011F44  5150               	movf	(___flmul@temp+1)& (0+255),w,b
  7318   011F46  274B               	addwf	___flmul@prod& (0+255),f,b
  7319   011F48  0E00               	movlw	0
  7320   011F4A  234C               	addwfc	(___flmul@prod+1)& (0+255),f,b
  7321   011F4C  234D               	addwfc	(___flmul@prod+2)& (0+255),f,b
  7322   011F4E  234E               	addwfc	(___flmul@prod+3)& (0+255),f,b
  7323   011F50  513C               	movf	___flmul@a& (0+255),w,b
  7324   011F52  033A               	mulwf	(___flmul@b+2)& (0+255),b
  7325   011F54  CFF3 F14F          	movff	prodl,___flmul@temp
  7326   011F58  CFF4 F150          	movff	prodh,___flmul@temp+1
  7327   011F5C                     
  7328                           ; BSR set to: 1
  7329   011F5C  514F               	movf	___flmul@temp& (0+255),w,b
  7330   011F5E  2745               	addwf	___flmul@grs& (0+255),f,b
  7331   011F60  0E00               	movlw	0
  7332   011F62  2346               	addwfc	(___flmul@grs+1)& (0+255),f,b
  7333   011F64  2347               	addwfc	(___flmul@grs+2)& (0+255),f,b
  7334   011F66  2348               	addwfc	(___flmul@grs+3)& (0+255),f,b
  7335   011F68                     
  7336                           ; BSR set to: 1
  7337   011F68  5150               	movf	(___flmul@temp+1)& (0+255),w,b
  7338   011F6A  274B               	addwf	___flmul@prod& (0+255),f,b
  7339   011F6C  0E00               	movlw	0
  7340   011F6E  234C               	addwfc	(___flmul@prod+1)& (0+255),f,b
  7341   011F70  234D               	addwfc	(___flmul@prod+2)& (0+255),f,b
  7342   011F72  234E               	addwfc	(___flmul@prod+3)& (0+255),f,b
  7343   011F74                     
  7344                           ; BSR set to: 1
  7345   011F74  C147  F148         	movff	___flmul@grs+2,___flmul@grs+3
  7346   011F78  C146  F147         	movff	___flmul@grs+1,___flmul@grs+2
  7347   011F7C  C145  F146         	movff	___flmul@grs,___flmul@grs+1
  7348   011F80  6B45               	clrf	___flmul@grs& (0+255),b
  7349   011F82                     
  7350                           ; BSR set to: 1
  7351   011F82  513C               	movf	___flmul@a& (0+255),w,b
  7352   011F84  0339               	mulwf	(___flmul@b+1)& (0+255),b
  7353   011F86  CFF3 F14F          	movff	prodl,___flmul@temp
  7354   011F8A  CFF4 F150          	movff	prodh,___flmul@temp+1
  7355   011F8E                     
  7356                           ; BSR set to: 1
  7357   011F8E  514F               	movf	___flmul@temp& (0+255),w,b
  7358   011F90  2745               	addwf	___flmul@grs& (0+255),f,b
  7359   011F92  5150               	movf	(___flmul@temp+1)& (0+255),w,b
  7360   011F94  2346               	addwfc	(___flmul@grs+1)& (0+255),f,b
  7361   011F96  0E00               	movlw	0
  7362   011F98  2347               	addwfc	(___flmul@grs+2)& (0+255),f,b
  7363   011F9A  0E00               	movlw	0
  7364   011F9C  2348               	addwfc	(___flmul@grs+3)& (0+255),f,b
  7365   011F9E                     
  7366                           ; BSR set to: 1
  7367   011F9E  513D               	movf	(___flmul@a+1)& (0+255),w,b
  7368   011FA0  0338               	mulwf	___flmul@b& (0+255),b
  7369   011FA2  CFF3 F14F          	movff	prodl,___flmul@temp
  7370   011FA6  CFF4 F150          	movff	prodh,___flmul@temp+1
  7371   011FAA                     
  7372                           ; BSR set to: 1
  7373   011FAA  514F               	movf	___flmul@temp& (0+255),w,b
  7374   011FAC  2745               	addwf	___flmul@grs& (0+255),f,b
  7375   011FAE  5150               	movf	(___flmul@temp+1)& (0+255),w,b
  7376   011FB0  2346               	addwfc	(___flmul@grs+1)& (0+255),f,b
  7377   011FB2  0E00               	movlw	0
  7378   011FB4  2347               	addwfc	(___flmul@grs+2)& (0+255),f,b
  7379   011FB6  0E00               	movlw	0
  7380   011FB8  2348               	addwfc	(___flmul@grs+3)& (0+255),f,b
  7381   011FBA                     
  7382                           ; BSR set to: 1
  7383   011FBA  C147  F148         	movff	___flmul@grs+2,___flmul@grs+3
  7384   011FBE  C146  F147         	movff	___flmul@grs+1,___flmul@grs+2
  7385   011FC2  C145  F146         	movff	___flmul@grs,___flmul@grs+1
  7386   011FC6  6B45               	clrf	___flmul@grs& (0+255),b
  7387   011FC8  513C               	movf	___flmul@a& (0+255),w,b
  7388   011FCA  0338               	mulwf	___flmul@b& (0+255),b
  7389   011FCC  CFF3 F14F          	movff	prodl,___flmul@temp
  7390   011FD0  CFF4 F150          	movff	prodh,___flmul@temp+1
  7391   011FD4                     
  7392                           ; BSR set to: 1
  7393   011FD4  514F               	movf	___flmul@temp& (0+255),w,b
  7394   011FD6  2745               	addwf	___flmul@grs& (0+255),f,b
  7395   011FD8  5150               	movf	(___flmul@temp+1)& (0+255),w,b
  7396   011FDA  2346               	addwfc	(___flmul@grs+1)& (0+255),f,b
  7397   011FDC  0E00               	movlw	0
  7398   011FDE  2347               	addwfc	(___flmul@grs+2)& (0+255),f,b
  7399   011FE0  0E00               	movlw	0
  7400   011FE2  2348               	addwfc	(___flmul@grs+3)& (0+255),f,b
  7401   011FE4                     
  7402                           ; BSR set to: 1
  7403   011FE4  513E               	movf	(___flmul@a+2)& (0+255),w,b
  7404   011FE6  0339               	mulwf	(___flmul@b+1)& (0+255),b
  7405   011FE8  CFF3 F14F          	movff	prodl,___flmul@temp
  7406   011FEC  CFF4 F150          	movff	prodh,___flmul@temp+1
  7407   011FF0  514F               	movf	___flmul@temp& (0+255),w,b
  7408   011FF2  274B               	addwf	___flmul@prod& (0+255),f,b
  7409   011FF4  5150               	movf	(___flmul@temp+1)& (0+255),w,b
  7410   011FF6  234C               	addwfc	(___flmul@prod+1)& (0+255),f,b
  7411   011FF8  0E00               	movlw	0
  7412   011FFA  234D               	addwfc	(___flmul@prod+2)& (0+255),f,b
  7413   011FFC  0E00               	movlw	0
  7414   011FFE  234E               	addwfc	(___flmul@prod+3)& (0+255),f,b
  7415   012000                     
  7416                           ; BSR set to: 1
  7417   012000  513D               	movf	(___flmul@a+1)& (0+255),w,b
  7418   012002  033A               	mulwf	(___flmul@b+2)& (0+255),b
  7419   012004  CFF3 F14F          	movff	prodl,___flmul@temp
  7420   012008  CFF4 F150          	movff	prodh,___flmul@temp+1
  7421   01200C                     
  7422                           ; BSR set to: 1
  7423   01200C  514F               	movf	___flmul@temp& (0+255),w,b
  7424   01200E  274B               	addwf	___flmul@prod& (0+255),f,b
  7425   012010  5150               	movf	(___flmul@temp+1)& (0+255),w,b
  7426   012012  234C               	addwfc	(___flmul@prod+1)& (0+255),f,b
  7427   012014  0E00               	movlw	0
  7428   012016  234D               	addwfc	(___flmul@prod+2)& (0+255),f,b
  7429   012018  0E00               	movlw	0
  7430   01201A  234E               	addwfc	(___flmul@prod+3)& (0+255),f,b
  7431   01201C  513E               	movf	(___flmul@a+2)& (0+255),w,b
  7432   01201E  033A               	mulwf	(___flmul@b+2)& (0+255),b
  7433   012020  CFF3 F14F          	movff	prodl,___flmul@temp
  7434   012024  CFF4 F150          	movff	prodh,___flmul@temp+1
  7435   012028                     
  7436                           ; BSR set to: 1
  7437   012028  514F               	movf	___flmul@temp& (0+255),w,b
  7438   01202A  6F40               	movwf	??___flmul& (0+255),b
  7439   01202C  5150               	movf	(___flmul@temp+1)& (0+255),w,b
  7440   01202E  6F41               	movwf	(??___flmul+1)& (0+255),b
  7441   012030  6B42               	clrf	(??___flmul+2)& (0+255),b
  7442   012032  6B43               	clrf	(??___flmul+3)& (0+255),b
  7443   012034  C142  F143         	movff	??___flmul+2,??___flmul+3
  7444   012038  C141  F142         	movff	??___flmul+1,??___flmul+2
  7445   01203C  C140  F141         	movff	??___flmul,??___flmul+1
  7446   012040  6B40               	clrf	??___flmul& (0+255),b
  7447   012042  5140               	movf	??___flmul& (0+255),w,b
  7448   012044  274B               	addwf	___flmul@prod& (0+255),f,b
  7449   012046  5141               	movf	(??___flmul+1)& (0+255),w,b
  7450   012048  234C               	addwfc	(___flmul@prod+1)& (0+255),f,b
  7451   01204A  5142               	movf	(??___flmul+2)& (0+255),w,b
  7452   01204C  234D               	addwfc	(___flmul@prod+2)& (0+255),f,b
  7453   01204E  5143               	movf	(??___flmul+3)& (0+255),w,b
  7454   012050  234E               	addwfc	(___flmul@prod+3)& (0+255),f,b
  7455   012052                     
  7456                           ; BSR set to: 1
  7457   012052  C145  F140         	movff	___flmul@grs,??___flmul
  7458   012056  C146  F141         	movff	___flmul@grs+1,??___flmul+1
  7459   01205A  C147  F142         	movff	___flmul@grs+2,??___flmul+2
  7460   01205E  C148  F143         	movff	___flmul@grs+3,??___flmul+3
  7461   012062  0E19               	movlw	25
  7462   012064  EF39  F090         	goto	u5280
  7463   012068                     u5285:
  7464   012068  90D8               	bcf	status,0,c
  7465   01206A  3343               	rrcf	(??___flmul+3)& (0+255),f,b
  7466   01206C  3342               	rrcf	(??___flmul+2)& (0+255),f,b
  7467   01206E  3341               	rrcf	(??___flmul+1)& (0+255),f,b
  7468   012070  3340               	rrcf	??___flmul& (0+255),f,b
  7469   012072                     u5280:
  7470   012072  2EE8               	decfsz	wreg,f,c
  7471   012074  EF34  F090         	goto	u5285
  7472   012078  5140               	movf	??___flmul& (0+255),w,b
  7473   01207A  274B               	addwf	___flmul@prod& (0+255),f,b
  7474   01207C  5141               	movf	(??___flmul+1)& (0+255),w,b
  7475   01207E  234C               	addwfc	(___flmul@prod+1)& (0+255),f,b
  7476   012080  5142               	movf	(??___flmul+2)& (0+255),w,b
  7477   012082  234D               	addwfc	(___flmul@prod+2)& (0+255),f,b
  7478   012084  5143               	movf	(??___flmul+3)& (0+255),w,b
  7479   012086  234E               	addwfc	(___flmul@prod+3)& (0+255),f,b
  7480   012088                     
  7481                           ; BSR set to: 1
  7482   012088  C147  F148         	movff	___flmul@grs+2,___flmul@grs+3
  7483   01208C  C146  F147         	movff	___flmul@grs+1,___flmul@grs+2
  7484   012090  C145  F146         	movff	___flmul@grs,___flmul@grs+1
  7485   012094  6B45               	clrf	___flmul@grs& (0+255),b
  7486   012096                     
  7487                           ; BSR set to: 1
  7488   012096  5149               	movf	___flmul@aexp& (0+255),w,b
  7489   012098  C14A  F140         	movff	___flmul@bexp,??___flmul
  7490   01209C  6B41               	clrf	(??___flmul+1)& (0+255),b
  7491   01209E  2740               	addwf	??___flmul& (0+255),f,b
  7492   0120A0  0E00               	movlw	0
  7493   0120A2  2341               	addwfc	(??___flmul+1)& (0+255),f,b
  7494   0120A4  0E82               	movlw	130
  7495   0120A6  2540               	addwf	??___flmul& (0+255),w,b
  7496   0120A8  6F4F               	movwf	___flmul@temp& (0+255),b
  7497   0120AA  0EFF               	movlw	255
  7498   0120AC  2141               	addwfc	(??___flmul+1)& (0+255),w,b
  7499   0120AE  6F50               	movwf	(___flmul@temp+1)& (0+255),b
  7500   0120B0  EF6F  F090         	goto	l5319
  7501   0120B4                     l5313:
  7502                           
  7503                           ; BSR set to: 1
  7504   0120B4  90D8               	bcf	status,0,c
  7505   0120B6  374B               	rlcf	___flmul@prod& (0+255),f,b
  7506   0120B8  374C               	rlcf	(___flmul@prod+1)& (0+255),f,b
  7507   0120BA  374D               	rlcf	(___flmul@prod+2)& (0+255),f,b
  7508   0120BC  374E               	rlcf	(___flmul@prod+3)& (0+255),f,b
  7509   0120BE                     
  7510                           ; BSR set to: 1
  7511   0120BE  AF48               	btfss	(___flmul@grs+3)& (0+255),7,b
  7512   0120C0  EF64  F090         	goto	u5291
  7513   0120C4  EF66  F090         	goto	u5290
  7514   0120C8                     u5291:
  7515   0120C8  EF67  F090         	goto	l1670
  7516   0120CC                     u5290:
  7517   0120CC                     
  7518                           ; BSR set to: 1
  7519   0120CC  814B               	bsf	___flmul@prod& (0+255),0,b
  7520   0120CE                     l1670:
  7521                           
  7522                           ; BSR set to: 1
  7523   0120CE  90D8               	bcf	status,0,c
  7524   0120D0  3745               	rlcf	___flmul@grs& (0+255),f,b
  7525   0120D2  3746               	rlcf	(___flmul@grs+1)& (0+255),f,b
  7526   0120D4  3747               	rlcf	(___flmul@grs+2)& (0+255),f,b
  7527   0120D6  3748               	rlcf	(___flmul@grs+3)& (0+255),f,b
  7528   0120D8  074F               	decf	___flmul@temp& (0+255),f,b
  7529   0120DA  A0D8               	btfss	status,0,c
  7530   0120DC  0750               	decf	(___flmul@temp+1)& (0+255),f,b
  7531   0120DE                     l5319:
  7532                           
  7533                           ; BSR set to: 1
  7534   0120DE  AF4D               	btfss	(___flmul@prod+2)& (0+255),7,b
  7535   0120E0  EF74  F090         	goto	u5301
  7536   0120E4  EF76  F090         	goto	u5300
  7537   0120E8                     u5301:
  7538   0120E8  EF5A  F090         	goto	l5313
  7539   0120EC                     u5300:
  7540   0120EC                     
  7541                           ; BSR set to: 1
  7542   0120EC  0E00               	movlw	0
  7543   0120EE  6F49               	movwf	___flmul@aexp& (0+255),b
  7544   0120F0                     
  7545                           ; BSR set to: 1
  7546   0120F0  AF48               	btfss	(___flmul@grs+3)& (0+255),7,b
  7547   0120F2  EF7D  F090         	goto	u5311
  7548   0120F6  EF7F  F090         	goto	u5310
  7549   0120FA                     u5311:
  7550   0120FA  EFA3  F090         	goto	l1672
  7551   0120FE                     u5310:
  7552   0120FE                     
  7553                           ; BSR set to: 1
  7554   0120FE  0EFF               	movlw	255
  7555   012100  1545               	andwf	___flmul@grs& (0+255),w,b
  7556   012102  6F40               	movwf	??___flmul& (0+255),b
  7557   012104  0EFF               	movlw	255
  7558   012106  1546               	andwf	(___flmul@grs+1)& (0+255),w,b
  7559   012108  6F41               	movwf	(??___flmul+1)& (0+255),b
  7560   01210A  0EFF               	movlw	255
  7561   01210C  1547               	andwf	(___flmul@grs+2)& (0+255),w,b
  7562   01210E  6F42               	movwf	(??___flmul+2)& (0+255),b
  7563   012110  0E7F               	movlw	127
  7564   012112  1548               	andwf	(___flmul@grs+3)& (0+255),w,b
  7565   012114  6F43               	movwf	(??___flmul+3)& (0+255),b
  7566   012116  5140               	movf	??___flmul& (0+255),w,b
  7567   012118  1141               	iorwf	(??___flmul+1)& (0+255),w,b
  7568   01211A  1142               	iorwf	(??___flmul+2)& (0+255),w,b
  7569   01211C  1143               	iorwf	(??___flmul+3)& (0+255),w,b
  7570   01211E  B4D8               	btfsc	status,2,c
  7571   012120  EF94  F090         	goto	u5321
  7572   012124  EF96  F090         	goto	u5320
  7573   012128                     u5321:
  7574   012128  EF9A  F090         	goto	l1673
  7575   01212C                     u5320:
  7576   01212C                     l5327:
  7577                           
  7578                           ; BSR set to: 1
  7579   01212C  0E01               	movlw	1
  7580   01212E  6F49               	movwf	___flmul@aexp& (0+255),b
  7581   012130  EFA3  F090         	goto	l1672
  7582   012134                     l1673:
  7583                           
  7584                           ; BSR set to: 1
  7585   012134  A14B               	btfss	___flmul@prod& (0+255),0,b
  7586   012136  EF9F  F090         	goto	u5331
  7587   01213A  EFA1  F090         	goto	u5330
  7588   01213E                     u5331:
  7589   01213E  EFA3  F090         	goto	l1672
  7590   012142                     u5330:
  7591   012142  EF96  F090         	goto	l5327
  7592   012146                     l1672:
  7593                           
  7594                           ; BSR set to: 1
  7595   012146  5149               	movf	___flmul@aexp& (0+255),w,b
  7596   012148  B4D8               	btfsc	status,2,c
  7597   01214A  EFA9  F090         	goto	u5341
  7598   01214E  EFAB  F090         	goto	u5340
  7599   012152                     u5341:
  7600   012152  EFCF  F090         	goto	l5339
  7601   012156                     u5340:
  7602   012156                     
  7603                           ; BSR set to: 1
  7604   012156  0E01               	movlw	1
  7605   012158  274B               	addwf	___flmul@prod& (0+255),f,b
  7606   01215A  0E00               	movlw	0
  7607   01215C  234C               	addwfc	(___flmul@prod+1)& (0+255),f,b
  7608   01215E  234D               	addwfc	(___flmul@prod+2)& (0+255),f,b
  7609   012160  234E               	addwfc	(___flmul@prod+3)& (0+255),f,b
  7610   012162                     
  7611                           ; BSR set to: 1
  7612   012162  A14E               	btfss	(___flmul@prod+3)& (0+255),0,b
  7613   012164  EFB6  F090         	goto	u5351
  7614   012168  EFB8  F090         	goto	u5350
  7615   01216C                     u5351:
  7616   01216C  EFCF  F090         	goto	l5339
  7617   012170                     u5350:
  7618   012170                     
  7619                           ; BSR set to: 1
  7620   012170  C14B  F140         	movff	___flmul@prod,??___flmul
  7621   012174  C14C  F141         	movff	___flmul@prod+1,??___flmul+1
  7622   012178  C14D  F142         	movff	___flmul@prod+2,??___flmul+2
  7623   01217C  C14E  F143         	movff	___flmul@prod+3,??___flmul+3
  7624   012180  3543               	rlcf	(??___flmul+3)& (0+255),w,b
  7625   012182  3343               	rrcf	(??___flmul+3)& (0+255),f,b
  7626   012184  3342               	rrcf	(??___flmul+2)& (0+255),f,b
  7627   012186  3341               	rrcf	(??___flmul+1)& (0+255),f,b
  7628   012188  3340               	rrcf	??___flmul& (0+255),f,b
  7629   01218A  C140  F14B         	movff	??___flmul,___flmul@prod
  7630   01218E  C141  F14C         	movff	??___flmul+1,___flmul@prod+1
  7631   012192  C142  F14D         	movff	??___flmul+2,___flmul@prod+2
  7632   012196  C143  F14E         	movff	??___flmul+3,___flmul@prod+3
  7633   01219A                     
  7634                           ; BSR set to: 1
  7635   01219A  4B4F               	infsnz	___flmul@temp& (0+255),f,b
  7636   01219C  2B50               	incf	(___flmul@temp+1)& (0+255),f,b
  7637   01219E                     l5339:
  7638                           
  7639                           ; BSR set to: 1
  7640   01219E  BF50               	btfsc	(___flmul@temp+1)& (0+255),7,b
  7641   0121A0  EFDA  F090         	goto	u5361
  7642   0121A4  5150               	movf	(___flmul@temp+1)& (0+255),w,b
  7643   0121A6  E108               	bnz	u5360
  7644   0121A8  294F               	incf	___flmul@temp& (0+255),w,b
  7645   0121AA  A0D8               	btfss	status,0,c
  7646   0121AC  EFDA  F090         	goto	u5361
  7647   0121B0  EFDC  F090         	goto	u5360
  7648   0121B4                     u5361:
  7649   0121B4  EFE6  F090         	goto	l5343
  7650   0121B8                     u5360:
  7651   0121B8                     
  7652                           ; BSR set to: 1
  7653   0121B8  0E00               	movlw	0
  7654   0121BA  6F4B               	movwf	___flmul@prod& (0+255),b
  7655   0121BC  0E00               	movlw	0
  7656   0121BE  6F4C               	movwf	(___flmul@prod+1)& (0+255),b
  7657   0121C0  0E80               	movlw	128
  7658   0121C2  6F4D               	movwf	(___flmul@prod+2)& (0+255),b
  7659   0121C4  0E7F               	movlw	127
  7660   0121C6  6F4E               	movwf	(___flmul@prod+3)& (0+255),b
  7661   0121C8  EF14  F091         	goto	l5355
  7662   0121CC                     l5343:
  7663                           
  7664                           ; BSR set to: 1
  7665   0121CC  BF50               	btfsc	(___flmul@temp+1)& (0+255),7,b
  7666   0121CE  EFF3  F090         	goto	u5370
  7667   0121D2  5150               	movf	(___flmul@temp+1)& (0+255),w,b
  7668   0121D4  E106               	bnz	u5371
  7669   0121D6  054F               	decf	___flmul@temp& (0+255),w,b
  7670   0121D8  B0D8               	btfsc	status,0,c
  7671   0121DA  EFF1  F090         	goto	u5371
  7672   0121DE  EFF3  F090         	goto	u5370
  7673   0121E2                     u5371:
  7674   0121E2  EFFF  F090         	goto	l1680
  7675   0121E6                     u5370:
  7676   0121E6                     
  7677                           ; BSR set to: 1
  7678   0121E6  0E00               	movlw	0
  7679   0121E8  6F4B               	movwf	___flmul@prod& (0+255),b
  7680   0121EA  0E00               	movlw	0
  7681   0121EC  6F4C               	movwf	(___flmul@prod+1)& (0+255),b
  7682   0121EE  0E00               	movlw	0
  7683   0121F0  6F4D               	movwf	(___flmul@prod+2)& (0+255),b
  7684   0121F2  0E00               	movlw	0
  7685   0121F4  6F4E               	movwf	(___flmul@prod+3)& (0+255),b
  7686   0121F6  0E00               	movlw	0
  7687   0121F8  6F44               	movwf	___flmul@sign& (0+255),b
  7688   0121FA  EF14  F091         	goto	l5355
  7689   0121FE                     l1680:
  7690                           
  7691                           ; BSR set to: 1
  7692   0121FE  C14F  F14A         	movff	___flmul@temp,___flmul@bexp
  7693   012202                     
  7694                           ; BSR set to: 1
  7695   012202  0EFF               	movlw	255
  7696   012204  174B               	andwf	___flmul@prod& (0+255),f,b
  7697   012206  0EFF               	movlw	255
  7698   012208  174C               	andwf	(___flmul@prod+1)& (0+255),f,b
  7699   01220A  0E7F               	movlw	127
  7700   01220C  174D               	andwf	(___flmul@prod+2)& (0+255),f,b
  7701   01220E  0E00               	movlw	0
  7702   012210  174E               	andwf	(___flmul@prod+3)& (0+255),f,b
  7703   012212                     
  7704                           ; BSR set to: 1
  7705   012212  A14A               	btfss	___flmul@bexp& (0+255),0,b
  7706   012214  EF0E  F091         	goto	u5381
  7707   012218  EF10  F091         	goto	u5380
  7708   01221C                     u5381:
  7709   01221C  EF11  F091         	goto	l5353
  7710   012220                     u5380:
  7711   012220                     
  7712                           ; BSR set to: 1
  7713   012220  8F4D               	bsf	(___flmul@prod+2)& (0+255),7,b
  7714   012222                     l5353:
  7715                           
  7716                           ; BSR set to: 1
  7717   012222  90D8               	bcf	status,0,c
  7718   012224  314A               	rrcf	___flmul@bexp& (0+255),w,b
  7719   012226  6F4E               	movwf	(___flmul@prod+3)& (0+255),b
  7720   012228                     l5355:
  7721                           
  7722                           ; BSR set to: 1
  7723   012228  5144               	movf	___flmul@sign& (0+255),w,b
  7724   01222A  134E               	iorwf	(___flmul@prod+3)& (0+255),f,b
  7725   01222C                     
  7726                           ; BSR set to: 1
  7727   01222C  C14B  F138         	movff	___flmul@prod,?___flmul
  7728   012230  C14C  F139         	movff	___flmul@prod+1,?___flmul+1
  7729   012234  C14D  F13A         	movff	___flmul@prod+2,?___flmul+2
  7730   012238  C14E  F13B         	movff	___flmul@prod+3,?___flmul+3
  7731   01223C                     l1667:
  7732                           
  7733                           ; BSR set to: 1
  7734   01223C  0012               	return		;funcret
  7735   01223E                     __end_of___flmul:
  7736                           	callstack 0
  7737                           
  7738 ;; *************** function _Motors_Speed *****************
  7739 ;; Defined at:
  7740 ;;		line 6 in file "./Fonctions.c"
  7741 ;; Parameters:    Size  Location     Type
  7742 ;;  vitg            1    wreg     char 
  7743 ;;  vitd            1   42[BANK1 ] char 
  7744 ;; Auto vars:     Size  Location     Type
  7745 ;;  vitg            1   43[BANK1 ] char 
  7746 ;; Return value:  Size  Location     Type
  7747 ;;                  1    wreg      void 
  7748 ;; Registers used:
  7749 ;;		wreg, status,2
  7750 ;; Tracked objects:
  7751 ;;		On entry : 0/0
  7752 ;;		On exit  : 0/0
  7753 ;;		Unchanged: 0/0
  7754 ;; Data sizes:     COMRAM   BANK0   BANK1   BANK2   BANK3   BANK4   BANK5   BANK6   BANK7   BANK8   BANK9  BANK10  BANK1
      +1  BANK12  BANK13  BANK14
  7755 ;;      Params:         0       0       1       0       0       0       0       0       0       0       0       0       
      +0       0       0       0
  7756 ;;      Locals:         0       0       1       0       0       0       0       0       0       0       0       0       
      +0       0       0       0
  7757 ;;      Temps:          0       0       0       0       0       0       0       0       0       0       0       0       
      +0       0       0       0
  7758 ;;      Totals:         0       0       2       0       0       0       0       0       0       0       0       0       
      +0       0       0       0
  7759 ;;Total ram usage:        2 bytes
  7760 ;; Hardware stack levels used: 1
  7761 ;; Hardware stack levels required when called: 6
  7762 ;; This function calls:
  7763 ;;		Nothing
  7764 ;; This function is called by:
  7765 ;;		_Motors_Turn_Angle
  7766 ;;		_Compass_Calibre
  7767 ;; This function uses a non-reentrant model
  7768 ;;
  7769                           
  7770                           	psect	text20
  7771   014582                     __ptext20:
  7772                           	callstack 0
  7773   014582                     _Motors_Speed:
  7774                           	callstack 21
  7775                           
  7776                           ; BSR set to: 1
  7777                           ;incstack = 0
  7778                           ;Motors_Speed@vitg stored from wreg
  7779   014582  0101               	movlb	1	; () banked
  7780   014584  6F2B               	movwf	Motors_Speed@vitg& (0+255),b
  7781   014586  0101               	movlb	1	; () banked
  7782   014588  512B               	movf	Motors_Speed@vitg& (0+255),w,b
  7783   01458A  0100               	movlb	0	; () banked
  7784   01458C  6FBF               	movwf	_consigneg& (0+255),b
  7785   01458E  6BC0               	clrf	(_consigneg+1)& (0+255),b
  7786   014590  BFBF               	btfsc	_consigneg& (0+255),7,b
  7787   014592  07C0               	decf	(_consigneg+1)& (0+255),f,b
  7788   014594                     
  7789                           ; BSR set to: 0
  7790   014594  0101               	movlb	1	; () banked
  7791   014596  512A               	movf	Motors_Speed@vitd& (0+255),w,b
  7792   014598  0100               	movlb	0	; () banked
  7793   01459A  6FBD               	movwf	_consigned& (0+255),b
  7794   01459C  6BBE               	clrf	(_consigned+1)& (0+255),b
  7795   01459E  BFBD               	btfsc	_consigned& (0+255),7,b
  7796   0145A0  07BE               	decf	(_consigned+1)& (0+255),f,b
  7797   0145A2                     
  7798                           ; BSR set to: 0
  7799   0145A2  0012               	return		;funcret
  7800   0145A4                     __end_of_Motors_Speed:
  7801                           	callstack 0
  7802                           
  7803 ;; *************** function _Motors_Get_Enc_Right *****************
  7804 ;; Defined at:
  7805 ;;		line 10 in file "./Fonctions.c"
  7806 ;; Parameters:    Size  Location     Type
  7807 ;;		None
  7808 ;; Auto vars:     Size  Location     Type
  7809 ;;		None
  7810 ;; Return value:  Size  Location     Type
  7811 ;;                  4   42[BANK1 ] long 
  7812 ;; Registers used:
  7813 ;;		None
  7814 ;; Tracked objects:
  7815 ;;		On entry : 0/0
  7816 ;;		On exit  : 0/0
  7817 ;;		Unchanged: 0/0
  7818 ;; Data sizes:     COMRAM   BANK0   BANK1   BANK2   BANK3   BANK4   BANK5   BANK6   BANK7   BANK8   BANK9  BANK10  BANK1
      +1  BANK12  BANK13  BANK14
  7819 ;;      Params:         0       0       4       0       0       0       0       0       0       0       0       0       
      +0       0       0       0
  7820 ;;      Locals:         0       0       0       0       0       0       0       0       0       0       0       0       
      +0       0       0       0
  7821 ;;      Temps:          0       0       0       0       0       0       0       0       0       0       0       0       
      +0       0       0       0
  7822 ;;      Totals:         0       0       4       0       0       0       0       0       0       0       0       0       
      +0       0       0       0
  7823 ;;Total ram usage:        4 bytes
  7824 ;; Hardware stack levels used: 1
  7825 ;; Hardware stack levels required when called: 6
  7826 ;; This function calls:
  7827 ;;		Nothing
  7828 ;; This function is called by:
  7829 ;;		_Motors_Turn_Angle
  7830 ;; This function uses a non-reentrant model
  7831 ;;
  7832                           
  7833                           	psect	text21
  7834   014660                     __ptext21:
  7835                           	callstack 0
  7836   014660                     _Motors_Get_Enc_Right:
  7837                           	callstack 21
  7838   014660  C19F  F12A         	movff	_CPT_ENCD,?_Motors_Get_Enc_Right
  7839   014664  C1A0  F12B         	movff	_CPT_ENCD+1,?_Motors_Get_Enc_Right+1
  7840   014668  C1A1  F12C         	movff	_CPT_ENCD+2,?_Motors_Get_Enc_Right+2
  7841   01466C  C1A2  F12D         	movff	_CPT_ENCD+3,?_Motors_Get_Enc_Right+3
  7842   014670  0012               	return		;funcret
  7843   014672                     __end_of_Motors_Get_Enc_Right:
  7844                           	callstack 0
  7845                           
  7846 ;; *************** function _Motors_Get_Enc_Left *****************
  7847 ;; Defined at:
  7848 ;;		line 8 in file "./Fonctions.c"
  7849 ;; Parameters:    Size  Location     Type
  7850 ;;		None
  7851 ;; Auto vars:     Size  Location     Type
  7852 ;;		None
  7853 ;; Return value:  Size  Location     Type
  7854 ;;                  4   42[BANK1 ] long 
  7855 ;; Registers used:
  7856 ;;		None
  7857 ;; Tracked objects:
  7858 ;;		On entry : 0/0
  7859 ;;		On exit  : 0/0
  7860 ;;		Unchanged: 0/0
  7861 ;; Data sizes:     COMRAM   BANK0   BANK1   BANK2   BANK3   BANK4   BANK5   BANK6   BANK7   BANK8   BANK9  BANK10  BANK1
      +1  BANK12  BANK13  BANK14
  7862 ;;      Params:         0       0       4       0       0       0       0       0       0       0       0       0       
      +0       0       0       0
  7863 ;;      Locals:         0       0       0       0       0       0       0       0       0       0       0       0       
      +0       0       0       0
  7864 ;;      Temps:          0       0       0       0       0       0       0       0       0       0       0       0       
      +0       0       0       0
  7865 ;;      Totals:         0       0       4       0       0       0       0       0       0       0       0       0       
      +0       0       0       0
  7866 ;;Total ram usage:        4 bytes
  7867 ;; Hardware stack levels used: 1
  7868 ;; Hardware stack levels required when called: 6
  7869 ;; This function calls:
  7870 ;;		Nothing
  7871 ;; This function is called by:
  7872 ;;		_Motors_Turn_Angle
  7873 ;; This function uses a non-reentrant model
  7874 ;;
  7875                           
  7876                           	psect	text22
  7877   014672                     __ptext22:
  7878                           	callstack 0
  7879   014672                     _Motors_Get_Enc_Left:
  7880                           	callstack 21
  7881   014672  C1A3  F12A         	movff	_CPT_ENCG,?_Motors_Get_Enc_Left
  7882   014676  C1A4  F12B         	movff	_CPT_ENCG+1,?_Motors_Get_Enc_Left+1
  7883   01467A  C1A5  F12C         	movff	_CPT_ENCG+2,?_Motors_Get_Enc_Left+2
  7884   01467E  C1A6  F12D         	movff	_CPT_ENCG+3,?_Motors_Get_Enc_Left+3
  7885   014682  0012               	return		;funcret
  7886   014684                     __end_of_Motors_Get_Enc_Left:
  7887                           	callstack 0
  7888                           
  7889 ;; *************** function _Motors_Enable *****************
  7890 ;; Defined at:
  7891 ;;		line 7 in file "./Fonctions.c"
  7892 ;; Parameters:    Size  Location     Type
  7893 ;;  enable          1    wreg     unsigned char 
  7894 ;; Auto vars:     Size  Location     Type
  7895 ;;  enable          1   42[BANK1 ] unsigned char 
  7896 ;; Return value:  Size  Location     Type
  7897 ;;                  1    wreg      void 
  7898 ;; Registers used:
  7899 ;;		wreg, status,2
  7900 ;; Tracked objects:
  7901 ;;		On entry : 0/0
  7902 ;;		On exit  : 0/0
  7903 ;;		Unchanged: 0/0
  7904 ;; Data sizes:     COMRAM   BANK0   BANK1   BANK2   BANK3   BANK4   BANK5   BANK6   BANK7   BANK8   BANK9  BANK10  BANK1
      +1  BANK12  BANK13  BANK14
  7905 ;;      Params:         0       0       0       0       0       0       0       0       0       0       0       0       
      +0       0       0       0
  7906 ;;      Locals:         0       0       1       0       0       0       0       0       0       0       0       0       
      +0       0       0       0
  7907 ;;      Temps:          0       0       0       0       0       0       0       0       0       0       0       0       
      +0       0       0       0
  7908 ;;      Totals:         0       0       1       0       0       0       0       0       0       0       0       0       
      +0       0       0       0
  7909 ;;Total ram usage:        1 bytes
  7910 ;; Hardware stack levels used: 1
  7911 ;; Hardware stack levels required when called: 6
  7912 ;; This function calls:
  7913 ;;		Nothing
  7914 ;; This function is called by:
  7915 ;;		_Compass_Calibre
  7916 ;;		_FLAG_Set
  7917 ;;		_Mon_Prog
  7918 ;; This function uses a non-reentrant model
  7919 ;;
  7920                           
  7921                           	psect	text23
  7922   01453C                     __ptext23:
  7923                           	callstack 0
  7924   01453C                     _Motors_Enable:
  7925                           	callstack 22
  7926                           
  7927                           ;incstack = 0
  7928                           ;Motors_Enable@enable stored from wreg
  7929   01453C  0101               	movlb	1	; () banked
  7930   01453E  6F2A               	movwf	Motors_Enable@enable& (0+255),b
  7931   014540  0E00               	movlw	0
  7932   014542  0100               	movlb	0	; () banked
  7933   014544  6FC4               	movwf	(_sigmaerreurg+1)& (0+255),b
  7934   014546  0E00               	movlw	0
  7935   014548  6FC3               	movwf	_sigmaerreurg& (0+255),b
  7936   01454A  0E00               	movlw	0
  7937   01454C  6FC2               	movwf	(_sigmaerreurd+1)& (0+255),b
  7938   01454E  0E00               	movlw	0
  7939   014550  6FC1               	movwf	_sigmaerreurd& (0+255),b
  7940   014552                     
  7941                           ; BSR set to: 0
  7942   014552  0101               	movlb	1	; () banked
  7943   014554  B12A               	btfsc	Motors_Enable@enable& (0+255),0,b
  7944   014556  D002               	bra	u5585
  7945   014558  9886               	bcf	134,4,c	;volatile
  7946   01455A  D001               	bra	u5586
  7947   01455C                     u5585:
  7948   01455C  8886               	bsf	134,4,c	;volatile
  7949   01455E                     u5586:
  7950   01455E  0012               	return		;funcret
  7951   014560                     __end_of_Motors_Enable:
  7952                           	callstack 0
  7953                           
  7954 ;; *************** function _LCD_Print *****************
  7955 ;; Defined at:
  7956 ;;		line 132 in file "./LCD.c"
  7957 ;; Parameters:    Size  Location     Type
  7958 ;;  t               2   46[BANK1 ] PTR unsigned char 
  7959 ;;		 -> STR_31(17), STR_30(17), STR_29(17), STR_28(17), 
  7960 ;;		 -> STR_27(17), STR_26(17), STR_25(17), STR_24(17), 
  7961 ;;		 -> STR_23(17), STR_22(17), STR_21(17), STR_20(17), 
  7962 ;;		 -> STR_19(17), STR_18(17), STR_17(17), STR_16(2), 
  7963 ;;		 -> STR_15(2), STR_14(2), STR_13(2), STR_12(2), 
  7964 ;;		 -> STR_11(2), STR_10(17), STR_9(17), STR_8(17), 
  7965 ;;		 -> STR_7(17), STR_6(17), STR_5(17), STR_4(17), 
  7966 ;;		 -> STR_3(17), STR_2(17), STR_1(17), 
  7967 ;; Auto vars:     Size  Location     Type
  7968 ;;		None
  7969 ;; Return value:  Size  Location     Type
  7970 ;;                  1    wreg      void 
  7971 ;; Registers used:
  7972 ;;		wreg, status,2, status,0, tblptrl, tblptrh, tblptru, cstack
  7973 ;; Tracked objects:
  7974 ;;		On entry : 0/0
  7975 ;;		On exit  : 0/0
  7976 ;;		Unchanged: 0/0
  7977 ;; Data sizes:     COMRAM   BANK0   BANK1   BANK2   BANK3   BANK4   BANK5   BANK6   BANK7   BANK8   BANK9  BANK10  BANK1
      +1  BANK12  BANK13  BANK14
  7978 ;;      Params:         0       0       2       0       0       0       0       0       0       0       0       0       
      +0       0       0       0
  7979 ;;      Locals:         0       0       0       0       0       0       0       0       0       0       0       0       
      +0       0       0       0
  7980 ;;      Temps:          0       0       0       0       0       0       0       0       0       0       0       0       
      +0       0       0       0
  7981 ;;      Totals:         0       0       2       0       0       0       0       0       0       0       0       0       
      +0       0       0       0
  7982 ;;Total ram usage:        2 bytes
  7983 ;; Hardware stack levels used: 1
  7984 ;; Hardware stack levels required when called: 8
  7985 ;; This function calls:
  7986 ;;		_LCD_Write
  7987 ;; This function is called by:
  7988 ;;		_Compass_Init
  7989 ;;		_Compass_Calibre
  7990 ;;		_Initialisation
  7991 ;;		_LCD_Write_s8bits
  7992 ;;		_LCD_Write_s16bits
  7993 ;;		_LCD_Write_s32bits
  7994 ;;		_Mon_Prog
  7995 ;; This function uses a non-reentrant model
  7996 ;;
  7997                           
  7998                           	psect	text24
  7999   014372                     __ptext24:
  8000                           	callstack 0
  8001   014372                     _LCD_Print:
  8002                           	callstack 21
  8003   014372                     
  8004                           ;./LCD.c: 133:     while(*t != '\0'){
  8005   014372  EFCB  F0A1         	goto	l5475
  8006   014376                     l5471:
  8007                           
  8008                           ;./LCD.c: 134:         LCD_Write(*t++, DATA);
  8009   014376  0E01               	movlw	1
  8010   014378  0101               	movlb	1	; () banked
  8011   01437A  6F2C               	movwf	LCD_Write@type& (0+255),b
  8012   01437C  C12E  FFF6         	movff	LCD_Print@t,tblptrl
  8013   014380  C12F  FFF7         	movff	LCD_Print@t+1,tblptrh
  8014   014384                     	if	0	;tblptru may be non-zero
  8015   014384                     	endif
  8016   014384                     	if	1	;Program memory is > 0xFFFF, there are 3 active tblptr bytes
  8017   014384  0E00               	movlw	low (__mediumconst shr (0+16))
  8018   014386  6EF8               	movwf	tblptru,c
  8019   014388                     	endif
  8020   014388  0008               	tblrd		*
  8021   01438A  50F5               	movf	tablat,w,c
  8022   01438C  ECDC  F0A1         	call	_LCD_Write
  8023   014390  0101               	movlb	1	; () banked
  8024   014392  4B2E               	infsnz	LCD_Print@t& (0+255),f,b
  8025   014394  2B2F               	incf	(LCD_Print@t+1)& (0+255),f,b
  8026   014396                     l5475:
  8027                           
  8028                           ;./LCD.c: 133:     while(*t != '\0'){
  8029   014396  C12E  FFF6         	movff	LCD_Print@t,tblptrl
  8030   01439A  C12F  FFF7         	movff	LCD_Print@t+1,tblptrh
  8031   01439E                     	if	0	;tblptru may be non-zero
  8032   01439E                     	endif
  8033   01439E                     	if	1	;Program memory is > 0xFFFF, there are 3 active tblptr bytes
  8034   01439E  0E00               	movlw	low (__mediumconst shr (0+16))
  8035   0143A0  6EF8               	movwf	tblptru,c
  8036   0143A2                     	endif
  8037   0143A2  0008               	tblrd		*
  8038   0143A4  50F5               	movf	tablat,w,c
  8039   0143A6  0900               	iorlw	0
  8040   0143A8  A4D8               	btfss	status,2,c
  8041   0143AA  EFD9  F0A1         	goto	u5571
  8042   0143AE  EFDB  F0A1         	goto	u5570
  8043   0143B2                     u5571:
  8044   0143B2  EFBB  F0A1         	goto	l5471
  8045   0143B6                     u5570:
  8046   0143B6  0012               	return		;funcret
  8047   0143B8                     __end_of_LCD_Print:
  8048                           	callstack 0
  8049                           
  8050 ;; *************** function _LCD_Goto *****************
  8051 ;; Defined at:
  8052 ;;		line 90 in file "./LCD.c"
  8053 ;; Parameters:    Size  Location     Type
  8054 ;;  ligne           1    wreg     unsigned char 
  8055 ;;  colonne         1   46[BANK1 ] unsigned char 
  8056 ;; Auto vars:     Size  Location     Type
  8057 ;;  ligne           1   47[BANK1 ] unsigned char 
  8058 ;; Return value:  Size  Location     Type
  8059 ;;                  1    wreg      void 
  8060 ;; Registers used:
  8061 ;;		wreg, status,2, status,0, cstack
  8062 ;; Tracked objects:
  8063 ;;		On entry : 0/0
  8064 ;;		On exit  : 0/0
  8065 ;;		Unchanged: 0/0
  8066 ;; Data sizes:     COMRAM   BANK0   BANK1   BANK2   BANK3   BANK4   BANK5   BANK6   BANK7   BANK8   BANK9  BANK10  BANK1
      +1  BANK12  BANK13  BANK14
  8067 ;;      Params:         0       0       1       0       0       0       0       0       0       0       0       0       
      +0       0       0       0
  8068 ;;      Locals:         0       0       1       0       0       0       0       0       0       0       0       0       
      +0       0       0       0
  8069 ;;      Temps:          0       0       0       0       0       0       0       0       0       0       0       0       
      +0       0       0       0
  8070 ;;      Totals:         0       0       2       0       0       0       0       0       0       0       0       0       
      +0       0       0       0
  8071 ;;Total ram usage:        2 bytes
  8072 ;; Hardware stack levels used: 1
  8073 ;; Hardware stack levels required when called: 8
  8074 ;; This function calls:
  8075 ;;		_LCD_Write
  8076 ;; This function is called by:
  8077 ;;		_Compass_Init
  8078 ;;		_Compass_Calibre
  8079 ;;		_Initialisation
  8080 ;;		_Mon_Prog
  8081 ;; This function uses a non-reentrant model
  8082 ;;
  8083                           
  8084                           	psect	text25
  8085   0144AC                     __ptext25:
  8086                           	callstack 0
  8087   0144AC                     _LCD_Goto:
  8088                           	callstack 21
  8089                           
  8090                           ;incstack = 0
  8091                           ;LCD_Goto@ligne stored from wreg
  8092   0144AC  0101               	movlb	1	; () banked
  8093   0144AE  6F2F               	movwf	LCD_Goto@ligne& (0+255),b
  8094   0144B0                     
  8095                           ;./LCD.c: 90: extern void LCD_Goto(char ligne, char colonne);./LCD.c: 91:  {;./LCD.c: 92
      +                          :     LATBbits.LB5 = 0;
  8096   0144B0  9A84               	bcf	132,5,c	;volatile
  8097   0144B2                     
  8098                           ;./LCD.c: 94:      if(ligne == 0)
  8099   0144B2  0101               	movlb	1	; () banked
  8100   0144B4  512F               	movf	LCD_Goto@ligne& (0+255),w,b
  8101   0144B6  A4D8               	btfss	status,2,c
  8102   0144B8  EF60  F0A2         	goto	u5561
  8103   0144BC  EF62  F0A2         	goto	u5560
  8104   0144C0                     u5561:
  8105   0144C0  EF6A  F0A2         	goto	l5467
  8106   0144C4                     u5560:
  8107   0144C4                     
  8108                           ; BSR set to: 1
  8109                           ;./LCD.c: 95:         LCD_Write(0x80 + colonne, COMMAND);
  8110   0144C4  0E00               	movlw	0
  8111   0144C6  6F2C               	movwf	LCD_Write@type& (0+255),b
  8112   0144C8  512E               	movf	LCD_Goto@colonne& (0+255),w,b
  8113   0144CA  0F80               	addlw	128
  8114   0144CC  ECDC  F0A1         	call	_LCD_Write
  8115   0144D0  EF70  F0A2         	goto	l330
  8116   0144D4                     l5467:
  8117                           
  8118                           ; BSR set to: 1
  8119                           ;./LCD.c: 97:        LCD_Write(0x80 + 0x40 + colonne, COMMAND);
  8120   0144D4  0E00               	movlw	0
  8121   0144D6  6F2C               	movwf	LCD_Write@type& (0+255),b
  8122   0144D8  512E               	movf	LCD_Goto@colonne& (0+255),w,b
  8123   0144DA  0FC0               	addlw	192
  8124   0144DC  ECDC  F0A1         	call	_LCD_Write
  8125   0144E0                     l330:
  8126   0144E0  0012               	return		;funcret
  8127   0144E2                     __end_of_LCD_Goto:
  8128                           	callstack 0
  8129                           
  8130 ;; *************** function _LCD_Write *****************
  8131 ;; Defined at:
  8132 ;;		line 113 in file "./LCD.c"
  8133 ;; Parameters:    Size  Location     Type
  8134 ;;  byte            1    wreg     unsigned char 
  8135 ;;  type            1   44[BANK1 ] enum E10131
  8136 ;; Auto vars:     Size  Location     Type
  8137 ;;  byte            1   45[BANK1 ] unsigned char 
  8138 ;; Return value:  Size  Location     Type
  8139 ;;                  1    wreg      void 
  8140 ;; Registers used:
  8141 ;;		wreg, status,2, status,0, cstack
  8142 ;; Tracked objects:
  8143 ;;		On entry : 0/0
  8144 ;;		On exit  : 0/0
  8145 ;;		Unchanged: 0/0
  8146 ;; Data sizes:     COMRAM   BANK0   BANK1   BANK2   BANK3   BANK4   BANK5   BANK6   BANK7   BANK8   BANK9  BANK10  BANK1
      +1  BANK12  BANK13  BANK14
  8147 ;;      Params:         0       0       1       0       0       0       0       0       0       0       0       0       
      +0       0       0       0
  8148 ;;      Locals:         0       0       1       0       0       0       0       0       0       0       0       0       
      +0       0       0       0
  8149 ;;      Temps:          0       0       0       0       0       0       0       0       0       0       0       0       
      +0       0       0       0
  8150 ;;      Totals:         0       0       2       0       0       0       0       0       0       0       0       0       
      +0       0       0       0
  8151 ;;Total ram usage:        2 bytes
  8152 ;; Hardware stack levels used: 1
  8153 ;; Hardware stack levels required when called: 7
  8154 ;; This function calls:
  8155 ;;		_lcdNibble
  8156 ;; This function is called by:
  8157 ;;		_LCD_Init
  8158 ;;		_LCD_Goto
  8159 ;;		_LCD_Clear
  8160 ;;		_LCD_Print
  8161 ;;		_LCD_Write_u8bits
  8162 ;;		_LCD_Write_u16bits
  8163 ;;		_LCD_Write_u32bits
  8164 ;; This function uses a non-reentrant model
  8165 ;;
  8166                           
  8167                           	psect	text26
  8168   0143B8                     __ptext26:
  8169                           	callstack 0
  8170   0143B8                     _LCD_Write:
  8171                           	callstack 21
  8172                           
  8173                           ;incstack = 0
  8174                           ;LCD_Write@byte stored from wreg
  8175   0143B8  0101               	movlb	1	; () banked
  8176   0143BA  6F2D               	movwf	LCD_Write@byte& (0+255),b
  8177   0143BC                     
  8178                           ;./LCD.c: 114:     if(type == COMMAND)
  8179   0143BC  0101               	movlb	1	; () banked
  8180   0143BE  512C               	movf	LCD_Write@type& (0+255),w,b
  8181   0143C0  A4D8               	btfss	status,2,c
  8182   0143C2  EFE5  F0A1         	goto	u5191
  8183   0143C6  EFE7  F0A1         	goto	u5190
  8184   0143CA                     u5191:
  8185   0143CA  EFEA  F0A1         	goto	l336
  8186   0143CE                     u5190:
  8187   0143CE                     
  8188                           ; BSR set to: 1
  8189                           ;./LCD.c: 115:         LATBbits.LB5 = 0;
  8190   0143CE  9A84               	bcf	132,5,c	;volatile
  8191   0143D0  EFEB  F0A1         	goto	l5217
  8192   0143D4                     l336:
  8193                           
  8194                           ; BSR set to: 1
  8195                           ;./LCD.c: 117:         LATBbits.LB5 = 1;
  8196   0143D4  8A84               	bsf	132,5,c	;volatile
  8197   0143D6                     l5217:
  8198                           
  8199                           ; BSR set to: 1
  8200                           ;./LCD.c: 119:     _delay((unsigned long)((100)*(64000000/4000000.0)));
  8201   0143D6  0EE4               	movlw	228
  8202   0143D8                     u11267:
  8203   0143D8  D000               	nop2	
  8204   0143DA  D000               	nop2	
  8205   0143DC  2EE8               	decfsz	wreg,f,c
  8206   0143DE  D7FC               	bra	u11267
  8207   0143E0  D000               	nop2	
  8208   0143E2  D000               	nop2	
  8209   0143E4                     
  8210                           ;./LCD.c: 121:     lcdNibble(byte >> 4);
  8211   0143E4  0101               	movlb	1	; () banked
  8212   0143E6  392D               	swapf	LCD_Write@byte& (0+255),w,b
  8213   0143E8  0B0F               	andlw	15
  8214   0143EA  EC7D  F0A0         	call	_lcdNibble
  8215   0143EE                     
  8216                           ;./LCD.c: 122:     lcdNibble(byte & 0x0F);
  8217   0143EE  0101               	movlb	1	; () banked
  8218   0143F0  512D               	movf	LCD_Write@byte& (0+255),w,b
  8219   0143F2  0B0F               	andlw	15
  8220   0143F4  EC7D  F0A0         	call	_lcdNibble
  8221   0143F8  0012               	return		;funcret
  8222   0143FA                     __end_of_LCD_Write:
  8223                           	callstack 0
  8224                           
  8225 ;; *************** function _lcdNibble *****************
  8226 ;; Defined at:
  8227 ;;		line 142 in file "./LCD.c"
  8228 ;; Parameters:    Size  Location     Type
  8229 ;;  nibble          1    wreg     unsigned char 
  8230 ;; Auto vars:     Size  Location     Type
  8231 ;;  nibble          1   43[BANK1 ] unsigned char 
  8232 ;; Return value:  Size  Location     Type
  8233 ;;                  1    wreg      void 
  8234 ;; Registers used:
  8235 ;;		wreg, status,2, status,0
  8236 ;; Tracked objects:
  8237 ;;		On entry : 0/0
  8238 ;;		On exit  : 0/0
  8239 ;;		Unchanged: 0/0
  8240 ;; Data sizes:     COMRAM   BANK0   BANK1   BANK2   BANK3   BANK4   BANK5   BANK6   BANK7   BANK8   BANK9  BANK10  BANK1
      +1  BANK12  BANK13  BANK14
  8241 ;;      Params:         0       0       0       0       0       0       0       0       0       0       0       0       
      +0       0       0       0
  8242 ;;      Locals:         0       0       1       0       0       0       0       0       0       0       0       0       
      +0       0       0       0
  8243 ;;      Temps:          0       0       1       0       0       0       0       0       0       0       0       0       
      +0       0       0       0
  8244 ;;      Totals:         0       0       2       0       0       0       0       0       0       0       0       0       
      +0       0       0       0
  8245 ;;Total ram usage:        2 bytes
  8246 ;; Hardware stack levels used: 1
  8247 ;; Hardware stack levels required when called: 6
  8248 ;; This function calls:
  8249 ;;		Nothing
  8250 ;; This function is called by:
  8251 ;;		_LCD_Init
  8252 ;;		_LCD_Write
  8253 ;; This function uses a non-reentrant model
  8254 ;;
  8255                           
  8256                           	psect	text27
  8257   0140FA                     __ptext27:
  8258                           	callstack 0
  8259   0140FA                     _lcdNibble:
  8260                           	callstack 21
  8261                           
  8262                           ;incstack = 0
  8263                           ;lcdNibble@nibble stored from wreg
  8264   0140FA  0101               	movlb	1	; () banked
  8265   0140FC  6F2B               	movwf	lcdNibble@nibble& (0+255),b
  8266   0140FE                     
  8267                           ;./LCD.c: 143:     LATBbits.LB3 = (nibble & 0x01) ? 1 : 0;
  8268   0140FE  0101               	movlb	1	; () banked
  8269   014100  B12B               	btfsc	lcdNibble@nibble& (0+255),0,b
  8270   014102  EF85  F0A0         	goto	u4721
  8271   014106  EF89  F0A0         	goto	u4720
  8272   01410A                     u4721:
  8273   01410A  6B2A               	clrf	??_lcdNibble& (0+255),b
  8274   01410C  2B2A               	incf	??_lcdNibble& (0+255),f,b
  8275   01410E  EF8B  F0A0         	goto	u4738
  8276   014112                     u4720:
  8277   014112  0101               	movlb	1	; () banked
  8278   014114  6B2A               	clrf	??_lcdNibble& (0+255),b
  8279   014116                     u4738:
  8280   014116  472A               	rlncf	??_lcdNibble& (0+255),f,b
  8281   014118  472A               	rlncf	??_lcdNibble& (0+255),f,b
  8282   01411A  472A               	rlncf	??_lcdNibble& (0+255),f,b
  8283   01411C  5084               	movf	132,w,c	;volatile
  8284   01411E  192A               	xorwf	??_lcdNibble& (0+255),w,b
  8285   014120  0BF7               	andlw	-9
  8286   014122  192A               	xorwf	??_lcdNibble& (0+255),w,b
  8287   014124  6E84               	movwf	132,c	;volatile
  8288                           
  8289                           ;./LCD.c: 144:     LATBbits.LB2 = (nibble & 0x02) ? 1 : 0;
  8290   014126  B32B               	btfsc	lcdNibble@nibble& (0+255),1,b
  8291   014128  EF98  F0A0         	goto	u4741
  8292   01412C  EF9C  F0A0         	goto	u4740
  8293   014130                     u4741:
  8294   014130  6B2A               	clrf	??_lcdNibble& (0+255),b
  8295   014132  2B2A               	incf	??_lcdNibble& (0+255),f,b
  8296   014134  EF9E  F0A0         	goto	u4758
  8297   014138                     u4740:
  8298   014138  0101               	movlb	1	; () banked
  8299   01413A  6B2A               	clrf	??_lcdNibble& (0+255),b
  8300   01413C                     u4758:
  8301   01413C  472A               	rlncf	??_lcdNibble& (0+255),f,b
  8302   01413E  472A               	rlncf	??_lcdNibble& (0+255),f,b
  8303   014140  5084               	movf	132,w,c	;volatile
  8304   014142  192A               	xorwf	??_lcdNibble& (0+255),w,b
  8305   014144  0BFB               	andlw	-5
  8306   014146  192A               	xorwf	??_lcdNibble& (0+255),w,b
  8307   014148  6E84               	movwf	132,c	;volatile
  8308                           
  8309                           ;./LCD.c: 145:     LATBbits.LB1 = (nibble & 0x04) ? 1 : 0;
  8310   01414A  B52B               	btfsc	lcdNibble@nibble& (0+255),2,b
  8311   01414C  EFAA  F0A0         	goto	u4761
  8312   014150  EFAE  F0A0         	goto	u4760
  8313   014154                     u4761:
  8314   014154  6B2A               	clrf	??_lcdNibble& (0+255),b
  8315   014156  2B2A               	incf	??_lcdNibble& (0+255),f,b
  8316   014158  EFB0  F0A0         	goto	u4778
  8317   01415C                     u4760:
  8318   01415C  0101               	movlb	1	; () banked
  8319   01415E  6B2A               	clrf	??_lcdNibble& (0+255),b
  8320   014160                     u4778:
  8321   014160  472A               	rlncf	??_lcdNibble& (0+255),f,b
  8322   014162  5084               	movf	132,w,c	;volatile
  8323   014164  192A               	xorwf	??_lcdNibble& (0+255),w,b
  8324   014166  0BFD               	andlw	-3
  8325   014168  192A               	xorwf	??_lcdNibble& (0+255),w,b
  8326   01416A  6E84               	movwf	132,c	;volatile
  8327                           
  8328                           ;./LCD.c: 146:     LATDbits.LD7 = (nibble & 0x08) ? 1 : 0;
  8329   01416C  B72B               	btfsc	lcdNibble@nibble& (0+255),3,b
  8330   01416E  EFBB  F0A0         	goto	u4781
  8331   014172  EFBF  F0A0         	goto	u4780
  8332   014176                     u4781:
  8333   014176  6B2A               	clrf	??_lcdNibble& (0+255),b
  8334   014178  2B2A               	incf	??_lcdNibble& (0+255),f,b
  8335   01417A  EFC1  F0A0         	goto	u4798
  8336   01417E                     u4780:
  8337   01417E  0101               	movlb	1	; () banked
  8338   014180  6B2A               	clrf	??_lcdNibble& (0+255),b
  8339   014182                     u4798:
  8340   014182  332A               	rrcf	??_lcdNibble& (0+255),f,b
  8341   014184  332A               	rrcf	??_lcdNibble& (0+255),f,b
  8342   014186  5086               	movf	134,w,c	;volatile
  8343   014188  192A               	xorwf	??_lcdNibble& (0+255),w,b
  8344   01418A  0B7F               	andlw	-129
  8345   01418C  192A               	xorwf	??_lcdNibble& (0+255),w,b
  8346   01418E  6E86               	movwf	134,c	;volatile
  8347   014190                     
  8348                           ; BSR set to: 1
  8349                           ;./LCD.c: 149:     LATBbits.LB4 = 1;
  8350   014190  8884               	bsf	132,4,c	;volatile
  8351   014192                     
  8352                           ; BSR set to: 1
  8353                           ;./LCD.c: 150:     _delay((unsigned long)((100)*(64000000/4000000.0)));
  8354   014192  0EE4               	movlw	228
  8355   014194                     u11277:
  8356   014194  D000               	nop2	
  8357   014196  D000               	nop2	
  8358   014198  2EE8               	decfsz	wreg,f,c
  8359   01419A  D7FC               	bra	u11277
  8360   01419C  D000               	nop2	
  8361   01419E  D000               	nop2	
  8362   0141A0                     
  8363                           ;./LCD.c: 151:     LATBbits.LB4 = 0;
  8364   0141A0  9884               	bcf	132,4,c	;volatile
  8365   0141A2                     
  8366                           ;./LCD.c: 152:     _delay((unsigned long)((100)*(64000000/4000000.0)));
  8367   0141A2  0EE4               	movlw	228
  8368   0141A4                     u11287:
  8369   0141A4  D000               	nop2	
  8370   0141A6  D000               	nop2	
  8371   0141A8  2EE8               	decfsz	wreg,f,c
  8372   0141AA  D7FC               	bra	u11287
  8373   0141AC  D000               	nop2	
  8374   0141AE  D000               	nop2	
  8375   0141B0  0012               	return		;funcret
  8376   0141B2                     __end_of_lcdNibble:
  8377                           	callstack 0
  8378                           
  8379 ;; *************** function _ENC_Set_Value *****************
  8380 ;; Defined at:
  8381 ;;		line 5 in file "./Fonctions.c"
  8382 ;; Parameters:    Size  Location     Type
  8383 ;;  val             2   42[BANK1 ] unsigned short 
  8384 ;; Auto vars:     Size  Location     Type
  8385 ;;		None
  8386 ;; Return value:  Size  Location     Type
  8387 ;;                  1    wreg      void 
  8388 ;; Registers used:
  8389 ;;		None
  8390 ;; Tracked objects:
  8391 ;;		On entry : 0/0
  8392 ;;		On exit  : 0/0
  8393 ;;		Unchanged: 0/0
  8394 ;; Data sizes:     COMRAM   BANK0   BANK1   BANK2   BANK3   BANK4   BANK5   BANK6   BANK7   BANK8   BANK9  BANK10  BANK1
      +1  BANK12  BANK13  BANK14
  8395 ;;      Params:         0       0       2       0       0       0       0       0       0       0       0       0       
      +0       0       0       0
  8396 ;;      Locals:         0       0       0       0       0       0       0       0       0       0       0       0       
      +0       0       0       0
  8397 ;;      Temps:          0       0       0       0       0       0       0       0       0       0       0       0       
      +0       0       0       0
  8398 ;;      Totals:         0       0       2       0       0       0       0       0       0       0       0       0       
      +0       0       0       0
  8399 ;;Total ram usage:        2 bytes
  8400 ;; Hardware stack levels used: 1
  8401 ;; Hardware stack levels required when called: 6
  8402 ;; This function calls:
  8403 ;;		Nothing
  8404 ;; This function is called by:
  8405 ;;		_Compass_Calibre
  8406 ;;		_Initialisation
  8407 ;;		_Mon_Prog
  8408 ;; This function uses a non-reentrant model
  8409 ;;
  8410                           
  8411                           	psect	text28
  8412   01469A                     __ptext28:
  8413                           	callstack 0
  8414   01469A                     _ENC_Set_Value:
  8415                           	callstack 23
  8416   01469A  C12A  F1B3         	movff	ENC_Set_Value@val,_consigne
  8417   01469E  C12B  F1B4         	movff	ENC_Set_Value@val+1,_consigne+1
  8418   0146A2  0012               	return		;funcret
  8419   0146A4                     __end_of_ENC_Set_Value:
  8420                           	callstack 0
  8421                           
  8422 ;; *************** function _BT_Enable *****************
  8423 ;; Defined at:
  8424 ;;		line 430 in file "./Fonctions.c"
  8425 ;; Parameters:    Size  Location     Type
  8426 ;;  BT              1    wreg     unsigned char 
  8427 ;; Auto vars:     Size  Location     Type
  8428 ;;  BT              1   42[BANK1 ] unsigned char 
  8429 ;; Return value:  Size  Location     Type
  8430 ;;                  1    wreg      void 
  8431 ;; Registers used:
  8432 ;;		wreg
  8433 ;; Tracked objects:
  8434 ;;		On entry : 0/0
  8435 ;;		On exit  : 0/0
  8436 ;;		Unchanged: 0/0
  8437 ;; Data sizes:     COMRAM   BANK0   BANK1   BANK2   BANK3   BANK4   BANK5   BANK6   BANK7   BANK8   BANK9  BANK10  BANK1
      +1  BANK12  BANK13  BANK14
  8438 ;;      Params:         0       0       0       0       0       0       0       0       0       0       0       0       
      +0       0       0       0
  8439 ;;      Locals:         0       0       1       0       0       0       0       0       0       0       0       0       
      +0       0       0       0
  8440 ;;      Temps:          0       0       0       0       0       0       0       0       0       0       0       0       
      +0       0       0       0
  8441 ;;      Totals:         0       0       1       0       0       0       0       0       0       0       0       0       
      +0       0       0       0
  8442 ;;Total ram usage:        1 bytes
  8443 ;; Hardware stack levels used: 1
  8444 ;; Hardware stack levels required when called: 6
  8445 ;; This function calls:
  8446 ;;		Nothing
  8447 ;; This function is called by:
  8448 ;;		_Initialisation
  8449 ;; This function uses a non-reentrant model
  8450 ;;
  8451                           
  8452                           	psect	text29
  8453   014602                     __ptext29:
  8454                           	callstack 0
  8455   014602                     _BT_Enable:
  8456                           	callstack 23
  8457                           
  8458                           ;incstack = 0
  8459                           ;BT_Enable@BT stored from wreg
  8460   014602  0101               	movlb	1	; () banked
  8461   014604  6F2A               	movwf	BT_Enable@BT& (0+255),b
  8462   014606  0101               	movlb	1	; () banked
  8463   014608  B12A               	btfsc	BT_Enable@BT& (0+255),0,b
  8464   01460A  EF09  F0A3         	goto	u6501
  8465   01460E  EF0D  F0A3         	goto	u6500
  8466   014612                     u6501:
  8467   014612  010E               	movlb	14	; () banked
  8468   014614  8FC5               	bsf	197,7,b	;volatile
  8469   014616  EF0F  F0A3         	goto	u6515
  8470   01461A                     u6500:
  8471   01461A  010E               	movlb	14	; () banked
  8472   01461C  9FC5               	bcf	197,7,b	;volatile
  8473   01461E                     u6515:
  8474   01461E                     
  8475                           ; BSR set to: 14
  8476   01461E  0012               	return		;funcret
  8477   014620                     __end_of_BT_Enable:
  8478                           	callstack 0
  8479                           
  8480 ;; *************** function _BP_Get_Falling_Edge *****************
  8481 ;; Defined at:
  8482 ;;		line 71 in file "./Fonctions.c"
  8483 ;; Parameters:    Size  Location     Type
  8484 ;;		None
  8485 ;; Auto vars:     Size  Location     Type
  8486 ;;		None
  8487 ;; Return value:  Size  Location     Type
  8488 ;;                  1    wreg      unsigned char 
  8489 ;; Registers used:
  8490 ;;		wreg, status,2, status,0
  8491 ;; Tracked objects:
  8492 ;;		On entry : 0/0
  8493 ;;		On exit  : 0/0
  8494 ;;		Unchanged: 0/0
  8495 ;; Data sizes:     COMRAM   BANK0   BANK1   BANK2   BANK3   BANK4   BANK5   BANK6   BANK7   BANK8   BANK9  BANK10  BANK1
      +1  BANK12  BANK13  BANK14
  8496 ;;      Params:         0       0       0       0       0       0       0       0       0       0       0       0       
      +0       0       0       0
  8497 ;;      Locals:         0       0       0       0       0       0       0       0       0       0       0       0       
      +0       0       0       0
  8498 ;;      Temps:          0       0       1       0       0       0       0       0       0       0       0       0       
      +0       0       0       0
  8499 ;;      Totals:         0       0       1       0       0       0       0       0       0       0       0       0       
      +0       0       0       0
  8500 ;;Total ram usage:        1 bytes
  8501 ;; Hardware stack levels used: 1
  8502 ;; Hardware stack levels required when called: 6
  8503 ;; This function calls:
  8504 ;;		Nothing
  8505 ;; This function is called by:
  8506 ;;		_Initialisation
  8507 ;;		_Mon_Prog
  8508 ;; This function uses a non-reentrant model
  8509 ;;
  8510                           
  8511                           	psect	text30
  8512   0143FA                     __ptext30:
  8513                           	callstack 0
  8514   0143FA                     _BP_Get_Falling_Edge:
  8515                           	callstack 23
  8516   0143FA                     
  8517                           ;./Fonctions.c: 73:     _delay((unsigned long)((10)*(64000000/4000.0)));
  8518   0143FA  0ED0               	movlw	208
  8519   0143FC  0101               	movlb	1	; () banked
  8520   0143FE  6F2A               	movwf	??_BP_Get_Falling_Edge& (0+255),b
  8521   014400  0EC9               	movlw	201
  8522   014402                     u11297:
  8523   014402  2EE8               	decfsz	wreg,f,c
  8524   014404  D7FE               	bra	u11297
  8525   014406  2F2A               	decfsz	??_BP_Get_Falling_Edge& (0+255),f,b
  8526   014408  D7FC               	bra	u11297
  8527   01440A  D000               	nop2	
  8528                           
  8529                           ;./Fonctions.c: 74:     BP_Status=PORTCbits.RC3;
  8530   01440C  0E00               	movlw	0
  8531   01440E  B68F               	btfsc	143,3,c	;volatile
  8532   014410  0E01               	movlw	1
  8533   014412  6E48               	movwf	_BP_Status^0,c
  8534   014414                     
  8535                           ;./Fonctions.c: 75:     if (BP_Status<Old_BP_Status) {BP_Edge=1;}
  8536   014414  5047               	movf	_Old_BP_Status^0,w,c
  8537   014416  5C48               	subwf	_BP_Status^0,w,c
  8538   014418  B0D8               	btfsc	status,0,c
  8539   01441A  EF11  F0A2         	goto	u6341
  8540   01441E  EF13  F0A2         	goto	u6340
  8541   014422                     u6341:
  8542   014422  EF17  F0A2         	goto	l5973
  8543   014426                     u6340:
  8544   014426  0E01               	movlw	1
  8545   014428  6E41               	movwf	_BP_Edge^0,c
  8546   01442A  EF19  F0A2         	goto	l5975
  8547   01442E                     l5973:
  8548   01442E  0E00               	movlw	0
  8549   014430  6E41               	movwf	_BP_Edge^0,c
  8550   014432                     l5975:
  8551                           
  8552                           ;./Fonctions.c: 77:     Old_BP_Status=BP_Status;
  8553   014432  C048  F047         	movff	_BP_Status,_Old_BP_Status
  8554                           
  8555                           ;./Fonctions.c: 78:     return BP_Edge;
  8556   014436  5041               	movf	_BP_Edge^0,w,c
  8557   014438  0012               	return		;funcret
  8558   01443A                     __end_of_BP_Get_Falling_Edge:
  8559                           	callstack 0
  8560                           
  8561 ;; *************** function _myLowIsr *****************
  8562 ;; Defined at:
  8563 ;;		line 1 in file "./Isr.c"
  8564 ;; Parameters:    Size  Location     Type
  8565 ;;		None
  8566 ;; Auto vars:     Size  Location     Type
  8567 ;;		None
  8568 ;; Return value:  Size  Location     Type
  8569 ;;                  1    wreg      void 
  8570 ;; Registers used:
  8571 ;;		wreg, status,2, status,0, tblptrl, tblptrh, tblptru, prodl, prodh, cstack
  8572 ;; Tracked objects:
  8573 ;;		On entry : 0/0
  8574 ;;		On exit  : 0/0
  8575 ;;		Unchanged: 0/0
  8576 ;; Data sizes:     COMRAM   BANK0   BANK1   BANK2   BANK3   BANK4   BANK5   BANK6   BANK7   BANK8   BANK9  BANK10  BANK1
      +1  BANK12  BANK13  BANK14
  8577 ;;      Params:         0       0       0       0       0       0       0       0       0       0       0       0       
      +0       0       0       0
  8578 ;;      Locals:         0       4       0       0       0       0       0       0       0       0       0       0       
      +0       0       0       0
  8579 ;;      Temps:          0      13       0       0       0       0       0       0       0       0       0       0       
      +0       0       0       0
  8580 ;;      Totals:         0      17       0       0       0       0       0       0       0       0       0       0       
      +0       0       0       0
  8581 ;;Total ram usage:       17 bytes
  8582 ;; Hardware stack levels used: 1
  8583 ;; Hardware stack levels required when called: 5
  8584 ;; This function calls:
  8585 ;;		___fleq
  8586 ;;		_atanf
  8587 ;;		i1_SSP2_Read
  8588 ;;		i1_SSP2_Write
  8589 ;;		i1___aldiv
  8590 ;;		i1___fladd
  8591 ;;		i1___fldiv
  8592 ;;		i1___flmul
  8593 ;;		i1___fltol
  8594 ;;		i1___xxtofl
  8595 ;; This function is called by:
  8596 ;;		Interrupt level 1
  8597 ;; This function uses a non-reentrant model
  8598 ;;
  8599                           
  8600                           	psect	intcodelo
  8601   000018                     __pintcodelo:
  8602                           	callstack 0
  8603   000018                     _myLowIsr:
  8604                           	callstack 20
  8605                           
  8606                           ;incstack = 0
  8607   000018  8049               	bsf	int$flags,0,c	;set compiler interrupt flag (level 1)
  8608   00001A  CFD8 F09E          	movff	status,??_myLowIsr+4
  8609   00001E  CFE8 F09F          	movff	wreg,??_myLowIsr+5
  8610   000022  CFE0 F0A0          	movff	bsr,??_myLowIsr+6
  8611   000026  CFF3 F0A1          	movff	prodl,??_myLowIsr+7
  8612   00002A  CFF4 F0A2          	movff	prodh,??_myLowIsr+8
  8613   00002E  CFF6 F0A3          	movff	tblptrl,??_myLowIsr+9
  8614   000032  CFF7 F0A4          	movff	tblptrh,??_myLowIsr+10
  8615   000036  CFF8 F0A5          	movff	tblptru,??_myLowIsr+11
  8616   00003A  CFF5 F0A6          	movff	tablat,??_myLowIsr+12
  8617   00003E                     
  8618                           ;./Isr.c: 3:     if (TMR3IE&&TMR3IF)
  8619   00003E  010E               	movlb	14	; () banked
  8620   000040  A5C6               	btfss	198,2,b	;volatile
  8621   000042  EF25  F000         	goto	i1u1028_21
  8622   000046  EF27  F000         	goto	i1u1028_20
  8623   00004A                     i1u1028_21:
  8624   00004A  EF1B  F002         	goto	i1l871
  8625   00004E                     i1u1028_20:
  8626   00004E                     
  8627                           ; BSR set to: 14
  8628   00004E  A5CE               	btfss	206,2,b	;volatile
  8629   000050  EF2C  F000         	goto	i1u1029_21
  8630   000054  EF2E  F000         	goto	i1u1029_20
  8631   000058                     i1u1029_21:
  8632   000058  EF1B  F002         	goto	i1l871
  8633   00005C                     i1u1029_20:
  8634   00005C  EFFD  F001         	goto	i1l8813
  8635   000060                     i1l8737:
  8636                           
  8637                           ; BSR set to: 0
  8638   000060  0E73               	movlw	115
  8639   000062  6EC8               	movwf	200,c	;volatile
  8640   000064  0E60               	movlw	96
  8641   000066  6EC7               	movwf	199,c	;volatile
  8642   000068  51CF               	movf	_CPTNBECHTMR3& (0+255),w,b
  8643   00006A  A4D8               	btfss	status,2,c
  8644   00006C  EF3A  F000         	goto	i1u1030_21
  8645   000070  EF3C  F000         	goto	i1u1030_20
  8646   000074                     i1u1030_21:
  8647   000074  EF45  F000         	goto	i1l8741
  8648   000078                     i1u1030_20:
  8649   000078                     
  8650                           ; BSR set to: 0
  8651   000078  0E00               	movlw	0
  8652   00007A  0101               	movlb	1	; () banked
  8653   00007C  6FBC               	movwf	(_MAGN_X+1)& (0+255),b
  8654   00007E  0E00               	movlw	0
  8655   000080  6FBB               	movwf	_MAGN_X& (0+255),b
  8656   000082  0E00               	movlw	0
  8657   000084  6FB6               	movwf	(_MAGN_Y+1)& (0+255),b
  8658   000086  0E00               	movlw	0
  8659   000088  6FB5               	movwf	_MAGN_Y& (0+255),b
  8660   00008A                     i1l8741:
  8661   00008A  0E31               	movlw	49
  8662   00008C  6E17               	movwf	i1SSP2_Write@SSP2_REG^0,c
  8663   00008E  0E01               	movlw	1
  8664   000090  6E18               	movwf	i1SSP2_Write@SSP2_DATA^0,c
  8665   000092  0E0C               	movlw	12
  8666   000094  ECE2  F0A2         	call	i1_SSP2_Write
  8667   000098                     i1l8743:
  8668   000098  0100               	movlb	0	; () banked
  8669   00009A  2BD0               	incf	_CPTTMR3& (0+255),f,b
  8670   00009C  EF19  F002         	goto	i1l875
  8671   0000A0                     i1l8745:
  8672                           
  8673                           ; BSR set to: 0
  8674   0000A0  0EF9               	movlw	249
  8675   0000A2  6EC8               	movwf	200,c	;volatile
  8676   0000A4  0EC0               	movlw	192
  8677   0000A6  6EC7               	movwf	199,c	;volatile
  8678   0000A8                     
  8679                           ; BSR set to: 0
  8680   0000A8  0E12               	movlw	18
  8681   0000AA  6E17               	movwf	i1SSP2_Read@SSP2_REG^0,c
  8682   0000AC  0E0C               	movlw	12
  8683   0000AE  EC10  F0A3         	call	i1_SSP2_Read
  8684   0000B2  EF4C  F000         	goto	i1l8743
  8685   0000B6                     i1l8751:
  8686                           
  8687                           ; BSR set to: 0
  8688   0000B6  0EF9               	movlw	249
  8689   0000B8  6EC8               	movwf	200,c	;volatile
  8690   0000BA  0EC0               	movlw	192
  8691   0000BC  6EC7               	movwf	199,c	;volatile
  8692   0000BE                     
  8693                           ; BSR set to: 0
  8694   0000BE  C1C1  F1BF         	movff	_SSP2_DATA_ISR,_MAGN_X_H
  8695   0000C2  0101               	movlb	1	; () banked
  8696   0000C4  6BC0               	clrf	(_MAGN_X_H+1)& (0+255),b
  8697   0000C6                     
  8698                           ; BSR set to: 1
  8699   0000C6  0E11               	movlw	17
  8700   0000C8  6E17               	movwf	i1SSP2_Read@SSP2_REG^0,c
  8701   0000CA  0E0C               	movlw	12
  8702   0000CC  EC10  F0A3         	call	i1_SSP2_Read
  8703   0000D0  EF4C  F000         	goto	i1l8743
  8704   0000D4                     i1l8759:
  8705                           
  8706                           ; BSR set to: 0
  8707   0000D4  0EF9               	movlw	249
  8708   0000D6  6EC8               	movwf	200,c	;volatile
  8709   0000D8  0EC0               	movlw	192
  8710   0000DA  6EC7               	movwf	199,c	;volatile
  8711   0000DC                     
  8712                           ; BSR set to: 0
  8713   0000DC  C1C1  F1BD         	movff	_SSP2_DATA_ISR,_MAGN_X_L
  8714   0000E0  0101               	movlb	1	; () banked
  8715   0000E2  6BBE               	clrf	(_MAGN_X_L+1)& (0+255),b
  8716   0000E4                     
  8717                           ; BSR set to: 1
  8718   0000E4  0E14               	movlw	20
  8719   0000E6  6E17               	movwf	i1SSP2_Read@SSP2_REG^0,c
  8720   0000E8  0E0C               	movlw	12
  8721   0000EA  EC10  F0A3         	call	i1_SSP2_Read
  8722   0000EE  0101               	movlb	1	; () banked
  8723   0000F0  51BF               	movf	_MAGN_X_H& (0+255),w,b
  8724   0000F2  0100               	movlb	0	; () banked
  8725   0000F4  6F9B               	movwf	(??_myLowIsr+1)& (0+255),b
  8726   0000F6  6B9A               	clrf	??_myLowIsr& (0+255),b
  8727   0000F8  0101               	movlb	1	; () banked
  8728   0000FA  51BB               	movf	_MAGN_X& (0+255),w,b
  8729   0000FC  0100               	movlb	0	; () banked
  8730   0000FE  279A               	addwf	??_myLowIsr& (0+255),f,b
  8731   000100  0101               	movlb	1	; () banked
  8732   000102  51BC               	movf	(_MAGN_X+1)& (0+255),w,b
  8733   000104  0100               	movlb	0	; () banked
  8734   000106  239B               	addwfc	(??_myLowIsr+1)& (0+255),f,b
  8735   000108  0101               	movlb	1	; () banked
  8736   00010A  51BD               	movf	_MAGN_X_L& (0+255),w,b
  8737   00010C  0100               	movlb	0	; () banked
  8738   00010E  259A               	addwf	??_myLowIsr& (0+255),w,b
  8739   000110  0101               	movlb	1	; () banked
  8740   000112  6FBB               	movwf	_MAGN_X& (0+255),b
  8741   000114  51BE               	movf	(_MAGN_X_L+1)& (0+255),w,b
  8742   000116  0100               	movlb	0	; () banked
  8743   000118  219B               	addwfc	(??_myLowIsr+1)& (0+255),w,b
  8744   00011A  0101               	movlb	1	; () banked
  8745   00011C  6FBC               	movwf	(_MAGN_X+1)& (0+255),b
  8746   00011E  EF4C  F000         	goto	i1l8743
  8747   000122                     i1l8769:
  8748                           
  8749                           ; BSR set to: 0
  8750   000122  0EF9               	movlw	249
  8751   000124  6EC8               	movwf	200,c	;volatile
  8752   000126  0EC0               	movlw	192
  8753   000128  6EC7               	movwf	199,c	;volatile
  8754   00012A                     
  8755                           ; BSR set to: 0
  8756   00012A  C1C1  F1B9         	movff	_SSP2_DATA_ISR,_MAGN_Y_H
  8757   00012E  0101               	movlb	1	; () banked
  8758   000130  6BBA               	clrf	(_MAGN_Y_H+1)& (0+255),b
  8759   000132                     
  8760                           ; BSR set to: 1
  8761   000132  0E13               	movlw	19
  8762   000134  6E17               	movwf	i1SSP2_Read@SSP2_REG^0,c
  8763   000136  0E0C               	movlw	12
  8764   000138  EC10  F0A3         	call	i1_SSP2_Read
  8765   00013C  EF4C  F000         	goto	i1l8743
  8766   000140                     i1l8777:
  8767                           
  8768                           ; BSR set to: 0
  8769   000140  0EF9               	movlw	249
  8770   000142  6EC8               	movwf	200,c	;volatile
  8771   000144  0EC0               	movlw	192
  8772   000146  6EC7               	movwf	199,c	;volatile
  8773   000148                     
  8774                           ; BSR set to: 0
  8775   000148  C1C1  F1B7         	movff	_SSP2_DATA_ISR,_MAGN_Y_L
  8776   00014C  0101               	movlb	1	; () banked
  8777   00014E  6BB8               	clrf	(_MAGN_Y_L+1)& (0+255),b
  8778   000150                     
  8779                           ; BSR set to: 1
  8780   000150  0E18               	movlw	24
  8781   000152  6E17               	movwf	i1SSP2_Read@SSP2_REG^0,c
  8782   000154  0E0C               	movlw	12
  8783   000156  EC10  F0A3         	call	i1_SSP2_Read
  8784   00015A  0101               	movlb	1	; () banked
  8785   00015C  51B9               	movf	_MAGN_Y_H& (0+255),w,b
  8786   00015E  0100               	movlb	0	; () banked
  8787   000160  6F9B               	movwf	(??_myLowIsr+1)& (0+255),b
  8788   000162  6B9A               	clrf	??_myLowIsr& (0+255),b
  8789   000164  0101               	movlb	1	; () banked
  8790   000166  51B5               	movf	_MAGN_Y& (0+255),w,b
  8791   000168  0100               	movlb	0	; () banked
  8792   00016A  279A               	addwf	??_myLowIsr& (0+255),f,b
  8793   00016C  0101               	movlb	1	; () banked
  8794   00016E  51B6               	movf	(_MAGN_Y+1)& (0+255),w,b
  8795   000170  0100               	movlb	0	; () banked
  8796   000172  239B               	addwfc	(??_myLowIsr+1)& (0+255),f,b
  8797   000174  0101               	movlb	1	; () banked
  8798   000176  51B7               	movf	_MAGN_Y_L& (0+255),w,b
  8799   000178  0100               	movlb	0	; () banked
  8800   00017A  259A               	addwf	??_myLowIsr& (0+255),w,b
  8801   00017C  0101               	movlb	1	; () banked
  8802   00017E  6FB5               	movwf	_MAGN_Y& (0+255),b
  8803   000180  51B8               	movf	(_MAGN_Y_L+1)& (0+255),w,b
  8804   000182  0100               	movlb	0	; () banked
  8805   000184  219B               	addwfc	(??_myLowIsr+1)& (0+255),w,b
  8806   000186  0101               	movlb	1	; () banked
  8807   000188  6FB6               	movwf	(_MAGN_Y+1)& (0+255),b
  8808   00018A                     
  8809                           ; BSR set to: 1
  8810                           ;./Isr.c: 13:                      CPTTMR3=0; CPTNBECHTMR3++;
  8811   00018A  0E00               	movlw	0
  8812   00018C  0100               	movlb	0	; () banked
  8813   00018E  6FD0               	movwf	_CPTTMR3& (0+255),b
  8814   000190                     
  8815                           ; BSR set to: 0
  8816   000190  2BCF               	incf	_CPTNBECHTMR3& (0+255),f,b
  8817   000192                     
  8818                           ; BSR set to: 0
  8819                           ;./Isr.c: 14:                      if (CPTNBECHTMR3==16)
  8820   000192  0E10               	movlw	16
  8821   000194  19CF               	xorwf	_CPTNBECHTMR3& (0+255),w,b
  8822   000196  A4D8               	btfss	status,2,c
  8823   000198  EFD0  F000         	goto	i1u1031_21
  8824   00019C  EFD2  F000         	goto	i1u1031_20
  8825   0001A0                     i1u1031_21:
  8826   0001A0  EF19  F002         	goto	i1l875
  8827   0001A4                     i1u1031_20:
  8828   0001A4                     
  8829                           ; BSR set to: 0
  8830                           ;./Isr.c: 15:                      {;./Isr.c: 16:                          MAGN_X=MAGN_X
      +                          >>4; MAGN_X=MAGN_X-MAGN_X_ZERO;
  8831   0001A4  C1BB  F09A         	movff	_MAGN_X,??_myLowIsr
  8832   0001A8  C1BC  F09B         	movff	_MAGN_X+1,??_myLowIsr+1
  8833   0001AC  0E04               	movlw	4
  8834   0001AE  6F9C               	movwf	(??_myLowIsr+2)& (0+255),b
  8835   0001B0                     i1u1032_25:
  8836   0001B0  359B               	rlcf	(??_myLowIsr+1)& (0+255),w,b
  8837   0001B2  339B               	rrcf	(??_myLowIsr+1)& (0+255),f,b
  8838   0001B4  339A               	rrcf	??_myLowIsr& (0+255),f,b
  8839   0001B6  2F9C               	decfsz	(??_myLowIsr+2)& (0+255),f,b
  8840   0001B8  EFD8  F000         	goto	i1u1032_25
  8841   0001BC  C09A  F1BB         	movff	??_myLowIsr,_MAGN_X
  8842   0001C0  C09B  F1BC         	movff	??_myLowIsr+1,_MAGN_X+1
  8843   0001C4  51CB               	movf	_MAGN_X_ZERO& (0+255),w,b
  8844   0001C6  0101               	movlb	1	; () banked
  8845   0001C8  5DBB               	subwf	_MAGN_X& (0+255),w,b
  8846   0001CA  6FBB               	movwf	_MAGN_X& (0+255),b
  8847   0001CC  0100               	movlb	0	; () banked
  8848   0001CE  51CC               	movf	(_MAGN_X_ZERO+1)& (0+255),w,b
  8849   0001D0  0101               	movlb	1	; () banked
  8850   0001D2  59BC               	subwfb	(_MAGN_X+1)& (0+255),w,b
  8851   0001D4  6FBC               	movwf	(_MAGN_X+1)& (0+255),b
  8852                           
  8853                           ;./Isr.c: 17:                          MAGN_Y=MAGN_Y>>4; MAGN_Y=MAGN_Y-MAGN_Y_ZERO;
  8854   0001D6  C1B5  F09A         	movff	_MAGN_Y,??_myLowIsr
  8855   0001DA  C1B6  F09B         	movff	_MAGN_Y+1,??_myLowIsr+1
  8856   0001DE  0E04               	movlw	4
  8857   0001E0  0100               	movlb	0	; () banked
  8858   0001E2  6F9C               	movwf	(??_myLowIsr+2)& (0+255),b
  8859   0001E4                     i1u1033_25:
  8860   0001E4  359B               	rlcf	(??_myLowIsr+1)& (0+255),w,b
  8861   0001E6  339B               	rrcf	(??_myLowIsr+1)& (0+255),f,b
  8862   0001E8  339A               	rrcf	??_myLowIsr& (0+255),f,b
  8863   0001EA  2F9C               	decfsz	(??_myLowIsr+2)& (0+255),f,b
  8864   0001EC  EFF2  F000         	goto	i1u1033_25
  8865   0001F0  C09A  F1B5         	movff	??_myLowIsr,_MAGN_Y
  8866   0001F4  C09B  F1B6         	movff	??_myLowIsr+1,_MAGN_Y+1
  8867   0001F8  51C9               	movf	_MAGN_Y_ZERO& (0+255),w,b
  8868   0001FA  0101               	movlb	1	; () banked
  8869   0001FC  5DB5               	subwf	_MAGN_Y& (0+255),w,b
  8870   0001FE  6FB5               	movwf	_MAGN_Y& (0+255),b
  8871   000200  0100               	movlb	0	; () banked
  8872   000202  51CA               	movf	(_MAGN_Y_ZERO+1)& (0+255),w,b
  8873   000204  0101               	movlb	1	; () banked
  8874   000206  59B6               	subwfb	(_MAGN_Y+1)& (0+255),w,b
  8875   000208  6FB6               	movwf	(_MAGN_Y+1)& (0+255),b
  8876   00020A                     
  8877                           ; BSR set to: 1
  8878                           ;./Isr.c: 18:                          MAGN_Y=(signed short)(RAPPORT_X_Y*MAGN_Y);
  8879   00020A  C1A7  F029         	movff	_RAPPORT_X_Y,i1___flmul@a
  8880   00020E  C1A8  F02A         	movff	_RAPPORT_X_Y+1,i1___flmul@a+1
  8881   000212  C1A9  F02B         	movff	_RAPPORT_X_Y+2,i1___flmul@a+2
  8882   000216  C1AA  F02C         	movff	_RAPPORT_X_Y+3,i1___flmul@a+3
  8883   00021A  C1B5  F017         	movff	_MAGN_Y,i1___xxtofl@val
  8884   00021E  C1B6  F018         	movff	_MAGN_Y+1,i1___xxtofl@val+1
  8885   000222  0E00               	movlw	0
  8886   000224  BE18               	btfsc	(i1___xxtofl@val+1)^0,7,c
  8887   000226  0EFF               	movlw	-1
  8888   000228  6E19               	movwf	(i1___xxtofl@val+2)^0,c
  8889   00022A  6E1A               	movwf	(i1___xxtofl@val+3)^0,c
  8890   00022C  0E01               	movlw	1
  8891   00022E  EC19  F09B         	call	i1___xxtofl
  8892   000232  C017  F025         	movff	?i1___xxtofl,i1___flmul@b
  8893   000236  C018  F026         	movff	?i1___xxtofl+1,i1___flmul@b+1
  8894   00023A  C019  F027         	movff	?i1___xxtofl+2,i1___flmul@b+2
  8895   00023E  C01A  F028         	movff	?i1___xxtofl+3,i1___flmul@b+3
  8896   000242  EC1F  F091         	call	i1___flmul	;wreg free
  8897   000246  C025  F06D         	movff	?i1___flmul,i1___fltol@f1
  8898   00024A  C026  F06E         	movff	?i1___flmul+1,i1___fltol@f1+1
  8899   00024E  C027  F06F         	movff	?i1___flmul+2,i1___fltol@f1+2
  8900   000252  C028  F070         	movff	?i1___flmul+3,i1___fltol@f1+3
  8901   000256  EC3C  F09E         	call	i1___fltol	;wreg free
  8902   00025A  C06D  F1B5         	movff	?i1___fltol,_MAGN_Y
  8903   00025E  C06E  F1B6         	movff	?i1___fltol+1,_MAGN_Y+1
  8904   000262                     
  8905                           ;./Isr.c: 19:                          ANGLE_MAGN=atanf((float)((float)MAGN_Y/(float)MAG
      +                          N_X));
  8906   000262  C1B5  F017         	movff	_MAGN_Y,i1___xxtofl@val
  8907   000266  C1B6  F018         	movff	_MAGN_Y+1,i1___xxtofl@val+1
  8908   00026A  0E00               	movlw	0
  8909   00026C  BE18               	btfsc	(i1___xxtofl@val+1)^0,7,c
  8910   00026E  0EFF               	movlw	-1
  8911   000270  6E19               	movwf	(i1___xxtofl@val+2)^0,c
  8912   000272  6E1A               	movwf	(i1___xxtofl@val+3)^0,c
  8913   000274  0E01               	movlw	1
  8914   000276  EC19  F09B         	call	i1___xxtofl
  8915   00027A  C017  F07D         	movff	?i1___xxtofl,i1___fldiv@b
  8916   00027E  C018  F07E         	movff	?i1___xxtofl+1,i1___fldiv@b+1
  8917   000282  C019  F07F         	movff	?i1___xxtofl+2,i1___fldiv@b+2
  8918   000286  C01A  F080         	movff	?i1___xxtofl+3,i1___fldiv@b+3
  8919   00028A  C1BB  F017         	movff	_MAGN_X,i1___xxtofl@val
  8920   00028E  C1BC  F018         	movff	_MAGN_X+1,i1___xxtofl@val+1
  8921   000292  0E00               	movlw	0
  8922   000294  BE18               	btfsc	(i1___xxtofl@val+1)^0,7,c
  8923   000296  0EFF               	movlw	-1
  8924   000298  6E19               	movwf	(i1___xxtofl@val+2)^0,c
  8925   00029A  6E1A               	movwf	(i1___xxtofl@val+3)^0,c
  8926   00029C  0E01               	movlw	1
  8927   00029E  EC19  F09B         	call	i1___xxtofl
  8928   0002A2  C017  F081         	movff	?i1___xxtofl,i1___fldiv@a
  8929   0002A6  C018  F082         	movff	?i1___xxtofl+1,i1___fldiv@a+1
  8930   0002AA  C019  F083         	movff	?i1___xxtofl+2,i1___fldiv@a+2
  8931   0002AE  C01A  F084         	movff	?i1___xxtofl+3,i1___fldiv@a+3
  8932   0002B2  ECFC  F096         	call	i1___fldiv	;wreg free
  8933   0002B6  C07D  F0A7         	movff	?i1___fldiv,_myLowIsr$2668
  8934   0002BA  C07E  F0A8         	movff	?i1___fldiv+1,_myLowIsr$2668+1
  8935   0002BE  C07F  F0A9         	movff	?i1___fldiv+2,_myLowIsr$2668+2
  8936   0002C2  C080  F0AA         	movff	?i1___fldiv+3,_myLowIsr$2668+3
  8937   0002C6                     
  8938                           ;./Isr.c: 19:                          ANGLE_MAGN=atanf((float)((float)MAGN_Y/(float)MAG
      +                          N_X));
  8939   0002C6  C0A7  F096         	movff	_myLowIsr$2668,atanf@x
  8940   0002CA  C0A8  F097         	movff	_myLowIsr$2668+1,atanf@x+1
  8941   0002CE  C0A9  F098         	movff	_myLowIsr$2668+2,atanf@x+2
  8942   0002D2  C0AA  F099         	movff	_myLowIsr$2668+3,atanf@x+3
  8943   0002D6  EC00  F080         	call	_atanf	;wreg free
  8944   0002DA  C096  F0D4         	movff	?_atanf,_ANGLE_MAGN
  8945   0002DE  C097  F0D5         	movff	?_atanf+1,_ANGLE_MAGN+1
  8946   0002E2  C098  F0D6         	movff	?_atanf+2,_ANGLE_MAGN+2
  8947   0002E6  C099  F0D7         	movff	?_atanf+3,_ANGLE_MAGN+3
  8948   0002EA                     
  8949                           ;./Isr.c: 20:                          ANGLE_MAGN=ANGLE_MAGN*(float)(180/3.1415926535897
      +                          9323846);
  8950   0002EA  C0D4  F025         	movff	_ANGLE_MAGN,i1___flmul@b
  8951   0002EE  C0D5  F026         	movff	_ANGLE_MAGN+1,i1___flmul@b+1
  8952   0002F2  C0D6  F027         	movff	_ANGLE_MAGN+2,i1___flmul@b+2
  8953   0002F6  C0D7  F028         	movff	_ANGLE_MAGN+3,i1___flmul@b+3
  8954   0002FA  0EE1               	movlw	225
  8955   0002FC  6E29               	movwf	i1___flmul@a^0,c
  8956   0002FE  0E2E               	movlw	46
  8957   000300  6E2A               	movwf	(i1___flmul@a+1)^0,c
  8958   000302  0E65               	movlw	101
  8959   000304  6E2B               	movwf	(i1___flmul@a+2)^0,c
  8960   000306  0E42               	movlw	66
  8961   000308  6E2C               	movwf	(i1___flmul@a+3)^0,c
  8962   00030A  EC1F  F091         	call	i1___flmul	;wreg free
  8963   00030E  C025  F0D4         	movff	?i1___flmul,_ANGLE_MAGN
  8964   000312  C026  F0D5         	movff	?i1___flmul+1,_ANGLE_MAGN+1
  8965   000316  C027  F0D6         	movff	?i1___flmul+2,_ANGLE_MAGN+2
  8966   00031A  C028  F0D7         	movff	?i1___flmul+3,_ANGLE_MAGN+3
  8967   00031E                     
  8968                           ;./Isr.c: 21:                          if (MAGN_X<0) {ANGLE_MAGN=180+ANGLE_MAGN;}
  8969   00031E  0101               	movlb	1	; () banked
  8970   000320  BFBC               	btfsc	(_MAGN_X+1)& (0+255),7,b
  8971   000322  EF97  F001         	goto	i1u1034_20
  8972   000326  EF95  F001         	goto	i1u1034_21
  8973   00032A                     i1u1034_21:
  8974   00032A  EFB4  F001         	goto	i1l8805
  8975   00032E                     i1u1034_20:
  8976   00032E                     
  8977                           ; BSR set to: 1
  8978   00032E  C0D4  F06D         	movff	_ANGLE_MAGN,i1___fladd@b
  8979   000332  C0D5  F06E         	movff	_ANGLE_MAGN+1,i1___fladd@b+1
  8980   000336  C0D6  F06F         	movff	_ANGLE_MAGN+2,i1___fladd@b+2
  8981   00033A  C0D7  F070         	movff	_ANGLE_MAGN+3,i1___fladd@b+3
  8982   00033E  0E00               	movlw	0
  8983   000340  0100               	movlb	0	; () banked
  8984   000342  6F71               	movwf	i1___fladd@a& (0+255),b
  8985   000344  0E00               	movlw	0
  8986   000346  6F72               	movwf	(i1___fladd@a+1)& (0+255),b
  8987   000348  0E34               	movlw	52
  8988   00034A  6F73               	movwf	(i1___fladd@a+2)& (0+255),b
  8989   00034C  0E43               	movlw	67
  8990   00034E  6F74               	movwf	(i1___fladd@a+3)& (0+255),b
  8991   000350  ECA8  F08C         	call	i1___fladd	;wreg free
  8992   000354  C06D  F0D4         	movff	?i1___fladd,_ANGLE_MAGN
  8993   000358  C06E  F0D5         	movff	?i1___fladd+1,_ANGLE_MAGN+1
  8994   00035C  C06F  F0D6         	movff	?i1___fladd+2,_ANGLE_MAGN+2
  8995   000360  C070  F0D7         	movff	?i1___fladd+3,_ANGLE_MAGN+3
  8996   000364  EFD6  F001         	goto	i1l883
  8997   000368                     i1l8805:
  8998                           
  8999                           ; BSR set to: 1
  9000   000368  BFB6               	btfsc	(_MAGN_Y+1)& (0+255),7,b
  9001   00036A  EFBB  F001         	goto	i1u1035_20
  9002   00036E  EFB9  F001         	goto	i1u1035_21
  9003   000372                     i1u1035_21:
  9004   000372  EFD6  F001         	goto	i1l883
  9005   000376                     i1u1035_20:
  9006   000376                     
  9007                           ; BSR set to: 1
  9008   000376  C0D4  F06D         	movff	_ANGLE_MAGN,i1___fladd@b
  9009   00037A  C0D5  F06E         	movff	_ANGLE_MAGN+1,i1___fladd@b+1
  9010   00037E  C0D6  F06F         	movff	_ANGLE_MAGN+2,i1___fladd@b+2
  9011   000382  C0D7  F070         	movff	_ANGLE_MAGN+3,i1___fladd@b+3
  9012   000386  0E00               	movlw	0
  9013   000388  0100               	movlb	0	; () banked
  9014   00038A  6F71               	movwf	i1___fladd@a& (0+255),b
  9015   00038C  0E00               	movlw	0
  9016   00038E  6F72               	movwf	(i1___fladd@a+1)& (0+255),b
  9017   000390  0EB4               	movlw	180
  9018   000392  6F73               	movwf	(i1___fladd@a+2)& (0+255),b
  9019   000394  0E43               	movlw	67
  9020   000396  6F74               	movwf	(i1___fladd@a+3)& (0+255),b
  9021   000398  ECA8  F08C         	call	i1___fladd	;wreg free
  9022   00039C  C06D  F0D4         	movff	?i1___fladd,_ANGLE_MAGN
  9023   0003A0  C06E  F0D5         	movff	?i1___fladd+1,_ANGLE_MAGN+1
  9024   0003A4  C06F  F0D6         	movff	?i1___fladd+2,_ANGLE_MAGN+2
  9025   0003A8  C070  F0D7         	movff	?i1___fladd+3,_ANGLE_MAGN+3
  9026   0003AC                     i1l883:
  9027                           
  9028                           ;./Isr.c: 23:                          if (ANGLE_MAGN==450) {ANGLE_MAGN=270;}
  9029   0003AC  C0D4  F017         	movff	_ANGLE_MAGN,___fleq@ff1
  9030   0003B0  C0D5  F018         	movff	_ANGLE_MAGN+1,___fleq@ff1+1
  9031   0003B4  C0D6  F019         	movff	_ANGLE_MAGN+2,___fleq@ff1+2
  9032   0003B8  C0D7  F01A         	movff	_ANGLE_MAGN+3,___fleq@ff1+3
  9033   0003BC  0E00               	movlw	0
  9034   0003BE  6E1B               	movwf	___fleq@ff2^0,c
  9035   0003C0  0E00               	movlw	0
  9036   0003C2  6E1C               	movwf	(___fleq@ff2+1)^0,c
  9037   0003C4  0EE1               	movlw	225
  9038   0003C6  6E1D               	movwf	(___fleq@ff2+2)^0,c
  9039   0003C8  0E43               	movlw	67
  9040   0003CA  6E1E               	movwf	(___fleq@ff2+3)^0,c
  9041   0003CC  ECD9  F0A0         	call	___fleq	;wreg free
  9042   0003D0  A0D8               	btfss	status,0,c
  9043   0003D2  EFED  F001         	goto	i1u1036_21
  9044   0003D6  EFEF  F001         	goto	i1u1036_20
  9045   0003DA                     i1u1036_21:
  9046   0003DA  EFF8  F001         	goto	i1l885
  9047   0003DE                     i1u1036_20:
  9048   0003DE  0E00               	movlw	0
  9049   0003E0  0100               	movlb	0	; () banked
  9050   0003E2  6FD4               	movwf	_ANGLE_MAGN& (0+255),b
  9051   0003E4  0E00               	movlw	0
  9052   0003E6  6FD5               	movwf	(_ANGLE_MAGN+1)& (0+255),b
  9053   0003E8  0E87               	movlw	135
  9054   0003EA  6FD6               	movwf	(_ANGLE_MAGN+2)& (0+255),b
  9055   0003EC  0E43               	movlw	67
  9056   0003EE  6FD7               	movwf	(_ANGLE_MAGN+3)& (0+255),b
  9057   0003F0                     i1l885:
  9058                           
  9059                           ;./Isr.c: 24:                          CPTNBECHTMR3=0;
  9060   0003F0  0E00               	movlw	0
  9061   0003F2  0100               	movlb	0	; () banked
  9062   0003F4  6FCF               	movwf	_CPTNBECHTMR3& (0+255),b
  9063   0003F6  EF19  F002         	goto	i1l875
  9064   0003FA                     i1l8813:
  9065                           
  9066                           ; BSR set to: 14
  9067   0003FA  0100               	movlb	0	; () banked
  9068   0003FC  51D0               	movf	_CPTTMR3& (0+255),w,b
  9069                           
  9070                           ; Switch size 1, requested type "simple"
  9071                           ; Number of cases is 6, Range of values is 0 to 5
  9072                           ; switch strategies available:
  9073                           ; Name         Instructions Cycles
  9074                           ; simple_byte           19    10 (average)
  9075                           ;	Chosen strategy is simple_byte
  9076   0003FE  0A00               	xorlw	0	; case 0
  9077   000400  B4D8               	btfsc	status,2,c
  9078   000402  EF30  F000         	goto	i1l8737
  9079   000406  0A01               	xorlw	1	; case 1
  9080   000408  B4D8               	btfsc	status,2,c
  9081   00040A  EF50  F000         	goto	i1l8745
  9082   00040E  0A03               	xorlw	3	; case 2
  9083   000410  B4D8               	btfsc	status,2,c
  9084   000412  EF5B  F000         	goto	i1l8751
  9085   000416  0A01               	xorlw	1	; case 3
  9086   000418  B4D8               	btfsc	status,2,c
  9087   00041A  EF6A  F000         	goto	i1l8759
  9088   00041E  0A07               	xorlw	7	; case 4
  9089   000420  B4D8               	btfsc	status,2,c
  9090   000422  EF91  F000         	goto	i1l8769
  9091   000426  0A01               	xorlw	1	; case 5
  9092   000428  B4D8               	btfsc	status,2,c
  9093   00042A  EFA0  F000         	goto	i1l8777
  9094   00042E  EF19  F002         	goto	i1l875
  9095   000432                     i1l875:
  9096                           
  9097                           ; BSR set to: 0
  9098                           ;./Isr.c: 28:         TMR3IF=0;
  9099   000432  010E               	movlb	14	; () banked
  9100   000434  95CE               	bcf	206,2,b	;volatile
  9101   000436                     i1l871:
  9102                           
  9103                           ; BSR set to: 14
  9104                           ;./Isr.c: 30:     if (TMR6IF&&TMR6IE)
  9105   000436  ABCE               	btfss	206,5,b	;volatile
  9106   000438  EF20  F002         	goto	i1u1037_21
  9107   00043C  EF22  F002         	goto	i1u1037_20
  9108   000440                     i1u1037_21:
  9109   000440  EFA9  F005         	goto	i1l944
  9110   000444                     i1u1037_20:
  9111   000444                     
  9112                           ; BSR set to: 14
  9113   000444  ABC6               	btfss	198,5,b	;volatile
  9114   000446  EF27  F002         	goto	i1u1038_21
  9115   00044A  EF29  F002         	goto	i1u1038_20
  9116   00044E                     i1u1038_21:
  9117   00044E  EFA9  F005         	goto	i1l944
  9118   000452                     i1u1038_20:
  9119   000452                     
  9120                           ; BSR set to: 14
  9121                           ;./Isr.c: 31:     {;./Isr.c: 32:         if (CPT_ENC==1) {CPT_ENC=2;}
  9122   000452  0100               	movlb	0	; () banked
  9123   000454  05D1               	decf	_CPT_ENC& (0+255),w,b
  9124   000456  A4D8               	btfss	status,2,c
  9125   000458  EF30  F002         	goto	i1u1039_21
  9126   00045C  EF32  F002         	goto	i1u1039_20
  9127   000460                     i1u1039_21:
  9128   000460  EF36  F002         	goto	i1l8821
  9129   000464                     i1u1039_20:
  9130   000464                     
  9131                           ; BSR set to: 0
  9132   000464  0E02               	movlw	2
  9133   000466  6FD1               	movwf	_CPT_ENC& (0+255),b
  9134   000468  EF62  F003         	goto	i1l8921
  9135   00046C                     i1l8821:
  9136                           
  9137                           ; BSR set to: 0
  9138   00046C  0E02               	movlw	2
  9139   00046E  19D1               	xorwf	_CPT_ENC& (0+255),w,b
  9140   000470  A4D8               	btfss	status,2,c
  9141   000472  EF3D  F002         	goto	i1u1040_21
  9142   000476  EF3F  F002         	goto	i1u1040_20
  9143   00047A                     i1u1040_21:
  9144   00047A  EF62  F003         	goto	i1l8921
  9145   00047E                     i1u1040_20:
  9146   00047E                     
  9147                           ; BSR set to: 0
  9148                           ;./Isr.c: 34:         {;./Isr.c: 35:             if (CENCA==0&&CENCB==0) {if (!PORTAbits
      +                          .RA6&& PORTCbits.RC2) {CENCA=1;} else {CENCA=0;}}
  9149   00047E  51D3               	movf	_CENCA& (0+255),w,b
  9150   000480  A4D8               	btfss	status,2,c
  9151   000482  EF45  F002         	goto	i1u1041_21
  9152   000486  EF47  F002         	goto	i1u1041_20
  9153   00048A                     i1u1041_21:
  9154   00048A  EF66  F002         	goto	i1l8835
  9155   00048E                     i1u1041_20:
  9156   00048E                     
  9157                           ; BSR set to: 0
  9158   00048E  51D2               	movf	_CENCB& (0+255),w,b
  9159   000490  A4D8               	btfss	status,2,c
  9160   000492  EF4D  F002         	goto	i1u1042_21
  9161   000496  EF4F  F002         	goto	i1u1042_20
  9162   00049A                     i1u1042_21:
  9163   00049A  EF66  F002         	goto	i1l8835
  9164   00049E                     i1u1042_20:
  9165   00049E                     
  9166                           ; BSR set to: 0
  9167   00049E  BC8D               	btfsc	141,6,c	;volatile
  9168   0004A0  EF54  F002         	goto	i1u1043_21
  9169   0004A4  EF56  F002         	goto	i1u1043_20
  9170   0004A8                     i1u1043_21:
  9171   0004A8  EF61  F002         	goto	i1l8833
  9172   0004AC                     i1u1043_20:
  9173   0004AC                     
  9174                           ; BSR set to: 0
  9175   0004AC  A48F               	btfss	143,2,c	;volatile
  9176   0004AE  EF5B  F002         	goto	i1u1044_21
  9177   0004B2  EF5D  F002         	goto	i1u1044_20
  9178   0004B6                     i1u1044_21:
  9179   0004B6  EF61  F002         	goto	i1l8833
  9180   0004BA                     i1u1044_20:
  9181   0004BA                     
  9182                           ; BSR set to: 0
  9183   0004BA  0E01               	movlw	1
  9184   0004BC  6FD3               	movwf	_CENCA& (0+255),b
  9185   0004BE  EFCF  F002         	goto	i1l8871
  9186   0004C2                     i1l8833:
  9187   0004C2  0E00               	movlw	0
  9188   0004C4  0100               	movlb	0	; () banked
  9189   0004C6  6FD3               	movwf	_CENCA& (0+255),b
  9190   0004C8  EFCF  F002         	goto	i1l8871
  9191   0004CC                     i1l8835:
  9192                           
  9193                           ; BSR set to: 0
  9194   0004CC  05D3               	decf	_CENCA& (0+255),w,b
  9195   0004CE  A4D8               	btfss	status,2,c
  9196   0004D0  EF6C  F002         	goto	i1u1045_21
  9197   0004D4  EF6E  F002         	goto	i1u1045_20
  9198   0004D8                     i1u1045_21:
  9199   0004D8  EF88  F002         	goto	i1l8847
  9200   0004DC                     i1u1045_20:
  9201   0004DC                     
  9202                           ; BSR set to: 0
  9203   0004DC  51D2               	movf	_CENCB& (0+255),w,b
  9204   0004DE  A4D8               	btfss	status,2,c
  9205   0004E0  EF74  F002         	goto	i1u1046_21
  9206   0004E4  EF76  F002         	goto	i1u1046_20
  9207   0004E8                     i1u1046_21:
  9208   0004E8  EF88  F002         	goto	i1l8847
  9209   0004EC                     i1u1046_20:
  9210   0004EC                     
  9211                           ; BSR set to: 0
  9212   0004EC  BC8D               	btfsc	141,6,c	;volatile
  9213   0004EE  EF7B  F002         	goto	i1u1047_21
  9214   0004F2  EF7D  F002         	goto	i1u1047_20
  9215   0004F6                     i1u1047_21:
  9216   0004F6  EF61  F002         	goto	i1l8833
  9217   0004FA                     i1u1047_20:
  9218   0004FA                     
  9219                           ; BSR set to: 0
  9220   0004FA  B48F               	btfsc	143,2,c	;volatile
  9221   0004FC  EF82  F002         	goto	i1u1048_21
  9222   000500  EF84  F002         	goto	i1u1048_20
  9223   000504                     i1u1048_21:
  9224   000504  EF61  F002         	goto	i1l8833
  9225   000508                     i1u1048_20:
  9226   000508                     
  9227                           ; BSR set to: 0
  9228   000508  0E02               	movlw	2
  9229   00050A  6FD3               	movwf	_CENCA& (0+255),b
  9230   00050C  EFCF  F002         	goto	i1l8871
  9231   000510                     i1l8847:
  9232                           
  9233                           ; BSR set to: 0
  9234   000510  0E02               	movlw	2
  9235   000512  19D3               	xorwf	_CENCA& (0+255),w,b
  9236   000514  A4D8               	btfss	status,2,c
  9237   000516  EF8F  F002         	goto	i1u1049_21
  9238   00051A  EF91  F002         	goto	i1u1049_20
  9239   00051E                     i1u1049_21:
  9240   00051E  EFAB  F002         	goto	i1l8859
  9241   000522                     i1u1049_20:
  9242   000522                     
  9243                           ; BSR set to: 0
  9244   000522  51D2               	movf	_CENCB& (0+255),w,b
  9245   000524  A4D8               	btfss	status,2,c
  9246   000526  EF97  F002         	goto	i1u1050_21
  9247   00052A  EF99  F002         	goto	i1u1050_20
  9248   00052E                     i1u1050_21:
  9249   00052E  EFAB  F002         	goto	i1l8859
  9250   000532                     i1u1050_20:
  9251   000532                     
  9252                           ; BSR set to: 0
  9253   000532  AC8D               	btfss	141,6,c	;volatile
  9254   000534  EF9E  F002         	goto	i1u1051_21
  9255   000538  EFA0  F002         	goto	i1u1051_20
  9256   00053C                     i1u1051_21:
  9257   00053C  EF61  F002         	goto	i1l8833
  9258   000540                     i1u1051_20:
  9259   000540                     
  9260                           ; BSR set to: 0
  9261   000540  B48F               	btfsc	143,2,c	;volatile
  9262   000542  EFA5  F002         	goto	i1u1052_21
  9263   000546  EFA7  F002         	goto	i1u1052_20
  9264   00054A                     i1u1052_21:
  9265   00054A  EF61  F002         	goto	i1l8833
  9266   00054E                     i1u1052_20:
  9267   00054E                     
  9268                           ; BSR set to: 0
  9269   00054E  0E03               	movlw	3
  9270   000550  6FD3               	movwf	_CENCA& (0+255),b
  9271   000552  EFCF  F002         	goto	i1l8871
  9272   000556                     i1l8859:
  9273                           
  9274                           ; BSR set to: 0
  9275   000556  0E03               	movlw	3
  9276   000558  19D3               	xorwf	_CENCA& (0+255),w,b
  9277   00055A  A4D8               	btfss	status,2,c
  9278   00055C  EFB2  F002         	goto	i1u1053_21
  9279   000560  EFB4  F002         	goto	i1u1053_20
  9280   000564                     i1u1053_21:
  9281   000564  EFCF  F002         	goto	i1l8871
  9282   000568                     i1u1053_20:
  9283   000568                     
  9284                           ; BSR set to: 0
  9285   000568  51D2               	movf	_CENCB& (0+255),w,b
  9286   00056A  A4D8               	btfss	status,2,c
  9287   00056C  EFBA  F002         	goto	i1u1054_21
  9288   000570  EFBC  F002         	goto	i1u1054_20
  9289   000574                     i1u1054_21:
  9290   000574  EFCF  F002         	goto	i1l8871
  9291   000578                     i1u1054_20:
  9292   000578                     
  9293                           ; BSR set to: 0
  9294   000578  AC8D               	btfss	141,6,c	;volatile
  9295   00057A  EFC1  F002         	goto	i1u1055_21
  9296   00057E  EFC3  F002         	goto	i1u1055_20
  9297   000582                     i1u1055_21:
  9298   000582  EF61  F002         	goto	i1l8833
  9299   000586                     i1u1055_20:
  9300   000586                     
  9301                           ; BSR set to: 0
  9302   000586  A48F               	btfss	143,2,c	;volatile
  9303   000588  EFC8  F002         	goto	i1u1056_21
  9304   00058C  EFCA  F002         	goto	i1u1056_20
  9305   000590                     i1u1056_21:
  9306   000590  EF61  F002         	goto	i1l8833
  9307   000594                     i1u1056_20:
  9308   000594                     
  9309                           ; BSR set to: 0
  9310   000594  0101               	movlb	1	; () banked
  9311   000596  4BB3               	infsnz	_consigne& (0+255),f,b
  9312   000598  2BB4               	incf	(_consigne+1)& (0+255),f,b
  9313   00059A  EF61  F002         	goto	i1l8833
  9314   00059E                     i1l8871:
  9315                           
  9316                           ; BSR set to: 0
  9317                           ;./Isr.c: 39:             if (CENCB==0&&CENCA==0) {if ( PORTAbits.RA6&&!PORTCbits.RC2) {
      +                          CENCB=1;} else {CENCB=0;}}
  9318   00059E  51D2               	movf	_CENCB& (0+255),w,b
  9319   0005A0  A4D8               	btfss	status,2,c
  9320   0005A2  EFD5  F002         	goto	i1u1057_21
  9321   0005A6  EFD7  F002         	goto	i1u1057_20
  9322   0005AA                     i1u1057_21:
  9323   0005AA  EFF6  F002         	goto	i1l8883
  9324   0005AE                     i1u1057_20:
  9325   0005AE                     
  9326                           ; BSR set to: 0
  9327   0005AE  51D3               	movf	_CENCA& (0+255),w,b
  9328   0005B0  A4D8               	btfss	status,2,c
  9329   0005B2  EFDD  F002         	goto	i1u1058_21
  9330   0005B6  EFDF  F002         	goto	i1u1058_20
  9331   0005BA                     i1u1058_21:
  9332   0005BA  EFF6  F002         	goto	i1l8883
  9333   0005BE                     i1u1058_20:
  9334   0005BE                     
  9335                           ; BSR set to: 0
  9336   0005BE  AC8D               	btfss	141,6,c	;volatile
  9337   0005C0  EFE4  F002         	goto	i1u1059_21
  9338   0005C4  EFE6  F002         	goto	i1u1059_20
  9339   0005C8                     i1u1059_21:
  9340   0005C8  EFF1  F002         	goto	i1l8881
  9341   0005CC                     i1u1059_20:
  9342   0005CC                     
  9343                           ; BSR set to: 0
  9344   0005CC  B48F               	btfsc	143,2,c	;volatile
  9345   0005CE  EFEB  F002         	goto	i1u1060_21
  9346   0005D2  EFED  F002         	goto	i1u1060_20
  9347   0005D6                     i1u1060_21:
  9348   0005D6  EFF1  F002         	goto	i1l8881
  9349   0005DA                     i1u1060_20:
  9350   0005DA                     
  9351                           ; BSR set to: 0
  9352   0005DA  0E01               	movlw	1
  9353   0005DC  6FD2               	movwf	_CENCB& (0+255),b
  9354   0005DE  EF60  F003         	goto	i1l8919
  9355   0005E2                     i1l8881:
  9356   0005E2  0E00               	movlw	0
  9357   0005E4  0100               	movlb	0	; () banked
  9358   0005E6  6FD2               	movwf	_CENCB& (0+255),b
  9359   0005E8  EF60  F003         	goto	i1l8919
  9360   0005EC                     i1l8883:
  9361                           
  9362                           ; BSR set to: 0
  9363   0005EC  05D2               	decf	_CENCB& (0+255),w,b
  9364   0005EE  A4D8               	btfss	status,2,c
  9365   0005F0  EFFC  F002         	goto	i1u1061_21
  9366   0005F4  EFFE  F002         	goto	i1u1061_20
  9367   0005F8                     i1u1061_21:
  9368   0005F8  EF18  F003         	goto	i1l8895
  9369   0005FC                     i1u1061_20:
  9370   0005FC                     
  9371                           ; BSR set to: 0
  9372   0005FC  51D3               	movf	_CENCA& (0+255),w,b
  9373   0005FE  A4D8               	btfss	status,2,c
  9374   000600  EF04  F003         	goto	i1u1062_21
  9375   000604  EF06  F003         	goto	i1u1062_20
  9376   000608                     i1u1062_21:
  9377   000608  EF18  F003         	goto	i1l8895
  9378   00060C                     i1u1062_20:
  9379   00060C                     
  9380                           ; BSR set to: 0
  9381   00060C  BC8D               	btfsc	141,6,c	;volatile
  9382   00060E  EF0B  F003         	goto	i1u1063_21
  9383   000612  EF0D  F003         	goto	i1u1063_20
  9384   000616                     i1u1063_21:
  9385   000616  EFF1  F002         	goto	i1l8881
  9386   00061A                     i1u1063_20:
  9387   00061A                     
  9388                           ; BSR set to: 0
  9389   00061A  B48F               	btfsc	143,2,c	;volatile
  9390   00061C  EF12  F003         	goto	i1u1064_21
  9391   000620  EF14  F003         	goto	i1u1064_20
  9392   000624                     i1u1064_21:
  9393   000624  EFF1  F002         	goto	i1l8881
  9394   000628                     i1u1064_20:
  9395   000628                     
  9396                           ; BSR set to: 0
  9397   000628  0E02               	movlw	2
  9398   00062A  6FD2               	movwf	_CENCB& (0+255),b
  9399   00062C  EF60  F003         	goto	i1l8919
  9400   000630                     i1l8895:
  9401                           
  9402                           ; BSR set to: 0
  9403   000630  0E02               	movlw	2
  9404   000632  19D2               	xorwf	_CENCB& (0+255),w,b
  9405   000634  A4D8               	btfss	status,2,c
  9406   000636  EF1F  F003         	goto	i1u1065_21
  9407   00063A  EF21  F003         	goto	i1u1065_20
  9408   00063E                     i1u1065_21:
  9409   00063E  EF3B  F003         	goto	i1l8907
  9410   000642                     i1u1065_20:
  9411   000642                     
  9412                           ; BSR set to: 0
  9413   000642  51D3               	movf	_CENCA& (0+255),w,b
  9414   000644  A4D8               	btfss	status,2,c
  9415   000646  EF27  F003         	goto	i1u1066_21
  9416   00064A  EF29  F003         	goto	i1u1066_20
  9417   00064E                     i1u1066_21:
  9418   00064E  EF3B  F003         	goto	i1l8907
  9419   000652                     i1u1066_20:
  9420   000652                     
  9421                           ; BSR set to: 0
  9422   000652  BC8D               	btfsc	141,6,c	;volatile
  9423   000654  EF2E  F003         	goto	i1u1067_21
  9424   000658  EF30  F003         	goto	i1u1067_20
  9425   00065C                     i1u1067_21:
  9426   00065C  EFF1  F002         	goto	i1l8881
  9427   000660                     i1u1067_20:
  9428   000660                     
  9429                           ; BSR set to: 0
  9430   000660  A48F               	btfss	143,2,c	;volatile
  9431   000662  EF35  F003         	goto	i1u1068_21
  9432   000666  EF37  F003         	goto	i1u1068_20
  9433   00066A                     i1u1068_21:
  9434   00066A  EFF1  F002         	goto	i1l8881
  9435   00066E                     i1u1068_20:
  9436   00066E                     
  9437                           ; BSR set to: 0
  9438   00066E  0E03               	movlw	3
  9439   000670  6FD2               	movwf	_CENCB& (0+255),b
  9440   000672  EF60  F003         	goto	i1l8919
  9441   000676                     i1l8907:
  9442                           
  9443                           ; BSR set to: 0
  9444   000676  0E03               	movlw	3
  9445   000678  19D2               	xorwf	_CENCB& (0+255),w,b
  9446   00067A  A4D8               	btfss	status,2,c
  9447   00067C  EF42  F003         	goto	i1u1069_21
  9448   000680  EF44  F003         	goto	i1u1069_20
  9449   000684                     i1u1069_21:
  9450   000684  EF60  F003         	goto	i1l8919
  9451   000688                     i1u1069_20:
  9452   000688                     
  9453                           ; BSR set to: 0
  9454   000688  51D3               	movf	_CENCA& (0+255),w,b
  9455   00068A  A4D8               	btfss	status,2,c
  9456   00068C  EF4A  F003         	goto	i1u1070_21
  9457   000690  EF4C  F003         	goto	i1u1070_20
  9458   000694                     i1u1070_21:
  9459   000694  EF60  F003         	goto	i1l8919
  9460   000698                     i1u1070_20:
  9461   000698                     
  9462                           ; BSR set to: 0
  9463   000698  AC8D               	btfss	141,6,c	;volatile
  9464   00069A  EF51  F003         	goto	i1u1071_21
  9465   00069E  EF53  F003         	goto	i1u1071_20
  9466   0006A2                     i1u1071_21:
  9467   0006A2  EFF1  F002         	goto	i1l8881
  9468   0006A6                     i1u1071_20:
  9469   0006A6                     
  9470                           ; BSR set to: 0
  9471   0006A6  A48F               	btfss	143,2,c	;volatile
  9472   0006A8  EF58  F003         	goto	i1u1072_21
  9473   0006AC  EF5A  F003         	goto	i1u1072_20
  9474   0006B0                     i1u1072_21:
  9475   0006B0  EFF1  F002         	goto	i1l8881
  9476   0006B4                     i1u1072_20:
  9477   0006B4                     
  9478                           ; BSR set to: 0
  9479   0006B4  0101               	movlb	1	; () banked
  9480   0006B6  07B3               	decf	_consigne& (0+255),f,b
  9481   0006B8  A0D8               	btfss	status,0,c
  9482   0006BA  07B4               	decf	(_consigne+1)& (0+255),f,b
  9483   0006BC  EFF1  F002         	goto	i1l8881
  9484   0006C0                     i1l8919:
  9485                           
  9486                           ; BSR set to: 0
  9487                           ;./Isr.c: 43:             CPT_ENC=0;
  9488   0006C0  0E00               	movlw	0
  9489   0006C2  6FD1               	movwf	_CPT_ENC& (0+255),b
  9490   0006C4                     i1l8921:
  9491                           
  9492                           ; BSR set to: 0
  9493                           ;./Isr.c: 45:         if (RC1STAbits.FERR||RC1STAbits.OERR) {RC1STAbits.CREN=0; RC1STAbi
      +                          ts.CREN=1; RC1REG; RC1REG;}
  9494   0006C4  B49D               	btfsc	157,2,c	;volatile
  9495   0006C6  EF67  F003         	goto	i1u1073_21
  9496   0006CA  EF69  F003         	goto	i1u1073_20
  9497   0006CE                     i1u1073_21:
  9498   0006CE  EF70  F003         	goto	i1l920
  9499   0006D2                     i1u1073_20:
  9500   0006D2                     
  9501                           ; BSR set to: 0
  9502   0006D2  A29D               	btfss	157,1,c	;volatile
  9503   0006D4  EF6E  F003         	goto	i1u1074_21
  9504   0006D8  EF70  F003         	goto	i1u1074_20
  9505   0006DC                     i1u1074_21:
  9506   0006DC  EF74  F003         	goto	i1l8927
  9507   0006E0                     i1u1074_20:
  9508   0006E0                     i1l920:
  9509                           
  9510                           ; BSR set to: 0
  9511   0006E0  989D               	bcf	157,4,c	;volatile
  9512   0006E2  889D               	bsf	157,4,c	;volatile
  9513   0006E4                     
  9514                           ; BSR set to: 0
  9515   0006E4  5099               	movf	153,w,c	;volatile
  9516   0006E6  5099               	movf	153,w,c	;volatile
  9517   0006E8                     i1l8927:
  9518                           
  9519                           ; BSR set to: 0
  9520                           ;./Isr.c: 46:         if (RC2STAbits.FERR||RC2STAbits.OERR) {RC2STAbits.CREN=0; RC2STAbi
      +                          ts.CREN=1; RC2REG; RC2REG;}
  9521   0006E8  010E               	movlb	14	; () banked
  9522   0006EA  B59D               	btfsc	157,2,b	;volatile
  9523   0006EC  EF7A  F003         	goto	i1u1075_21
  9524   0006F0  EF7C  F003         	goto	i1u1075_20
  9525   0006F4                     i1u1075_21:
  9526   0006F4  EF83  F003         	goto	i1l923
  9527   0006F8                     i1u1075_20:
  9528   0006F8                     
  9529                           ; BSR set to: 14
  9530   0006F8  A39D               	btfss	157,1,b	;volatile
  9531   0006FA  EF81  F003         	goto	i1u1076_21
  9532   0006FE  EF83  F003         	goto	i1u1076_20
  9533   000702                     i1u1076_21:
  9534   000702  EF87  F003         	goto	i1l8933
  9535   000706                     i1u1076_20:
  9536   000706                     i1l923:
  9537                           
  9538                           ; BSR set to: 14
  9539   000706  999D               	bcf	157,4,b	;volatile
  9540   000708  899D               	bsf	157,4,b	;volatile
  9541   00070A                     
  9542                           ; BSR set to: 14
  9543   00070A  5199               	movf	153,w,b	;volatile
  9544   00070C  5199               	movf	153,w,b	;volatile
  9545   00070E                     i1l8933:
  9546                           
  9547                           ; BSR set to: 14
  9548                           ;./Isr.c: 47:         millisecondes++;
  9549   00070E  0E01               	movlw	1
  9550   000710  0101               	movlb	1	; () banked
  9551   000712  279B               	addwf	_millisecondes& (0+255),f,b
  9552   000714  0E00               	movlw	0
  9553   000716  239C               	addwfc	(_millisecondes+1)& (0+255),f,b
  9554   000718  239D               	addwfc	(_millisecondes+2)& (0+255),f,b
  9555   00071A  239E               	addwfc	(_millisecondes+3)& (0+255),f,b
  9556   00071C                     
  9557                           ; BSR set to: 1
  9558                           ;./Isr.c: 48:         erreurg=(signed short)(-consigneg-(87000/tempsg)); erreurd=(signed
      +                           short)(-consigned-(87000/tempsd));
  9559   00071C  0ED8               	movlw	216
  9560   00071E  6E17               	movwf	i1___aldiv@dividend^0,c
  9561   000720  0E53               	movlw	83
  9562   000722  6E18               	movwf	(i1___aldiv@dividend+1)^0,c
  9563   000724  0E01               	movlw	1
  9564   000726  6E19               	movwf	(i1___aldiv@dividend+2)^0,c
  9565   000728  0E00               	movlw	0
  9566   00072A  6E1A               	movwf	(i1___aldiv@dividend+3)^0,c
  9567   00072C  C0E4  F01B         	movff	_tempsg,i1___aldiv@divisor
  9568   000730  C0E5  F01C         	movff	_tempsg+1,i1___aldiv@divisor+1
  9569   000734  C0E6  F01D         	movff	_tempsg+2,i1___aldiv@divisor+2
  9570   000738  C0E7  F01E         	movff	_tempsg+3,i1___aldiv@divisor+3
  9571   00073C  EC32  F09D         	call	i1___aldiv	;wreg free
  9572   000740  0100               	movlb	0	; () banked
  9573   000742  51BF               	movf	_consigneg& (0+255),w,b
  9574   000744  2617               	addwf	?i1___aldiv^0,f,c
  9575   000746  51C0               	movf	(_consigneg+1)& (0+255),w,b
  9576   000748  2218               	addwfc	(?i1___aldiv+1)^0,f,c
  9577   00074A  1E17               	comf	?i1___aldiv^0,f,c
  9578   00074C  1E18               	comf	(?i1___aldiv+1)^0,f,c
  9579   00074E  4A17               	infsnz	?i1___aldiv^0,f,c
  9580   000750  2A18               	incf	(?i1___aldiv+1)^0,f,c
  9581   000752  C017  F0C7         	movff	?i1___aldiv,_erreurg
  9582   000756  C018  F0C8         	movff	?i1___aldiv+1,_erreurg+1
  9583   00075A                     
  9584                           ; BSR set to: 0
  9585   00075A  0ED8               	movlw	216
  9586   00075C  6E17               	movwf	i1___aldiv@dividend^0,c
  9587   00075E  0E53               	movlw	83
  9588   000760  6E18               	movwf	(i1___aldiv@dividend+1)^0,c
  9589   000762  0E01               	movlw	1
  9590   000764  6E19               	movwf	(i1___aldiv@dividend+2)^0,c
  9591   000766  0E00               	movlw	0
  9592   000768  6E1A               	movwf	(i1___aldiv@dividend+3)^0,c
  9593   00076A  C0E0  F01B         	movff	_tempsd,i1___aldiv@divisor
  9594   00076E  C0E1  F01C         	movff	_tempsd+1,i1___aldiv@divisor+1
  9595   000772  C0E2  F01D         	movff	_tempsd+2,i1___aldiv@divisor+2
  9596   000776  C0E3  F01E         	movff	_tempsd+3,i1___aldiv@divisor+3
  9597   00077A  EC32  F09D         	call	i1___aldiv	;wreg free
  9598   00077E  0100               	movlb	0	; () banked
  9599   000780  51BD               	movf	_consigned& (0+255),w,b
  9600   000782  2617               	addwf	?i1___aldiv^0,f,c
  9601   000784  51BE               	movf	(_consigned+1)& (0+255),w,b
  9602   000786  2218               	addwfc	(?i1___aldiv+1)^0,f,c
  9603   000788  1E17               	comf	?i1___aldiv^0,f,c
  9604   00078A  1E18               	comf	(?i1___aldiv+1)^0,f,c
  9605   00078C  4A17               	infsnz	?i1___aldiv^0,f,c
  9606   00078E  2A18               	incf	(?i1___aldiv+1)^0,f,c
  9607   000790  C017  F0C5         	movff	?i1___aldiv,_erreurd
  9608   000794  C018  F0C6         	movff	?i1___aldiv+1,_erreurd+1
  9609   000798                     
  9610                           ; BSR set to: 0
  9611                           ;./Isr.c: 49:         if (consigneg==0) {sigmaerreurg=0;} else {sigmaerreurg=sigmaerreur
      +                          g+erreurg;}
  9612   000798  51BF               	movf	_consigneg& (0+255),w,b
  9613   00079A  11C0               	iorwf	(_consigneg+1)& (0+255),w,b
  9614   00079C  A4D8               	btfss	status,2,c
  9615   00079E  EFD3  F003         	goto	i1u1077_21
  9616   0007A2  EFD5  F003         	goto	i1u1077_20
  9617   0007A6                     i1u1077_21:
  9618   0007A6  EFDB  F003         	goto	i1l8943
  9619   0007AA                     i1u1077_20:
  9620   0007AA                     
  9621                           ; BSR set to: 0
  9622   0007AA  0E00               	movlw	0
  9623   0007AC  6FC4               	movwf	(_sigmaerreurg+1)& (0+255),b
  9624   0007AE  0E00               	movlw	0
  9625   0007B0  6FC3               	movwf	_sigmaerreurg& (0+255),b
  9626   0007B2  EFE1  F003         	goto	i1l925
  9627   0007B6                     i1l8943:
  9628                           
  9629                           ; BSR set to: 0
  9630   0007B6  51C7               	movf	_erreurg& (0+255),w,b
  9631   0007B8  25C3               	addwf	_sigmaerreurg& (0+255),w,b
  9632   0007BA  6FC3               	movwf	_sigmaerreurg& (0+255),b
  9633   0007BC  51C8               	movf	(_erreurg+1)& (0+255),w,b
  9634   0007BE  21C4               	addwfc	(_sigmaerreurg+1)& (0+255),w,b
  9635   0007C0  6FC4               	movwf	(_sigmaerreurg+1)& (0+255),b
  9636   0007C2                     i1l925:
  9637                           
  9638                           ; BSR set to: 0
  9639                           ;./Isr.c: 50:         if (consigned==0) {sigmaerreurd=0;} else {sigmaerreurd=sigmaerreur
      +                          d+erreurd;}
  9640   0007C2  51BD               	movf	_consigned& (0+255),w,b
  9641   0007C4  11BE               	iorwf	(_consigned+1)& (0+255),w,b
  9642   0007C6  A4D8               	btfss	status,2,c
  9643   0007C8  EFE8  F003         	goto	i1u1078_21
  9644   0007CC  EFEA  F003         	goto	i1u1078_20
  9645   0007D0                     i1u1078_21:
  9646   0007D0  EFF0  F003         	goto	i1l8947
  9647   0007D4                     i1u1078_20:
  9648   0007D4                     
  9649                           ; BSR set to: 0
  9650   0007D4  0E00               	movlw	0
  9651   0007D6  6FC2               	movwf	(_sigmaerreurd+1)& (0+255),b
  9652   0007D8  0E00               	movlw	0
  9653   0007DA  6FC1               	movwf	_sigmaerreurd& (0+255),b
  9654   0007DC  EFF6  F003         	goto	i1l927
  9655   0007E0                     i1l8947:
  9656                           
  9657                           ; BSR set to: 0
  9658   0007E0  51C5               	movf	_erreurd& (0+255),w,b
  9659   0007E2  25C1               	addwf	_sigmaerreurd& (0+255),w,b
  9660   0007E4  6FC1               	movwf	_sigmaerreurd& (0+255),b
  9661   0007E6  51C6               	movf	(_erreurd+1)& (0+255),w,b
  9662   0007E8  21C2               	addwfc	(_sigmaerreurd+1)& (0+255),w,b
  9663   0007EA  6FC2               	movwf	(_sigmaerreurd+1)& (0+255),b
  9664   0007EC                     i1l927:
  9665                           
  9666                           ; BSR set to: 0
  9667                           ;./Isr.c: 51:         if (sigmaerreurg>sigmamax) {sigmaerreurg=sigmamax;} else if (sigma
      +                          erreurg<-sigmamax) {sigmaerreurg=-sigmamax;}
  9668   0007EC  51C3               	movf	_sigmaerreurg& (0+255),w,b
  9669   0007EE  5DE8               	subwf	_sigmamax& (0+255),w,b
  9670   0007F0  51E9               	movf	(_sigmamax+1)& (0+255),w,b
  9671   0007F2  0A80               	xorlw	128
  9672   0007F4  6F9A               	movwf	??_myLowIsr& (0+255),b
  9673   0007F6  51C4               	movf	(_sigmaerreurg+1)& (0+255),w,b
  9674   0007F8  0A80               	xorlw	128
  9675   0007FA  599A               	subwfb	??_myLowIsr& (0+255),w,b
  9676   0007FC  B0D8               	btfsc	status,0,c
  9677   0007FE  EF03  F004         	goto	i1u1079_21
  9678   000802  EF05  F004         	goto	i1u1079_20
  9679   000806                     i1u1079_21:
  9680   000806  EF0B  F004         	goto	i1l8951
  9681   00080A                     i1u1079_20:
  9682   00080A                     
  9683                           ; BSR set to: 0
  9684   00080A  C0E8  F0C3         	movff	_sigmamax,_sigmaerreurg
  9685   00080E  C0E9  F0C4         	movff	_sigmamax+1,_sigmaerreurg+1
  9686   000812  EF2E  F004         	goto	i1l8955
  9687   000816                     i1l8951:
  9688                           
  9689                           ; BSR set to: 0
  9690   000816  C0E8  F09A         	movff	_sigmamax,??_myLowIsr
  9691   00081A  C0E9  F09B         	movff	_sigmamax+1,??_myLowIsr+1
  9692   00081E  1F9A               	comf	??_myLowIsr& (0+255),f,b
  9693   000820  1F9B               	comf	(??_myLowIsr+1)& (0+255),f,b
  9694   000822  4B9A               	infsnz	??_myLowIsr& (0+255),f,b
  9695   000824  2B9B               	incf	(??_myLowIsr+1)& (0+255),f,b
  9696   000826  519A               	movf	??_myLowIsr& (0+255),w,b
  9697   000828  5DC3               	subwf	_sigmaerreurg& (0+255),w,b
  9698   00082A  51C4               	movf	(_sigmaerreurg+1)& (0+255),w,b
  9699   00082C  0A80               	xorlw	128
  9700   00082E  6F9C               	movwf	(??_myLowIsr+2)& (0+255),b
  9701   000830  519B               	movf	(??_myLowIsr+1)& (0+255),w,b
  9702   000832  0A80               	xorlw	128
  9703   000834  599C               	subwfb	(??_myLowIsr+2)& (0+255),w,b
  9704   000836  B0D8               	btfsc	status,0,c
  9705   000838  EF20  F004         	goto	i1u1080_21
  9706   00083C  EF22  F004         	goto	i1u1080_20
  9707   000840                     i1u1080_21:
  9708   000840  EF2E  F004         	goto	i1l8955
  9709   000844                     i1u1080_20:
  9710   000844                     
  9711                           ; BSR set to: 0
  9712   000844  C0E8  F09A         	movff	_sigmamax,??_myLowIsr
  9713   000848  C0E9  F09B         	movff	_sigmamax+1,??_myLowIsr+1
  9714   00084C  1F9A               	comf	??_myLowIsr& (0+255),f,b
  9715   00084E  1F9B               	comf	(??_myLowIsr+1)& (0+255),f,b
  9716   000850  4B9A               	infsnz	??_myLowIsr& (0+255),f,b
  9717   000852  2B9B               	incf	(??_myLowIsr+1)& (0+255),f,b
  9718   000854  C09A  F0C3         	movff	??_myLowIsr,_sigmaerreurg
  9719   000858  C09B  F0C4         	movff	??_myLowIsr+1,_sigmaerreurg+1
  9720   00085C                     i1l8955:
  9721                           
  9722                           ; BSR set to: 0
  9723                           ;./Isr.c: 52:         if (sigmaerreurd>sigmamax) {sigmaerreurd=sigmamax;} else if (sigma
      +                          erreurd<-sigmamax) {sigmaerreurd=-sigmamax;}
  9724   00085C  51C1               	movf	_sigmaerreurd& (0+255),w,b
  9725   00085E  5DE8               	subwf	_sigmamax& (0+255),w,b
  9726   000860  51E9               	movf	(_sigmamax+1)& (0+255),w,b
  9727   000862  0A80               	xorlw	128
  9728   000864  6F9A               	movwf	??_myLowIsr& (0+255),b
  9729   000866  51C2               	movf	(_sigmaerreurd+1)& (0+255),w,b
  9730   000868  0A80               	xorlw	128
  9731   00086A  599A               	subwfb	??_myLowIsr& (0+255),w,b
  9732   00086C  B0D8               	btfsc	status,0,c
  9733   00086E  EF3B  F004         	goto	i1u1081_21
  9734   000872  EF3D  F004         	goto	i1u1081_20
  9735   000876                     i1u1081_21:
  9736   000876  EF43  F004         	goto	i1l8959
  9737   00087A                     i1u1081_20:
  9738   00087A                     
  9739                           ; BSR set to: 0
  9740   00087A  C0E8  F0C1         	movff	_sigmamax,_sigmaerreurd
  9741   00087E  C0E9  F0C2         	movff	_sigmamax+1,_sigmaerreurd+1
  9742   000882  EF66  F004         	goto	i1l8963
  9743   000886                     i1l8959:
  9744                           
  9745                           ; BSR set to: 0
  9746   000886  C0E8  F09A         	movff	_sigmamax,??_myLowIsr
  9747   00088A  C0E9  F09B         	movff	_sigmamax+1,??_myLowIsr+1
  9748   00088E  1F9A               	comf	??_myLowIsr& (0+255),f,b
  9749   000890  1F9B               	comf	(??_myLowIsr+1)& (0+255),f,b
  9750   000892  4B9A               	infsnz	??_myLowIsr& (0+255),f,b
  9751   000894  2B9B               	incf	(??_myLowIsr+1)& (0+255),f,b
  9752   000896  519A               	movf	??_myLowIsr& (0+255),w,b
  9753   000898  5DC1               	subwf	_sigmaerreurd& (0+255),w,b
  9754   00089A  51C2               	movf	(_sigmaerreurd+1)& (0+255),w,b
  9755   00089C  0A80               	xorlw	128
  9756   00089E  6F9C               	movwf	(??_myLowIsr+2)& (0+255),b
  9757   0008A0  519B               	movf	(??_myLowIsr+1)& (0+255),w,b
  9758   0008A2  0A80               	xorlw	128
  9759   0008A4  599C               	subwfb	(??_myLowIsr+2)& (0+255),w,b
  9760   0008A6  B0D8               	btfsc	status,0,c
  9761   0008A8  EF58  F004         	goto	i1u1082_21
  9762   0008AC  EF5A  F004         	goto	i1u1082_20
  9763   0008B0                     i1u1082_21:
  9764   0008B0  EF66  F004         	goto	i1l8963
  9765   0008B4                     i1u1082_20:
  9766   0008B4                     
  9767                           ; BSR set to: 0
  9768   0008B4  C0E8  F09A         	movff	_sigmamax,??_myLowIsr
  9769   0008B8  C0E9  F09B         	movff	_sigmamax+1,??_myLowIsr+1
  9770   0008BC  1F9A               	comf	??_myLowIsr& (0+255),f,b
  9771   0008BE  1F9B               	comf	(??_myLowIsr+1)& (0+255),f,b
  9772   0008C0  4B9A               	infsnz	??_myLowIsr& (0+255),f,b
  9773   0008C2  2B9B               	incf	(??_myLowIsr+1)& (0+255),f,b
  9774   0008C4  C09A  F0C1         	movff	??_myLowIsr,_sigmaerreurd
  9775   0008C8  C09B  F0C2         	movff	??_myLowIsr+1,_sigmaerreurd+1
  9776   0008CC                     i1l8963:
  9777                           
  9778                           ; BSR set to: 0
  9779                           ;./Isr.c: 53:         pwmgc=(signed short)(kpm*erreurg)+(signed short)(kim*sigmaerreurg)
      +                          ;
  9780   0008CC  C0DC  F029         	movff	_kpm,i1___flmul@a
  9781   0008D0  C0DD  F02A         	movff	_kpm+1,i1___flmul@a+1
  9782   0008D4  C0DE  F02B         	movff	_kpm+2,i1___flmul@a+2
  9783   0008D8  C0DF  F02C         	movff	_kpm+3,i1___flmul@a+3
  9784   0008DC  C0C7  F017         	movff	_erreurg,i1___xxtofl@val
  9785   0008E0  C0C8  F018         	movff	_erreurg+1,i1___xxtofl@val+1
  9786   0008E4  0E00               	movlw	0
  9787   0008E6  BE18               	btfsc	(i1___xxtofl@val+1)^0,7,c
  9788   0008E8  0EFF               	movlw	-1
  9789   0008EA  6E19               	movwf	(i1___xxtofl@val+2)^0,c
  9790   0008EC  6E1A               	movwf	(i1___xxtofl@val+3)^0,c
  9791   0008EE  0E01               	movlw	1
  9792   0008F0  EC19  F09B         	call	i1___xxtofl
  9793   0008F4  C017  F025         	movff	?i1___xxtofl,i1___flmul@b
  9794   0008F8  C018  F026         	movff	?i1___xxtofl+1,i1___flmul@b+1
  9795   0008FC  C019  F027         	movff	?i1___xxtofl+2,i1___flmul@b+2
  9796   000900  C01A  F028         	movff	?i1___xxtofl+3,i1___flmul@b+3
  9797   000904  EC1F  F091         	call	i1___flmul	;wreg free
  9798   000908  C025  F06D         	movff	?i1___flmul,i1___fltol@f1
  9799   00090C  C026  F06E         	movff	?i1___flmul+1,i1___fltol@f1+1
  9800   000910  C027  F06F         	movff	?i1___flmul+2,i1___fltol@f1+2
  9801   000914  C028  F070         	movff	?i1___flmul+3,i1___fltol@f1+3
  9802   000918  EC3C  F09E         	call	i1___fltol	;wreg free
  9803   00091C  C06D  F09A         	movff	?i1___fltol,??_myLowIsr
  9804   000920  C06E  F09B         	movff	?i1___fltol+1,??_myLowIsr+1
  9805   000924  C06F  F09C         	movff	?i1___fltol+2,??_myLowIsr+2
  9806   000928  C070  F09D         	movff	?i1___fltol+3,??_myLowIsr+3
  9807   00092C  C0D8  F029         	movff	_kim,i1___flmul@a
  9808   000930  C0D9  F02A         	movff	_kim+1,i1___flmul@a+1
  9809   000934  C0DA  F02B         	movff	_kim+2,i1___flmul@a+2
  9810   000938  C0DB  F02C         	movff	_kim+3,i1___flmul@a+3
  9811   00093C  C0C3  F017         	movff	_sigmaerreurg,i1___xxtofl@val
  9812   000940  C0C4  F018         	movff	_sigmaerreurg+1,i1___xxtofl@val+1
  9813   000944  0E00               	movlw	0
  9814   000946  BE18               	btfsc	(i1___xxtofl@val+1)^0,7,c
  9815   000948  0EFF               	movlw	-1
  9816   00094A  6E19               	movwf	(i1___xxtofl@val+2)^0,c
  9817   00094C  6E1A               	movwf	(i1___xxtofl@val+3)^0,c
  9818   00094E  0E01               	movlw	1
  9819   000950  EC19  F09B         	call	i1___xxtofl
  9820   000954  C017  F025         	movff	?i1___xxtofl,i1___flmul@b
  9821   000958  C018  F026         	movff	?i1___xxtofl+1,i1___flmul@b+1
  9822   00095C  C019  F027         	movff	?i1___xxtofl+2,i1___flmul@b+2
  9823   000960  C01A  F028         	movff	?i1___xxtofl+3,i1___flmul@b+3
  9824   000964  EC1F  F091         	call	i1___flmul	;wreg free
  9825   000968  C025  F06D         	movff	?i1___flmul,i1___fltol@f1
  9826   00096C  C026  F06E         	movff	?i1___flmul+1,i1___fltol@f1+1
  9827   000970  C027  F06F         	movff	?i1___flmul+2,i1___fltol@f1+2
  9828   000974  C028  F070         	movff	?i1___flmul+3,i1___fltol@f1+3
  9829   000978  EC3C  F09E         	call	i1___fltol	;wreg free
  9830   00097C  0100               	movlb	0	; () banked
  9831   00097E  516D               	movf	?i1___fltol& (0+255),w,b
  9832   000980  259A               	addwf	??_myLowIsr& (0+255),w,b
  9833   000982  6FBB               	movwf	_pwmgc& (0+255),b
  9834   000984  516E               	movf	(?i1___fltol+1)& (0+255),w,b
  9835   000986  219B               	addwfc	(??_myLowIsr+1)& (0+255),w,b
  9836   000988  6FBC               	movwf	(_pwmgc+1)& (0+255),b
  9837                           
  9838                           ;./Isr.c: 54:         pwmdc=(signed short)(kpm*erreurd)+(signed short)(kim*sigmaerreurd)
      +                          ;
  9839   00098A  C0DC  F029         	movff	_kpm,i1___flmul@a
  9840   00098E  C0DD  F02A         	movff	_kpm+1,i1___flmul@a+1
  9841   000992  C0DE  F02B         	movff	_kpm+2,i1___flmul@a+2
  9842   000996  C0DF  F02C         	movff	_kpm+3,i1___flmul@a+3
  9843   00099A  C0C5  F017         	movff	_erreurd,i1___xxtofl@val
  9844   00099E  C0C6  F018         	movff	_erreurd+1,i1___xxtofl@val+1
  9845   0009A2  0E00               	movlw	0
  9846   0009A4  BE18               	btfsc	(i1___xxtofl@val+1)^0,7,c
  9847   0009A6  0EFF               	movlw	-1
  9848   0009A8  6E19               	movwf	(i1___xxtofl@val+2)^0,c
  9849   0009AA  6E1A               	movwf	(i1___xxtofl@val+3)^0,c
  9850   0009AC  0E01               	movlw	1
  9851   0009AE  EC19  F09B         	call	i1___xxtofl
  9852   0009B2  C017  F025         	movff	?i1___xxtofl,i1___flmul@b
  9853   0009B6  C018  F026         	movff	?i1___xxtofl+1,i1___flmul@b+1
  9854   0009BA  C019  F027         	movff	?i1___xxtofl+2,i1___flmul@b+2
  9855   0009BE  C01A  F028         	movff	?i1___xxtofl+3,i1___flmul@b+3
  9856   0009C2  EC1F  F091         	call	i1___flmul	;wreg free
  9857   0009C6  C025  F06D         	movff	?i1___flmul,i1___fltol@f1
  9858   0009CA  C026  F06E         	movff	?i1___flmul+1,i1___fltol@f1+1
  9859   0009CE  C027  F06F         	movff	?i1___flmul+2,i1___fltol@f1+2
  9860   0009D2  C028  F070         	movff	?i1___flmul+3,i1___fltol@f1+3
  9861   0009D6  EC3C  F09E         	call	i1___fltol	;wreg free
  9862   0009DA  C06D  F09A         	movff	?i1___fltol,??_myLowIsr
  9863   0009DE  C06E  F09B         	movff	?i1___fltol+1,??_myLowIsr+1
  9864   0009E2  C06F  F09C         	movff	?i1___fltol+2,??_myLowIsr+2
  9865   0009E6  C070  F09D         	movff	?i1___fltol+3,??_myLowIsr+3
  9866   0009EA  C0D8  F029         	movff	_kim,i1___flmul@a
  9867   0009EE  C0D9  F02A         	movff	_kim+1,i1___flmul@a+1
  9868   0009F2  C0DA  F02B         	movff	_kim+2,i1___flmul@a+2
  9869   0009F6  C0DB  F02C         	movff	_kim+3,i1___flmul@a+3
  9870   0009FA  C0C1  F017         	movff	_sigmaerreurd,i1___xxtofl@val
  9871   0009FE  C0C2  F018         	movff	_sigmaerreurd+1,i1___xxtofl@val+1
  9872   000A02  0E00               	movlw	0
  9873   000A04  BE18               	btfsc	(i1___xxtofl@val+1)^0,7,c
  9874   000A06  0EFF               	movlw	-1
  9875   000A08  6E19               	movwf	(i1___xxtofl@val+2)^0,c
  9876   000A0A  6E1A               	movwf	(i1___xxtofl@val+3)^0,c
  9877   000A0C  0E01               	movlw	1
  9878   000A0E  EC19  F09B         	call	i1___xxtofl
  9879   000A12  C017  F025         	movff	?i1___xxtofl,i1___flmul@b
  9880   000A16  C018  F026         	movff	?i1___xxtofl+1,i1___flmul@b+1
  9881   000A1A  C019  F027         	movff	?i1___xxtofl+2,i1___flmul@b+2
  9882   000A1E  C01A  F028         	movff	?i1___xxtofl+3,i1___flmul@b+3
  9883   000A22  EC1F  F091         	call	i1___flmul	;wreg free
  9884   000A26  C025  F06D         	movff	?i1___flmul,i1___fltol@f1
  9885   000A2A  C026  F06E         	movff	?i1___flmul+1,i1___fltol@f1+1
  9886   000A2E  C027  F06F         	movff	?i1___flmul+2,i1___fltol@f1+2
  9887   000A32  C028  F070         	movff	?i1___flmul+3,i1___fltol@f1+3
  9888   000A36  EC3C  F09E         	call	i1___fltol	;wreg free
  9889   000A3A  0100               	movlb	0	; () banked
  9890   000A3C  516D               	movf	?i1___fltol& (0+255),w,b
  9891   000A3E  259A               	addwf	??_myLowIsr& (0+255),w,b
  9892   000A40  6FB9               	movwf	_pwmdc& (0+255),b
  9893   000A42  516E               	movf	(?i1___fltol+1)& (0+255),w,b
  9894   000A44  219B               	addwfc	(??_myLowIsr+1)& (0+255),w,b
  9895   000A46  6FBA               	movwf	(_pwmdc+1)& (0+255),b
  9896   000A48                     
  9897                           ; BSR set to: 0
  9898                           ;./Isr.c: 55:         if (pwmgc>128) {pwmgc=128;} else if (pwmgc<-127) {pwmgc=-127;}
  9899   000A48  BFBC               	btfsc	(_pwmgc+1)& (0+255),7,b
  9900   000A4A  EF30  F005         	goto	i1u1083_21
  9901   000A4E  51BC               	movf	(_pwmgc+1)& (0+255),w,b
  9902   000A50  E109               	bnz	i1u1083_20
  9903   000A52  0E81               	movlw	129
  9904   000A54  5DBB               	subwf	_pwmgc& (0+255),w,b
  9905   000A56  A0D8               	btfss	status,0,c
  9906   000A58  EF30  F005         	goto	i1u1083_21
  9907   000A5C  EF32  F005         	goto	i1u1083_20
  9908   000A60                     i1u1083_21:
  9909   000A60  EF38  F005         	goto	i1l8969
  9910   000A64                     i1u1083_20:
  9911   000A64                     
  9912                           ; BSR set to: 0
  9913   000A64  0E00               	movlw	0
  9914   000A66  6FBC               	movwf	(_pwmgc+1)& (0+255),b
  9915   000A68  0E80               	movlw	128
  9916   000A6A  6FBB               	movwf	_pwmgc& (0+255),b
  9917   000A6C  EF4A  F005         	goto	i1l8973
  9918   000A70                     i1l8969:
  9919                           
  9920                           ; BSR set to: 0
  9921   000A70  AFBC               	btfss	(_pwmgc+1)& (0+255),7,b
  9922   000A72  EF44  F005         	goto	i1u1084_21
  9923   000A76  0E81               	movlw	129
  9924   000A78  5DBB               	subwf	_pwmgc& (0+255),w,b
  9925   000A7A  0EFF               	movlw	255
  9926   000A7C  59BC               	subwfb	(_pwmgc+1)& (0+255),w,b
  9927   000A7E  B0D8               	btfsc	status,0,c
  9928   000A80  EF44  F005         	goto	i1u1084_21
  9929   000A84  EF46  F005         	goto	i1u1084_20
  9930   000A88                     i1u1084_21:
  9931   000A88  EF4A  F005         	goto	i1l8973
  9932   000A8C                     i1u1084_20:
  9933   000A8C                     
  9934                           ; BSR set to: 0
  9935   000A8C  0EFF               	movlw	255
  9936   000A8E  6FBC               	movwf	(_pwmgc+1)& (0+255),b
  9937   000A90  0E81               	movlw	129
  9938   000A92  6FBB               	movwf	_pwmgc& (0+255),b
  9939   000A94                     i1l8973:
  9940                           
  9941                           ; BSR set to: 0
  9942                           ;./Isr.c: 56:         if (pwmdc>128) {pwmdc=128;} else if (pwmdc<-127) {pwmdc=-127;}
  9943   000A94  BFBA               	btfsc	(_pwmdc+1)& (0+255),7,b
  9944   000A96  EF56  F005         	goto	i1u1085_21
  9945   000A9A  51BA               	movf	(_pwmdc+1)& (0+255),w,b
  9946   000A9C  E109               	bnz	i1u1085_20
  9947   000A9E  0E81               	movlw	129
  9948   000AA0  5DB9               	subwf	_pwmdc& (0+255),w,b
  9949   000AA2  A0D8               	btfss	status,0,c
  9950   000AA4  EF56  F005         	goto	i1u1085_21
  9951   000AA8  EF58  F005         	goto	i1u1085_20
  9952   000AAC                     i1u1085_21:
  9953   000AAC  EF5E  F005         	goto	i1l8977
  9954   000AB0                     i1u1085_20:
  9955   000AB0                     
  9956                           ; BSR set to: 0
  9957   000AB0  0E00               	movlw	0
  9958   000AB2  6FBA               	movwf	(_pwmdc+1)& (0+255),b
  9959   000AB4  0E80               	movlw	128
  9960   000AB6  6FB9               	movwf	_pwmdc& (0+255),b
  9961   000AB8  EF70  F005         	goto	i1l8981
  9962   000ABC                     i1l8977:
  9963                           
  9964                           ; BSR set to: 0
  9965   000ABC  AFBA               	btfss	(_pwmdc+1)& (0+255),7,b
  9966   000ABE  EF6A  F005         	goto	i1u1086_21
  9967   000AC2  0E81               	movlw	129
  9968   000AC4  5DB9               	subwf	_pwmdc& (0+255),w,b
  9969   000AC6  0EFF               	movlw	255
  9970   000AC8  59BA               	subwfb	(_pwmdc+1)& (0+255),w,b
  9971   000ACA  B0D8               	btfsc	status,0,c
  9972   000ACC  EF6A  F005         	goto	i1u1086_21
  9973   000AD0  EF6C  F005         	goto	i1u1086_20
  9974   000AD4                     i1u1086_21:
  9975   000AD4  EF70  F005         	goto	i1l8981
  9976   000AD8                     i1u1086_20:
  9977   000AD8                     
  9978                           ; BSR set to: 0
  9979   000AD8  0EFF               	movlw	255
  9980   000ADA  6FBA               	movwf	(_pwmdc+1)& (0+255),b
  9981   000ADC  0E81               	movlw	129
  9982   000ADE  6FB9               	movwf	_pwmdc& (0+255),b
  9983   000AE0                     i1l8981:
  9984                           
  9985                           ; BSR set to: 0
  9986                           ;./Isr.c: 57:         pwmgc=pwmgc+127; pwmdc=pwmdc+127;
  9987   000AE0  0E7F               	movlw	127
  9988   000AE2  25BB               	addwf	_pwmgc& (0+255),w,b
  9989   000AE4  6FBB               	movwf	_pwmgc& (0+255),b
  9990   000AE6  0E00               	movlw	0
  9991   000AE8  21BC               	addwfc	(_pwmgc+1)& (0+255),w,b
  9992   000AEA  6FBC               	movwf	(_pwmgc+1)& (0+255),b
  9993   000AEC                     
  9994                           ; BSR set to: 0
  9995   000AEC  0E7F               	movlw	127
  9996   000AEE  25B9               	addwf	_pwmdc& (0+255),w,b
  9997   000AF0  6FB9               	movwf	_pwmdc& (0+255),b
  9998   000AF2  0E00               	movlw	0
  9999   000AF4  21BA               	addwfc	(_pwmdc+1)& (0+255),w,b
 10000   000AF6  6FBA               	movwf	(_pwmdc+1)& (0+255),b
 10001   000AF8                     
 10002                           ; BSR set to: 0
 10003                           ;./Isr.c: 58:         if (RC2IE)
 10004   000AF8  010E               	movlb	14	; () banked
 10005   000AFA  AFC5               	btfss	197,7,b	;volatile
 10006   000AFC  EF82  F005         	goto	i1u1087_21
 10007   000B00  EF84  F005         	goto	i1u1087_20
 10008   000B04                     i1u1087_21:
 10009   000B04  EFA0  F005         	goto	i1l940
 10010   000B08                     i1u1087_20:
 10011   000B08                     
 10012                           ; BSR set to: 14
 10013                           ;./Isr.c: 59:         {;./Isr.c: 60:             CPT_BT++;
 10014   000B08  0100               	movlb	0	; () banked
 10015   000B0A  2BCE               	incf	_CPT_BT& (0+255),f,b
 10016   000B0C                     
 10017                           ; BSR set to: 0
 10018                           ;./Isr.c: 61:             if (CPT_BT>=100) {BTC=0; CCPR2H=127; CCPR1H=127; CPT_BT=100;}
 10019   000B0C  0E63               	movlw	99
 10020   000B0E  65CE               	cpfsgt	_CPT_BT& (0+255),b
 10021   000B10  EF8C  F005         	goto	i1u1088_21
 10022   000B14  EF8E  F005         	goto	i1u1088_20
 10023   000B18                     i1u1088_21:
 10024   000B18  EF98  F005         	goto	i1l8993
 10025   000B1C                     i1u1088_20:
 10026   000B1C                     
 10027                           ; BSR set to: 0
 10028   000B1C  0E00               	movlw	0
 10029   000B1E  6FCD               	movwf	_BTC& (0+255),b
 10030   000B20  0E7F               	movlw	127
 10031   000B22  6EA7               	movwf	167,c	;volatile
 10032   000B24  0E7F               	movlw	127
 10033   000B26  6EAB               	movwf	171,c	;volatile
 10034   000B28  0E64               	movlw	100
 10035   000B2A  6FCE               	movwf	_CPT_BT& (0+255),b
 10036   000B2C  EFA7  F005         	goto	i1l9001
 10037   000B30                     i1l8993:
 10038                           
 10039                           ; BSR set to: 0
 10040   000B30  0E01               	movlw	1
 10041   000B32  6FCD               	movwf	_BTC& (0+255),b
 10042   000B34                     
 10043                           ; BSR set to: 0
 10044   000B34  C0BB  FFA7         	movff	_pwmgc,4007	;volatile
 10045   000B38                     
 10046                           ; BSR set to: 0
 10047   000B38  C0B9  FFAB         	movff	_pwmdc,4011	;volatile
 10048   000B3C  EFA7  F005         	goto	i1l9001
 10049   000B40                     i1l940:
 10050                           
 10051                           ; BSR set to: 14
 10052                           ;./Isr.c: 65:         {;./Isr.c: 66:             CCPR2H=(unsigned char)pwmgc; CCPR1H=(un
      +                          signed char)pwmdc;
 10053   000B40  C0BB  FFA7         	movff	_pwmgc,4007	;volatile
 10054   000B44  C0B9  FFAB         	movff	_pwmdc,4011	;volatile
 10055   000B48                     
 10056                           ; BSR set to: 14
 10057                           ;./Isr.c: 67:             BTC=0;
 10058   000B48  0E00               	movlw	0
 10059   000B4A  0100               	movlb	0	; () banked
 10060   000B4C  6FCD               	movwf	_BTC& (0+255),b
 10061   000B4E                     i1l9001:
 10062                           
 10063                           ; BSR set to: 0
 10064                           ;./Isr.c: 69:         TMR6IF=0;
 10065   000B4E  010E               	movlb	14	; () banked
 10066   000B50  9BCE               	bcf	206,5,b	;volatile
 10067   000B52                     i1l944:
 10068                           
 10069                           ; BSR set to: 14
 10070   000B52  C0A6  FFF5         	movff	??_myLowIsr+12,tablat
 10071   000B56  C0A5  FFF8         	movff	??_myLowIsr+11,tblptru
 10072   000B5A  C0A4  FFF7         	movff	??_myLowIsr+10,tblptrh
 10073   000B5E  C0A3  FFF6         	movff	??_myLowIsr+9,tblptrl
 10074   000B62  C0A2  FFF4         	movff	??_myLowIsr+8,prodh
 10075   000B66  C0A1  FFF3         	movff	??_myLowIsr+7,prodl
 10076   000B6A  C0A0  FFE0         	movff	??_myLowIsr+6,bsr
 10077   000B6E  C09F  FFE8         	movff	??_myLowIsr+5,wreg
 10078   000B72  C09E  FFD8         	movff	??_myLowIsr+4,status
 10079   000B76  9049               	bcf	int$flags,0,c	;clear compiler interrupt flag (level 1)
 10080   000B78  0010               	retfie	
 10081   000B7A                     __end_of_myLowIsr:
 10082                           	callstack 0
 10083                           
 10084 ;; *************** function i1___xxtofl *****************
 10085 ;; Defined at:
 10086 ;;		line 10 in file "C:\Program Files\Microchip\xc8\v2.46\pic\sources\c99\common\xxtofl.c"
 10087 ;; Parameters:    Size  Location     Type
 10088 ;;  sign            1    wreg     unsigned char 
 10089 ;;  val             4   22[COMRAM] long 
 10090 ;; Auto vars:     Size  Location     Type
 10091 ;;  sign            1   30[COMRAM] unsigned char 
 10092 ;;  arg             4   32[COMRAM] unsigned long 
 10093 ;;  exp             1   31[COMRAM] unsigned char 
 10094 ;; Return value:  Size  Location     Type
 10095 ;;                  4   22[COMRAM] unsigned char 
 10096 ;; Registers used:
 10097 ;;		wreg, status,2, status,0
 10098 ;; Tracked objects:
 10099 ;;		On entry : 0/0
 10100 ;;		On exit  : 0/0
 10101 ;;		Unchanged: 0/0
 10102 ;; Data sizes:     COMRAM   BANK0   BANK1   BANK2   BANK3   BANK4   BANK5   BANK6   BANK7   BANK8   BANK9  BANK10  BANK1
      +1  BANK12  BANK13  BANK14
 10103 ;;      Params:         4       0       0       0       0       0       0       0       0       0       0       0       
      +0       0       0       0
 10104 ;;      Locals:         6       0       0       0       0       0       0       0       0       0       0       0       
      +0       0       0       0
 10105 ;;      Temps:          4       0       0       0       0       0       0       0       0       0       0       0       
      +0       0       0       0
 10106 ;;      Totals:        14       0       0       0       0       0       0       0       0       0       0       0       
      +0       0       0       0
 10107 ;;Total ram usage:       14 bytes
 10108 ;; Hardware stack levels used: 1
 10109 ;; Hardware stack levels required when called: 2
 10110 ;; This function calls:
 10111 ;;		Nothing
 10112 ;; This function is called by:
 10113 ;;		_myLowIsr
 10114 ;; This function uses a non-reentrant model
 10115 ;;
 10116                           
 10117                           	psect	text32
 10118   013632                     __ptext32:
 10119                           	callstack 0
 10120   013632                     i1___xxtofl:
 10121                           	callstack 22
 10122                           
 10123                           ; BSR set to: 14
 10124                           ;incstack = 0
 10125                           ;i1___xxtofl@sign stored from wreg
 10126   013632  6E1F               	movwf	i1___xxtofl@sign^0,c
 10127   013634  501F               	movf	i1___xxtofl@sign^0,w,c
 10128   013636  B4D8               	btfsc	status,2,c
 10129   013638  EF20  F09B         	goto	i1u766_21
 10130   01363C  EF22  F09B         	goto	i1u766_20
 10131   013640                     i1u766_21:
 10132   013640  EF44  F09B         	goto	i1l1704
 10133   013644                     i1u766_20:
 10134   013644  BE1A               	btfsc	(i1___xxtofl@val+3)^0,7,c
 10135   013646  EF29  F09B         	goto	i1u767_20
 10136   01364A  EF27  F09B         	goto	i1u767_21
 10137   01364E                     i1u767_21:
 10138   01364E  EF44  F09B         	goto	i1l1704
 10139   013652                     i1u767_20:
 10140   013652  C017  F01B         	movff	i1___xxtofl@val,??i1___xxtofl
 10141   013656  C018  F01C         	movff	i1___xxtofl@val+1,??i1___xxtofl+1
 10142   01365A  C019  F01D         	movff	i1___xxtofl@val+2,??i1___xxtofl+2
 10143   01365E  C01A  F01E         	movff	i1___xxtofl@val+3,??i1___xxtofl+3
 10144   013662  1E1B               	comf	??i1___xxtofl^0,f,c
 10145   013664  1E1C               	comf	(??i1___xxtofl+1)^0,f,c
 10146   013666  1E1D               	comf	(??i1___xxtofl+2)^0,f,c
 10147   013668  1E1E               	comf	(??i1___xxtofl+3)^0,f,c
 10148   01366A  2A1B               	incf	??i1___xxtofl^0,f,c
 10149   01366C  0E00               	movlw	0
 10150   01366E  221C               	addwfc	(??i1___xxtofl+1)^0,f,c
 10151   013670  221D               	addwfc	(??i1___xxtofl+2)^0,f,c
 10152   013672  221E               	addwfc	(??i1___xxtofl+3)^0,f,c
 10153   013674  C01B  F021         	movff	??i1___xxtofl,i1___xxtofl@arg
 10154   013678  C01C  F022         	movff	??i1___xxtofl+1,i1___xxtofl@arg+1
 10155   01367C  C01D  F023         	movff	??i1___xxtofl+2,i1___xxtofl@arg+2
 10156   013680  C01E  F024         	movff	??i1___xxtofl+3,i1___xxtofl@arg+3
 10157   013684  EF4C  F09B         	goto	i1l7091
 10158   013688                     i1l1704:
 10159   013688  C017  F021         	movff	i1___xxtofl@val,i1___xxtofl@arg
 10160   01368C  C018  F022         	movff	i1___xxtofl@val+1,i1___xxtofl@arg+1
 10161   013690  C019  F023         	movff	i1___xxtofl@val+2,i1___xxtofl@arg+2
 10162   013694  C01A  F024         	movff	i1___xxtofl@val+3,i1___xxtofl@arg+3
 10163   013698                     i1l7091:
 10164   013698  5017               	movf	i1___xxtofl@val^0,w,c
 10165   01369A  1018               	iorwf	(i1___xxtofl@val+1)^0,w,c
 10166   01369C  1019               	iorwf	(i1___xxtofl@val+2)^0,w,c
 10167   01369E  101A               	iorwf	(i1___xxtofl@val+3)^0,w,c
 10168   0136A0  A4D8               	btfss	status,2,c
 10169   0136A2  EF55  F09B         	goto	i1u768_21
 10170   0136A6  EF57  F09B         	goto	i1u768_20
 10171   0136AA                     i1u768_21:
 10172   0136AA  EF61  F09B         	goto	i1l7097
 10173   0136AE                     i1u768_20:
 10174   0136AE  0E00               	movlw	0
 10175   0136B0  6E17               	movwf	?i1___xxtofl^0,c
 10176   0136B2  0E00               	movlw	0
 10177   0136B4  6E18               	movwf	(?i1___xxtofl+1)^0,c
 10178   0136B6  0E00               	movlw	0
 10179   0136B8  6E19               	movwf	(?i1___xxtofl+2)^0,c
 10180   0136BA  0E00               	movlw	0
 10181   0136BC  6E1A               	movwf	(?i1___xxtofl+3)^0,c
 10182   0136BE  EFF2  F09B         	goto	i1l1707
 10183   0136C2                     i1l7097:
 10184   0136C2  0E96               	movlw	150
 10185   0136C4  6E20               	movwf	i1___xxtofl@exp^0,c
 10186   0136C6  EF6B  F09B         	goto	i1l7101
 10187   0136CA                     i1l7099:
 10188   0136CA  2A20               	incf	i1___xxtofl@exp^0,f,c
 10189   0136CC  90D8               	bcf	status,0,c
 10190   0136CE  3224               	rrcf	(i1___xxtofl@arg+3)^0,f,c
 10191   0136D0  3223               	rrcf	(i1___xxtofl@arg+2)^0,f,c
 10192   0136D2  3222               	rrcf	(i1___xxtofl@arg+1)^0,f,c
 10193   0136D4  3221               	rrcf	i1___xxtofl@arg^0,f,c
 10194   0136D6                     i1l7101:
 10195   0136D6  0E00               	movlw	0
 10196   0136D8  1421               	andwf	i1___xxtofl@arg^0,w,c
 10197   0136DA  6E1B               	movwf	??i1___xxtofl^0,c
 10198   0136DC  0E00               	movlw	0
 10199   0136DE  1422               	andwf	(i1___xxtofl@arg+1)^0,w,c
 10200   0136E0  6E1C               	movwf	(??i1___xxtofl+1)^0,c
 10201   0136E2  0E00               	movlw	0
 10202   0136E4  1423               	andwf	(i1___xxtofl@arg+2)^0,w,c
 10203   0136E6  6E1D               	movwf	(??i1___xxtofl+2)^0,c
 10204   0136E8  0EFE               	movlw	254
 10205   0136EA  1424               	andwf	(i1___xxtofl@arg+3)^0,w,c
 10206   0136EC  6E1E               	movwf	(??i1___xxtofl+3)^0,c
 10207   0136EE  501B               	movf	??i1___xxtofl^0,w,c
 10208   0136F0  101C               	iorwf	(??i1___xxtofl+1)^0,w,c
 10209   0136F2  101D               	iorwf	(??i1___xxtofl+2)^0,w,c
 10210   0136F4  101E               	iorwf	(??i1___xxtofl+3)^0,w,c
 10211   0136F6  A4D8               	btfss	status,2,c
 10212   0136F8  EF80  F09B         	goto	i1u769_21
 10213   0136FC  EF82  F09B         	goto	i1u769_20
 10214   013700                     i1u769_21:
 10215   013700  EF65  F09B         	goto	i1l7099
 10216   013704                     i1u769_20:
 10217   013704  EF90  F09B         	goto	i1l1711
 10218   013708                     i1l7103:
 10219   013708  2A20               	incf	i1___xxtofl@exp^0,f,c
 10220   01370A  0E01               	movlw	1
 10221   01370C  2621               	addwf	i1___xxtofl@arg^0,f,c
 10222   01370E  0E00               	movlw	0
 10223   013710  2222               	addwfc	(i1___xxtofl@arg+1)^0,f,c
 10224   013712  2223               	addwfc	(i1___xxtofl@arg+2)^0,f,c
 10225   013714  2224               	addwfc	(i1___xxtofl@arg+3)^0,f,c
 10226   013716  90D8               	bcf	status,0,c
 10227   013718  3224               	rrcf	(i1___xxtofl@arg+3)^0,f,c
 10228   01371A  3223               	rrcf	(i1___xxtofl@arg+2)^0,f,c
 10229   01371C  3222               	rrcf	(i1___xxtofl@arg+1)^0,f,c
 10230   01371E  3221               	rrcf	i1___xxtofl@arg^0,f,c
 10231   013720                     i1l1711:
 10232   013720  0E00               	movlw	0
 10233   013722  1421               	andwf	i1___xxtofl@arg^0,w,c
 10234   013724  6E1B               	movwf	??i1___xxtofl^0,c
 10235   013726  0E00               	movlw	0
 10236   013728  1422               	andwf	(i1___xxtofl@arg+1)^0,w,c
 10237   01372A  6E1C               	movwf	(??i1___xxtofl+1)^0,c
 10238   01372C  0E00               	movlw	0
 10239   01372E  1423               	andwf	(i1___xxtofl@arg+2)^0,w,c
 10240   013730  6E1D               	movwf	(??i1___xxtofl+2)^0,c
 10241   013732  0EFF               	movlw	255
 10242   013734  1424               	andwf	(i1___xxtofl@arg+3)^0,w,c
 10243   013736  6E1E               	movwf	(??i1___xxtofl+3)^0,c
 10244   013738  501B               	movf	??i1___xxtofl^0,w,c
 10245   01373A  101C               	iorwf	(??i1___xxtofl+1)^0,w,c
 10246   01373C  101D               	iorwf	(??i1___xxtofl+2)^0,w,c
 10247   01373E  101E               	iorwf	(??i1___xxtofl+3)^0,w,c
 10248   013740  A4D8               	btfss	status,2,c
 10249   013742  EFA5  F09B         	goto	i1u770_21
 10250   013746  EFA7  F09B         	goto	i1u770_20
 10251   01374A                     i1u770_21:
 10252   01374A  EF84  F09B         	goto	i1l7103
 10253   01374E                     i1u770_20:
 10254   01374E  EFAF  F09B         	goto	i1l7111
 10255   013752                     i1l7109:
 10256   013752  0620               	decf	i1___xxtofl@exp^0,f,c
 10257   013754  90D8               	bcf	status,0,c
 10258   013756  3621               	rlcf	i1___xxtofl@arg^0,f,c
 10259   013758  3622               	rlcf	(i1___xxtofl@arg+1)^0,f,c
 10260   01375A  3623               	rlcf	(i1___xxtofl@arg+2)^0,f,c
 10261   01375C  3624               	rlcf	(i1___xxtofl@arg+3)^0,f,c
 10262   01375E                     i1l7111:
 10263   01375E  BE23               	btfsc	(i1___xxtofl@arg+2)^0,7,c
 10264   013760  EFB4  F09B         	goto	i1u771_21
 10265   013764  EFB6  F09B         	goto	i1u771_20
 10266   013768                     i1u771_21:
 10267   013768  EFBE  F09B         	goto	i1l1718
 10268   01376C                     i1u771_20:
 10269   01376C  0E02               	movlw	2
 10270   01376E  6020               	cpfslt	i1___xxtofl@exp^0,c
 10271   013770  EFBC  F09B         	goto	i1u772_21
 10272   013774  EFBE  F09B         	goto	i1u772_20
 10273   013778                     i1u772_21:
 10274   013778  EFA9  F09B         	goto	i1l7109
 10275   01377C                     i1u772_20:
 10276   01377C                     i1l1718:
 10277   01377C  B020               	btfsc	i1___xxtofl@exp^0,0,c
 10278   01377E  EFC3  F09B         	goto	i1u773_21
 10279   013782  EFC5  F09B         	goto	i1u773_20
 10280   013786                     i1u773_21:
 10281   013786  EFC6  F09B         	goto	i1l7117
 10282   01378A                     i1u773_20:
 10283   01378A  9E23               	bcf	(i1___xxtofl@arg+2)^0,7,c
 10284   01378C                     i1l7117:
 10285   01378C  90D8               	bcf	status,0,c
 10286   01378E  3220               	rrcf	i1___xxtofl@exp^0,f,c
 10287   013790  C020  F01B         	movff	i1___xxtofl@exp,??i1___xxtofl
 10288   013794  6A1C               	clrf	(??i1___xxtofl+1)^0,c
 10289   013796  6A1D               	clrf	(??i1___xxtofl+2)^0,c
 10290   013798  6A1E               	clrf	(??i1___xxtofl+3)^0,c
 10291   01379A  C01B  F01E         	movff	??i1___xxtofl,??i1___xxtofl+3
 10292   01379E  6A1D               	clrf	(??i1___xxtofl+2)^0,c
 10293   0137A0  6A1C               	clrf	(??i1___xxtofl+1)^0,c
 10294   0137A2  6A1B               	clrf	??i1___xxtofl^0,c
 10295   0137A4  501B               	movf	??i1___xxtofl^0,w,c
 10296   0137A6  1221               	iorwf	i1___xxtofl@arg^0,f,c
 10297   0137A8  501C               	movf	(??i1___xxtofl+1)^0,w,c
 10298   0137AA  1222               	iorwf	(i1___xxtofl@arg+1)^0,f,c
 10299   0137AC  501D               	movf	(??i1___xxtofl+2)^0,w,c
 10300   0137AE  1223               	iorwf	(i1___xxtofl@arg+2)^0,f,c
 10301   0137B0  501E               	movf	(??i1___xxtofl+3)^0,w,c
 10302   0137B2  1224               	iorwf	(i1___xxtofl@arg+3)^0,f,c
 10303   0137B4  501F               	movf	i1___xxtofl@sign^0,w,c
 10304   0137B6  B4D8               	btfsc	status,2,c
 10305   0137B8  EFE0  F09B         	goto	i1u774_21
 10306   0137BC  EFE2  F09B         	goto	i1u774_20
 10307   0137C0                     i1u774_21:
 10308   0137C0  EFEA  F09B         	goto	i1l7127
 10309   0137C4                     i1u774_20:
 10310   0137C4  BE1A               	btfsc	(i1___xxtofl@val+3)^0,7,c
 10311   0137C6  EFE9  F09B         	goto	i1u775_20
 10312   0137CA  EFE7  F09B         	goto	i1u775_21
 10313   0137CE                     i1u775_21:
 10314   0137CE  EFEA  F09B         	goto	i1l7127
 10315   0137D2                     i1u775_20:
 10316   0137D2  8E24               	bsf	(i1___xxtofl@arg+3)^0,7,c
 10317   0137D4                     i1l7127:
 10318   0137D4  C021  F017         	movff	i1___xxtofl@arg,?i1___xxtofl
 10319   0137D8  C022  F018         	movff	i1___xxtofl@arg+1,?i1___xxtofl+1
 10320   0137DC  C023  F019         	movff	i1___xxtofl@arg+2,?i1___xxtofl+2
 10321   0137E0  C024  F01A         	movff	i1___xxtofl@arg+3,?i1___xxtofl+3
 10322   0137E4                     i1l1707:
 10323   0137E4  0012               	return		;funcret
 10324   0137E6                     __end_ofi1___xxtofl:
 10325                           	callstack 0
 10326                           
 10327 ;; *************** function i1___fltol *****************
 10328 ;; Defined at:
 10329 ;;		line 43 in file "C:\Program Files\Microchip\xc8\v2.46\pic\sources\c99\common\fltol.c"
 10330 ;; Parameters:    Size  Location     Type
 10331 ;;  f1              4   13[BANK0 ] unsigned char 
 10332 ;; Auto vars:     Size  Location     Type
 10333 ;;  exp1            1   49[COMRAM] unsigned char 
 10334 ;;  sign1           1   48[COMRAM] unsigned char 
 10335 ;; Return value:  Size  Location     Type
 10336 ;;                  4   13[BANK0 ] long 
 10337 ;; Registers used:
 10338 ;;		wreg, status,2, status,0
 10339 ;; Tracked objects:
 10340 ;;		On entry : 0/0
 10341 ;;		On exit  : 0/0
 10342 ;;		Unchanged: 0/0
 10343 ;; Data sizes:     COMRAM   BANK0   BANK1   BANK2   BANK3   BANK4   BANK5   BANK6   BANK7   BANK8   BANK9  BANK10  BANK1
      +1  BANK12  BANK13  BANK14
 10344 ;;      Params:         0       4       0       0       0       0       0       0       0       0       0       0       
      +0       0       0       0
 10345 ;;      Locals:         2       0       0       0       0       0       0       0       0       0       0       0       
      +0       0       0       0
 10346 ;;      Temps:          0       4       0       0       0       0       0       0       0       0       0       0       
      +0       0       0       0
 10347 ;;      Totals:         2       8       0       0       0       0       0       0       0       0       0       0       
      +0       0       0       0
 10348 ;;Total ram usage:       10 bytes
 10349 ;; Hardware stack levels used: 1
 10350 ;; Hardware stack levels required when called: 2
 10351 ;; This function calls:
 10352 ;;		Nothing
 10353 ;; This function is called by:
 10354 ;;		_myLowIsr
 10355 ;; This function uses a non-reentrant model
 10356 ;;
 10357                           
 10358                           	psect	text33
 10359   013C78                     __ptext33:
 10360                           	callstack 0
 10361   013C78                     i1___fltol:
 10362                           	callstack 22
 10363   013C78  0100               	movlb	0	; () banked
 10364   013C7A  356F               	rlcf	(i1___fltol@f1+2)& (0+255),w,b
 10365   013C7C  3570               	rlcf	(i1___fltol@f1+3)& (0+255),w,b
 10366   013C7E  6E32               	movwf	i1___fltol@exp1^0,c
 10367   013C80  5032               	movf	i1___fltol@exp1^0,w,c
 10368   013C82  A4D8               	btfss	status,2,c
 10369   013C84  EF46  F09E         	goto	i1u1021_21
 10370   013C88  EF48  F09E         	goto	i1u1021_20
 10371   013C8C                     i1u1021_21:
 10372   013C8C  EF52  F09E         	goto	i1l8693
 10373   013C90                     i1u1021_20:
 10374   013C90                     i1l8689:
 10375                           
 10376                           ; BSR set to: 0
 10377   013C90  0E00               	movlw	0
 10378   013C92  6F6D               	movwf	?i1___fltol& (0+255),b
 10379   013C94  0E00               	movlw	0
 10380   013C96  6F6E               	movwf	(?i1___fltol+1)& (0+255),b
 10381   013C98  0E00               	movlw	0
 10382   013C9A  6F6F               	movwf	(?i1___fltol+2)& (0+255),b
 10383   013C9C  0E00               	movlw	0
 10384   013C9E  6F70               	movwf	(?i1___fltol+3)& (0+255),b
 10385   013CA0  EFBF  F09E         	goto	i1l1346
 10386   013CA4                     i1l8693:
 10387                           
 10388                           ; BSR set to: 0
 10389   013CA4  C06D  F071         	movff	i1___fltol@f1,??i1___fltol
 10390   013CA8  C06E  F072         	movff	i1___fltol@f1+1,??i1___fltol+1
 10391   013CAC  C06F  F073         	movff	i1___fltol@f1+2,??i1___fltol+2
 10392   013CB0  C070  F074         	movff	i1___fltol@f1+3,??i1___fltol+3
 10393   013CB4  0E20               	movlw	32
 10394   013CB6  EF62  F09E         	goto	i1u1022_20
 10395   013CBA                     i1u1022_25:
 10396   013CBA  90D8               	bcf	status,0,c
 10397   013CBC  3374               	rrcf	(??i1___fltol+3)& (0+255),f,b
 10398   013CBE  3373               	rrcf	(??i1___fltol+2)& (0+255),f,b
 10399   013CC0  3372               	rrcf	(??i1___fltol+1)& (0+255),f,b
 10400   013CC2  3371               	rrcf	??i1___fltol& (0+255),f,b
 10401   013CC4                     i1u1022_20:
 10402   013CC4  2EE8               	decfsz	wreg,f,c
 10403   013CC6  EF5D  F09E         	goto	i1u1022_25
 10404   013CCA  5171               	movf	??i1___fltol& (0+255),w,b
 10405   013CCC  6E31               	movwf	i1___fltol@sign1^0,c
 10406   013CCE                     
 10407                           ; BSR set to: 0
 10408   013CCE  8F6F               	bsf	(i1___fltol@f1+2)& (0+255),7,b
 10409   013CD0                     
 10410                           ; BSR set to: 0
 10411   013CD0  0EFF               	movlw	255
 10412   013CD2  176D               	andwf	i1___fltol@f1& (0+255),f,b
 10413   013CD4  0EFF               	movlw	255
 10414   013CD6  176E               	andwf	(i1___fltol@f1+1)& (0+255),f,b
 10415   013CD8  0EFF               	movlw	255
 10416   013CDA  176F               	andwf	(i1___fltol@f1+2)& (0+255),f,b
 10417   013CDC  0E00               	movlw	0
 10418   013CDE  1770               	andwf	(i1___fltol@f1+3)& (0+255),f,b
 10419   013CE0                     
 10420                           ; BSR set to: 0
 10421   013CE0  0E96               	movlw	150
 10422   013CE2  5E32               	subwf	i1___fltol@exp1^0,f,c
 10423   013CE4                     
 10424                           ; BSR set to: 0
 10425   013CE4  BE32               	btfsc	i1___fltol@exp1^0,7,c
 10426   013CE6  EF79  F09E         	goto	i1u1023_20
 10427   013CEA  EF77  F09E         	goto	i1u1023_21
 10428   013CEE                     i1u1023_21:
 10429   013CEE  EF8F  F09E         	goto	i1l8713
 10430   013CF2                     i1u1023_20:
 10431   013CF2                     
 10432                           ; BSR set to: 0
 10433   013CF2  5032               	movf	i1___fltol@exp1^0,w,c
 10434   013CF4  0A80               	xorlw	128
 10435   013CF6  0F97               	addlw	151
 10436   013CF8  B0D8               	btfsc	status,0,c
 10437   013CFA  EF81  F09E         	goto	i1u1024_21
 10438   013CFE  EF83  F09E         	goto	i1u1024_20
 10439   013D02                     i1u1024_21:
 10440   013D02  EF85  F09E         	goto	i1l8709
 10441   013D06                     i1u1024_20:
 10442   013D06  EF48  F09E         	goto	i1l8689
 10443   013D0A                     i1l8709:
 10444                           
 10445                           ; BSR set to: 0
 10446   013D0A  90D8               	bcf	status,0,c
 10447   013D0C  3370               	rrcf	(i1___fltol@f1+3)& (0+255),f,b
 10448   013D0E  336F               	rrcf	(i1___fltol@f1+2)& (0+255),f,b
 10449   013D10  336E               	rrcf	(i1___fltol@f1+1)& (0+255),f,b
 10450   013D12  336D               	rrcf	i1___fltol@f1& (0+255),f,b
 10451   013D14                     
 10452                           ; BSR set to: 0
 10453   013D14  3E32               	incfsz	i1___fltol@exp1^0,f,c
 10454   013D16  EF85  F09E         	goto	i1l8709
 10455   013D1A  EFA7  F09E         	goto	i1l8723
 10456   013D1E                     i1l8713:
 10457                           
 10458                           ; BSR set to: 0
 10459   013D1E  0E1F               	movlw	31
 10460   013D20  6432               	cpfsgt	i1___fltol@exp1^0,c
 10461   013D22  EF95  F09E         	goto	i1u1025_21
 10462   013D26  EF97  F09E         	goto	i1u1025_20
 10463   013D2A                     i1u1025_21:
 10464   013D2A  EF9F  F09E         	goto	i1l8721
 10465   013D2E                     i1u1025_20:
 10466   013D2E  EF48  F09E         	goto	i1l8689
 10467   013D32                     i1l8719:
 10468                           
 10469                           ; BSR set to: 0
 10470   013D32  90D8               	bcf	status,0,c
 10471   013D34  376D               	rlcf	i1___fltol@f1& (0+255),f,b
 10472   013D36  376E               	rlcf	(i1___fltol@f1+1)& (0+255),f,b
 10473   013D38  376F               	rlcf	(i1___fltol@f1+2)& (0+255),f,b
 10474   013D3A  3770               	rlcf	(i1___fltol@f1+3)& (0+255),f,b
 10475   013D3C  0632               	decf	i1___fltol@exp1^0,f,c
 10476   013D3E                     i1l8721:
 10477                           
 10478                           ; BSR set to: 0
 10479   013D3E  5032               	movf	i1___fltol@exp1^0,w,c
 10480   013D40  A4D8               	btfss	status,2,c
 10481   013D42  EFA5  F09E         	goto	i1u1026_21
 10482   013D46  EFA7  F09E         	goto	i1u1026_20
 10483   013D4A                     i1u1026_21:
 10484   013D4A  EF99  F09E         	goto	i1l8719
 10485   013D4E                     i1u1026_20:
 10486   013D4E                     i1l8723:
 10487                           
 10488                           ; BSR set to: 0
 10489   013D4E  5031               	movf	i1___fltol@sign1^0,w,c
 10490   013D50  B4D8               	btfsc	status,2,c
 10491   013D52  EFAD  F09E         	goto	i1u1027_21
 10492   013D56  EFAF  F09E         	goto	i1u1027_20
 10493   013D5A                     i1u1027_21:
 10494   013D5A  EFB7  F09E         	goto	i1l8727
 10495   013D5E                     i1u1027_20:
 10496   013D5E                     
 10497                           ; BSR set to: 0
 10498   013D5E  1F70               	comf	(i1___fltol@f1+3)& (0+255),f,b
 10499   013D60  1F6F               	comf	(i1___fltol@f1+2)& (0+255),f,b
 10500   013D62  1F6E               	comf	(i1___fltol@f1+1)& (0+255),f,b
 10501   013D64  6D6D               	negf	i1___fltol@f1& (0+255),b
 10502   013D66  0E00               	movlw	0
 10503   013D68  236E               	addwfc	(i1___fltol@f1+1)& (0+255),f,b
 10504   013D6A  236F               	addwfc	(i1___fltol@f1+2)& (0+255),f,b
 10505   013D6C  2370               	addwfc	(i1___fltol@f1+3)& (0+255),f,b
 10506   013D6E                     i1l8727:
 10507                           
 10508                           ; BSR set to: 0
 10509   013D6E  C06D  F06D         	movff	i1___fltol@f1,?i1___fltol
 10510   013D72  C06E  F06E         	movff	i1___fltol@f1+1,?i1___fltol+1
 10511   013D76  C06F  F06F         	movff	i1___fltol@f1+2,?i1___fltol+2
 10512   013D7A  C070  F070         	movff	i1___fltol@f1+3,?i1___fltol+3
 10513   013D7E                     i1l1346:
 10514                           
 10515                           ; BSR set to: 0
 10516   013D7E  0012               	return		;funcret
 10517   013D80                     __end_ofi1___fltol:
 10518                           	callstack 0
 10519                           
 10520 ;; *************** function i1___aldiv *****************
 10521 ;; Defined at:
 10522 ;;		line 7 in file "C:\Program Files\Microchip\xc8\v2.46\pic\sources\c99\common\aldiv.c"
 10523 ;; Parameters:    Size  Location     Type
 10524 ;;  dividend        4   22[COMRAM] long 
 10525 ;;  divisor         4   26[COMRAM] long 
 10526 ;; Auto vars:     Size  Location     Type
 10527 ;;  quotient        4   32[COMRAM] long 
 10528 ;;  sign            1   31[COMRAM] unsigned char 
 10529 ;;  counter         1   30[COMRAM] unsigned char 
 10530 ;; Return value:  Size  Location     Type
 10531 ;;                  4   22[COMRAM] long 
 10532 ;; Registers used:
 10533 ;;		wreg, status,2, status,0
 10534 ;; Tracked objects:
 10535 ;;		On entry : 0/0
 10536 ;;		On exit  : 0/0
 10537 ;;		Unchanged: 0/0
 10538 ;; Data sizes:     COMRAM   BANK0   BANK1   BANK2   BANK3   BANK4   BANK5   BANK6   BANK7   BANK8   BANK9  BANK10  BANK1
      +1  BANK12  BANK13  BANK14
 10539 ;;      Params:         8       0       0       0       0       0       0       0       0       0       0       0       
      +0       0       0       0
 10540 ;;      Locals:         6       0       0       0       0       0       0       0       0       0       0       0       
      +0       0       0       0
 10541 ;;      Temps:          0       0       0       0       0       0       0       0       0       0       0       0       
      +0       0       0       0
 10542 ;;      Totals:        14       0       0       0       0       0       0       0       0       0       0       0       
      +0       0       0       0
 10543 ;;Total ram usage:       14 bytes
 10544 ;; Hardware stack levels used: 1
 10545 ;; Hardware stack levels required when called: 2
 10546 ;; This function calls:
 10547 ;;		Nothing
 10548 ;; This function is called by:
 10549 ;;		_myLowIsr
 10550 ;; This function uses a non-reentrant model
 10551 ;;
 10552                           
 10553                           	psect	text34
 10554   013A64                     __ptext34:
 10555                           	callstack 0
 10556   013A64                     i1___aldiv:
 10557                           	callstack 22
 10558   013A64  0E00               	movlw	0
 10559   013A66  6E20               	movwf	i1___aldiv@sign^0,c
 10560   013A68  BE1E               	btfsc	(i1___aldiv@divisor+3)^0,7,c
 10561   013A6A  EF3B  F09D         	goto	i1u753_20
 10562   013A6E  EF39  F09D         	goto	i1u753_21
 10563   013A72                     i1u753_21:
 10564   013A72  EF45  F09D         	goto	i1l7005
 10565   013A76                     i1u753_20:
 10566   013A76  1E1E               	comf	(i1___aldiv@divisor+3)^0,f,c
 10567   013A78  1E1D               	comf	(i1___aldiv@divisor+2)^0,f,c
 10568   013A7A  1E1C               	comf	(i1___aldiv@divisor+1)^0,f,c
 10569   013A7C  6C1B               	negf	i1___aldiv@divisor^0,c
 10570   013A7E  0E00               	movlw	0
 10571   013A80  221C               	addwfc	(i1___aldiv@divisor+1)^0,f,c
 10572   013A82  221D               	addwfc	(i1___aldiv@divisor+2)^0,f,c
 10573   013A84  221E               	addwfc	(i1___aldiv@divisor+3)^0,f,c
 10574   013A86  0E01               	movlw	1
 10575   013A88  6E20               	movwf	i1___aldiv@sign^0,c
 10576   013A8A                     i1l7005:
 10577   013A8A  BE1A               	btfsc	(i1___aldiv@dividend+3)^0,7,c
 10578   013A8C  EF4C  F09D         	goto	i1u754_20
 10579   013A90  EF4A  F09D         	goto	i1u754_21
 10580   013A94                     i1u754_21:
 10581   013A94  EF56  F09D         	goto	i1l7011
 10582   013A98                     i1u754_20:
 10583   013A98  1E1A               	comf	(i1___aldiv@dividend+3)^0,f,c
 10584   013A9A  1E19               	comf	(i1___aldiv@dividend+2)^0,f,c
 10585   013A9C  1E18               	comf	(i1___aldiv@dividend+1)^0,f,c
 10586   013A9E  6C17               	negf	i1___aldiv@dividend^0,c
 10587   013AA0  0E00               	movlw	0
 10588   013AA2  2218               	addwfc	(i1___aldiv@dividend+1)^0,f,c
 10589   013AA4  2219               	addwfc	(i1___aldiv@dividend+2)^0,f,c
 10590   013AA6  221A               	addwfc	(i1___aldiv@dividend+3)^0,f,c
 10591   013AA8  0E01               	movlw	1
 10592   013AAA  1A20               	xorwf	i1___aldiv@sign^0,f,c
 10593   013AAC                     i1l7011:
 10594   013AAC  0E00               	movlw	0
 10595   013AAE  6E21               	movwf	i1___aldiv@quotient^0,c
 10596   013AB0  0E00               	movlw	0
 10597   013AB2  6E22               	movwf	(i1___aldiv@quotient+1)^0,c
 10598   013AB4  0E00               	movlw	0
 10599   013AB6  6E23               	movwf	(i1___aldiv@quotient+2)^0,c
 10600   013AB8  0E00               	movlw	0
 10601   013ABA  6E24               	movwf	(i1___aldiv@quotient+3)^0,c
 10602   013ABC  501B               	movf	i1___aldiv@divisor^0,w,c
 10603   013ABE  101C               	iorwf	(i1___aldiv@divisor+1)^0,w,c
 10604   013AC0  101D               	iorwf	(i1___aldiv@divisor+2)^0,w,c
 10605   013AC2  101E               	iorwf	(i1___aldiv@divisor+3)^0,w,c
 10606   013AC4  B4D8               	btfsc	status,2,c
 10607   013AC6  EF67  F09D         	goto	i1u755_21
 10608   013ACA  EF69  F09D         	goto	i1u755_20
 10609   013ACE                     i1u755_21:
 10610   013ACE  EF9F  F09D         	goto	i1l7033
 10611   013AD2                     i1u755_20:
 10612   013AD2  0E01               	movlw	1
 10613   013AD4  6E1F               	movwf	i1___aldiv@counter^0,c
 10614   013AD6  EF73  F09D         	goto	i1l7019
 10615   013ADA                     i1l7017:
 10616   013ADA  90D8               	bcf	status,0,c
 10617   013ADC  361B               	rlcf	i1___aldiv@divisor^0,f,c
 10618   013ADE  361C               	rlcf	(i1___aldiv@divisor+1)^0,f,c
 10619   013AE0  361D               	rlcf	(i1___aldiv@divisor+2)^0,f,c
 10620   013AE2  361E               	rlcf	(i1___aldiv@divisor+3)^0,f,c
 10621   013AE4  2A1F               	incf	i1___aldiv@counter^0,f,c
 10622   013AE6                     i1l7019:
 10623   013AE6  AE1E               	btfss	(i1___aldiv@divisor+3)^0,7,c
 10624   013AE8  EF78  F09D         	goto	i1u756_21
 10625   013AEC  EF7A  F09D         	goto	i1u756_20
 10626   013AF0                     i1u756_21:
 10627   013AF0  EF6D  F09D         	goto	i1l7017
 10628   013AF4                     i1u756_20:
 10629   013AF4                     i1l7021:
 10630   013AF4  90D8               	bcf	status,0,c
 10631   013AF6  3621               	rlcf	i1___aldiv@quotient^0,f,c
 10632   013AF8  3622               	rlcf	(i1___aldiv@quotient+1)^0,f,c
 10633   013AFA  3623               	rlcf	(i1___aldiv@quotient+2)^0,f,c
 10634   013AFC  3624               	rlcf	(i1___aldiv@quotient+3)^0,f,c
 10635   013AFE  501B               	movf	i1___aldiv@divisor^0,w,c
 10636   013B00  5C17               	subwf	i1___aldiv@dividend^0,w,c
 10637   013B02  501C               	movf	(i1___aldiv@divisor+1)^0,w,c
 10638   013B04  5818               	subwfb	(i1___aldiv@dividend+1)^0,w,c
 10639   013B06  501D               	movf	(i1___aldiv@divisor+2)^0,w,c
 10640   013B08  5819               	subwfb	(i1___aldiv@dividend+2)^0,w,c
 10641   013B0A  501E               	movf	(i1___aldiv@divisor+3)^0,w,c
 10642   013B0C  581A               	subwfb	(i1___aldiv@dividend+3)^0,w,c
 10643   013B0E  A0D8               	btfss	status,0,c
 10644   013B10  EF8C  F09D         	goto	i1u757_21
 10645   013B14  EF8E  F09D         	goto	i1u757_20
 10646   013B18                     i1u757_21:
 10647   013B18  EF97  F09D         	goto	i1l7029
 10648   013B1C                     i1u757_20:
 10649   013B1C  501B               	movf	i1___aldiv@divisor^0,w,c
 10650   013B1E  5E17               	subwf	i1___aldiv@dividend^0,f,c
 10651   013B20  501C               	movf	(i1___aldiv@divisor+1)^0,w,c
 10652   013B22  5A18               	subwfb	(i1___aldiv@dividend+1)^0,f,c
 10653   013B24  501D               	movf	(i1___aldiv@divisor+2)^0,w,c
 10654   013B26  5A19               	subwfb	(i1___aldiv@dividend+2)^0,f,c
 10655   013B28  501E               	movf	(i1___aldiv@divisor+3)^0,w,c
 10656   013B2A  5A1A               	subwfb	(i1___aldiv@dividend+3)^0,f,c
 10657   013B2C  8021               	bsf	i1___aldiv@quotient^0,0,c
 10658   013B2E                     i1l7029:
 10659   013B2E  90D8               	bcf	status,0,c
 10660   013B30  321E               	rrcf	(i1___aldiv@divisor+3)^0,f,c
 10661   013B32  321D               	rrcf	(i1___aldiv@divisor+2)^0,f,c
 10662   013B34  321C               	rrcf	(i1___aldiv@divisor+1)^0,f,c
 10663   013B36  321B               	rrcf	i1___aldiv@divisor^0,f,c
 10664   013B38  2E1F               	decfsz	i1___aldiv@counter^0,f,c
 10665   013B3A  EF7A  F09D         	goto	i1l7021
 10666   013B3E                     i1l7033:
 10667   013B3E  5020               	movf	i1___aldiv@sign^0,w,c
 10668   013B40  B4D8               	btfsc	status,2,c
 10669   013B42  EFA5  F09D         	goto	i1u758_21
 10670   013B46  EFA7  F09D         	goto	i1u758_20
 10671   013B4A                     i1u758_21:
 10672   013B4A  EFAF  F09D         	goto	i1l7037
 10673   013B4E                     i1u758_20:
 10674   013B4E  1E24               	comf	(i1___aldiv@quotient+3)^0,f,c
 10675   013B50  1E23               	comf	(i1___aldiv@quotient+2)^0,f,c
 10676   013B52  1E22               	comf	(i1___aldiv@quotient+1)^0,f,c
 10677   013B54  6C21               	negf	i1___aldiv@quotient^0,c
 10678   013B56  0E00               	movlw	0
 10679   013B58  2222               	addwfc	(i1___aldiv@quotient+1)^0,f,c
 10680   013B5A  2223               	addwfc	(i1___aldiv@quotient+2)^0,f,c
 10681   013B5C  2224               	addwfc	(i1___aldiv@quotient+3)^0,f,c
 10682   013B5E                     i1l7037:
 10683   013B5E  C021  F017         	movff	i1___aldiv@quotient,?i1___aldiv
 10684   013B62  C022  F018         	movff	i1___aldiv@quotient+1,?i1___aldiv+1
 10685   013B66  C023  F019         	movff	i1___aldiv@quotient+2,?i1___aldiv+2
 10686   013B6A  C024  F01A         	movff	i1___aldiv@quotient+3,?i1___aldiv+3
 10687   013B6E  0012               	return		;funcret
 10688   013B70                     __end_ofi1___aldiv:
 10689                           	callstack 0
 10690                           
 10691 ;; *************** function i1_SSP2_Write *****************
 10692 ;; Defined at:
 10693 ;;		line 81 in file "./Fonctions.c"
 10694 ;; Parameters:    Size  Location     Type
 10695 ;;  SSP2_ADD        1    wreg     unsigned char 
 10696 ;;  SSP2_REG        1   22[COMRAM] unsigned char 
 10697 ;;  SSP2_DATA       1   23[COMRAM] unsigned char 
 10698 ;; Auto vars:     Size  Location     Type
 10699 ;;  SSP2_ADD        1   24[COMRAM] unsigned char 
 10700 ;; Return value:  Size  Location     Type
 10701 ;;                  1    wreg      void 
 10702 ;; Registers used:
 10703 ;;		wreg, status,2
 10704 ;; Tracked objects:
 10705 ;;		On entry : 0/0
 10706 ;;		On exit  : 0/0
 10707 ;;		Unchanged: 0/0
 10708 ;; Data sizes:     COMRAM   BANK0   BANK1   BANK2   BANK3   BANK4   BANK5   BANK6   BANK7   BANK8   BANK9  BANK10  BANK1
      +1  BANK12  BANK13  BANK14
 10709 ;;      Params:         2       0       0       0       0       0       0       0       0       0       0       0       
      +0       0       0       0
 10710 ;;      Locals:         1       0       0       0       0       0       0       0       0       0       0       0       
      +0       0       0       0
 10711 ;;      Temps:          0       0       0       0       0       0       0       0       0       0       0       0       
      +0       0       0       0
 10712 ;;      Totals:         3       0       0       0       0       0       0       0       0       0       0       0       
      +0       0       0       0
 10713 ;;Total ram usage:        3 bytes
 10714 ;; Hardware stack levels used: 1
 10715 ;; Hardware stack levels required when called: 2
 10716 ;; This function calls:
 10717 ;;		Nothing
 10718 ;; This function is called by:
 10719 ;;		_myLowIsr
 10720 ;; This function uses a non-reentrant model
 10721 ;;
 10722                           
 10723                           	psect	text35
 10724   0145C4                     __ptext35:
 10725                           	callstack 0
 10726   0145C4                     i1_SSP2_Write:
 10727                           	callstack 22
 10728                           
 10729                           ;incstack = 0
 10730                           ;i1SSP2_Write@SSP2_ADD stored from wreg
 10731   0145C4  6E19               	movwf	i1SSP2_Write@SSP2_ADD^0,c
 10732   0145C6                     
 10733                           ;./Fonctions.c: 81: void SSP2_Write (unsigned char SSP2_ADD, unsigned char SSP2_REG, uns
      +                          igned char SSP2_DATA);./Fonctions.c: 82: {;./Fonctions.c: 83:     CSSP2=0;
 10734   0145C6  0E00               	movlw	0
 10735   0145C8  6E46               	movwf	_CSSP2^0,c
 10736                           
 10737                           ;./Fonctions.c: 84:     READ=0;
 10738   0145CA  0E00               	movlw	0
 10739   0145CC  6E45               	movwf	_READ^0,c
 10740                           
 10741                           ;./Fonctions.c: 85:     WRITE=1;
 10742   0145CE  0E01               	movlw	1
 10743   0145D0  6E44               	movwf	_WRITE^0,c
 10744   0145D2                     
 10745                           ;./Fonctions.c: 86:     SSP2_ADD_ISR=SSP2_ADD;
 10746   0145D2  C019  F043         	movff	i1SSP2_Write@SSP2_ADD,_SSP2_ADD_ISR
 10747   0145D6                     
 10748                           ;./Fonctions.c: 87:     SSP2_REG_ISR=SSP2_REG;
 10749   0145D6  C017  F042         	movff	i1SSP2_Write@SSP2_REG,_SSP2_REG_ISR
 10750   0145DA                     
 10751                           ;./Fonctions.c: 88:     SSP2_DATA_ISR=SSP2_DATA;
 10752   0145DA  C018  F1C1         	movff	i1SSP2_Write@SSP2_DATA,_SSP2_DATA_ISR
 10753   0145DE                     
 10754                           ;./Fonctions.c: 89:     SSP2CON2bits.SEN=1;
 10755   0145DE  010E               	movlb	14	; () banked
 10756   0145E0  8197               	bsf	151,0,b	;volatile
 10757   0145E2                     
 10758                           ; BSR set to: 14
 10759   0145E2  0012               	return		;funcret
 10760   0145E4                     __end_ofi1_SSP2_Write:
 10761                           	callstack 0
 10762                           
 10763 ;; *************** function i1_SSP2_Read *****************
 10764 ;; Defined at:
 10765 ;;		line 92 in file "./Fonctions.c"
 10766 ;; Parameters:    Size  Location     Type
 10767 ;;  SSP2_ADD        1    wreg     unsigned char 
 10768 ;;  SSP2_REG        1   22[COMRAM] unsigned char 
 10769 ;; Auto vars:     Size  Location     Type
 10770 ;;  SSP2_ADD        1   23[COMRAM] unsigned char 
 10771 ;; Return value:  Size  Location     Type
 10772 ;;                  1    wreg      void 
 10773 ;; Registers used:
 10774 ;;		wreg, status,2
 10775 ;; Tracked objects:
 10776 ;;		On entry : 0/0
 10777 ;;		On exit  : 0/0
 10778 ;;		Unchanged: 0/0
 10779 ;; Data sizes:     COMRAM   BANK0   BANK1   BANK2   BANK3   BANK4   BANK5   BANK6   BANK7   BANK8   BANK9  BANK10  BANK1
      +1  BANK12  BANK13  BANK14
 10780 ;;      Params:         1       0       0       0       0       0       0       0       0       0       0       0       
      +0       0       0       0
 10781 ;;      Locals:         1       0       0       0       0       0       0       0       0       0       0       0       
      +0       0       0       0
 10782 ;;      Temps:          0       0       0       0       0       0       0       0       0       0       0       0       
      +0       0       0       0
 10783 ;;      Totals:         2       0       0       0       0       0       0       0       0       0       0       0       
      +0       0       0       0
 10784 ;;Total ram usage:        2 bytes
 10785 ;; Hardware stack levels used: 1
 10786 ;; Hardware stack levels required when called: 2
 10787 ;; This function calls:
 10788 ;;		Nothing
 10789 ;; This function is called by:
 10790 ;;		_myLowIsr
 10791 ;; This function uses a non-reentrant model
 10792 ;;
 10793                           
 10794                           	psect	text36
 10795   014620                     __ptext36:
 10796                           	callstack 0
 10797   014620                     i1_SSP2_Read:
 10798                           	callstack 22
 10799                           
 10800                           ; BSR set to: 14
 10801                           ;incstack = 0
 10802                           ;i1SSP2_Read@SSP2_ADD stored from wreg
 10803   014620  6E18               	movwf	i1SSP2_Read@SSP2_ADD^0,c
 10804   014622                     
 10805                           ;./Fonctions.c: 92: void SSP2_Read (unsigned char SSP2_ADD, unsigned char SSP2_REG);./Fo
      +                          nctions.c: 93: {;./Fonctions.c: 94:     CSSP2=0;
 10806   014622  0E00               	movlw	0
 10807   014624  6E46               	movwf	_CSSP2^0,c
 10808                           
 10809                           ;./Fonctions.c: 95:     READ=1;
 10810   014626  0E01               	movlw	1
 10811   014628  6E45               	movwf	_READ^0,c
 10812                           
 10813                           ;./Fonctions.c: 96:     WRITE=0;
 10814   01462A  0E00               	movlw	0
 10815   01462C  6E44               	movwf	_WRITE^0,c
 10816   01462E                     
 10817                           ;./Fonctions.c: 97:     SSP2_ADD_ISR=SSP2_ADD;
 10818   01462E  C018  F043         	movff	i1SSP2_Read@SSP2_ADD,_SSP2_ADD_ISR
 10819   014632                     
 10820                           ;./Fonctions.c: 98:     SSP2_REG_ISR=SSP2_REG;
 10821   014632  C017  F042         	movff	i1SSP2_Read@SSP2_REG,_SSP2_REG_ISR
 10822   014636                     
 10823                           ;./Fonctions.c: 99:     SSP2CON2bits.SEN=1;
 10824   014636  010E               	movlb	14	; () banked
 10825   014638  8197               	bsf	151,0,b	;volatile
 10826   01463A                     
 10827                           ; BSR set to: 14
 10828   01463A  0012               	return		;funcret
 10829   01463C                     __end_ofi1_SSP2_Read:
 10830                           	callstack 0
 10831                           
 10832 ;; *************** function _atanf *****************
 10833 ;; Defined at:
 10834 ;;		line 40 in file "C:\Program Files\Microchip\xc8\v2.46\pic\sources\c99\common\atanf.c"
 10835 ;; Parameters:    Size  Location     Type
 10836 ;;  x               4   54[BANK0 ] float 
 10837 ;; Auto vars:     Size  Location     Type
 10838 ;;  ix              4   38[BANK1 ] struct .
 10839 ;;  z               4   34[BANK1 ] float 
 10840 ;;  w               4   29[BANK1 ] float 
 10841 ;;  s2              4   16[BANK1 ] float 
 10842 ;;  s1              4   12[BANK1 ] float 
 10843 ;;  id              1   33[BANK1 ] char 
 10844 ;;  sign            1   28[BANK1 ] _Bool 
 10845 ;; Return value:  Size  Location     Type
 10846 ;;                  4   54[BANK0 ] float 
 10847 ;; Registers used:
 10848 ;;		wreg, status,2, status,0, tblptrl, tblptrh, tblptru, prodl, prodh, cstack
 10849 ;; Tracked objects:
 10850 ;;		On entry : 0/0
 10851 ;;		On exit  : 0/0
 10852 ;;		Unchanged: 0/0
 10853 ;; Data sizes:     COMRAM   BANK0   BANK1   BANK2   BANK3   BANK4   BANK5   BANK6   BANK7   BANK8   BANK9  BANK10  BANK1
      +1  BANK12  BANK13  BANK14
 10854 ;;      Params:         0       4       0       0       0       0       0       0       0       0       0       0       
      +0       0       0       0
 10855 ;;      Locals:         0       0      42       0       0       0       0       0       0       0       0       0       
      +0       0       0       0
 10856 ;;      Temps:          0       0       0       0       0       0       0       0       0       0       0       0       
      +0       0       0       0
 10857 ;;      Totals:         0       4      42       0       0       0       0       0       0       0       0       0       
      +0       0       0       0
 10858 ;;Total ram usage:       46 bytes
 10859 ;; Hardware stack levels used: 1
 10860 ;; Hardware stack levels required when called: 4
 10861 ;; This function calls:
 10862 ;;		___fpclassifyf
 10863 ;;		_fabsf
 10864 ;;		i1___fladd
 10865 ;;		i1___fldiv
 10866 ;;		i1___flmul
 10867 ;;		i1___flneg
 10868 ;;		i1___flsub
 10869 ;; This function is called by:
 10870 ;;		_myLowIsr
 10871 ;; This function uses a non-reentrant model
 10872 ;;
 10873                           
 10874                           	psect	text37
 10875   010000                     __ptext37:
 10876                           	callstack 0
 10877   010000                     _atanf:
 10878                           	callstack 20
 10879   010000  C096  F126         	movff	atanf@x,atanf@ix
 10880   010004  C097  F127         	movff	atanf@x+1,atanf@ix+1
 10881   010008  C098  F128         	movff	atanf@x+2,atanf@ix+2
 10882   01000C  C099  F129         	movff	atanf@x+3,atanf@ix+3
 10883   010010  0101               	movlb	1	; () banked
 10884   010012  BF29               	btfsc	(atanf@ix+3)& (0+255),7,b
 10885   010014  EF0E  F080         	goto	i1u1009_21
 10886   010018  EF11  F080         	goto	i1u1009_20
 10887   01001C                     i1u1009_21:
 10888   01001C  0E01               	movlw	1
 10889   01001E  EF12  F080         	goto	i1u1010_20
 10890   010022                     i1u1009_20:
 10891   010022  0E00               	movlw	0
 10892   010024                     i1u1010_20:
 10893   010024  6F1C               	movwf	atanf@sign& (0+255),b
 10894   010026                     
 10895                           ; BSR set to: 1
 10896   010026  9F29               	bcf	(atanf@ix+3)& (0+255),7,b
 10897   010028                     
 10898                           ; BSR set to: 1
 10899   010028  0E80               	movlw	128
 10900   01002A  5D28               	subwf	(atanf@ix+2)& (0+255),w,b
 10901   01002C  0E4C               	movlw	76
 10902   01002E  5929               	subwfb	(atanf@ix+3)& (0+255),w,b
 10903   010030  A0D8               	btfss	status,0,c
 10904   010032  EF1D  F080         	goto	i1u1011_21
 10905   010036  EF1F  F080         	goto	i1u1011_20
 10906   01003A                     i1u1011_21:
 10907   01003A  EF88  F080         	goto	i1l8619
 10908   01003E                     i1u1011_20:
 10909   01003E                     
 10910                           ; BSR set to: 1
 10911   01003E  C096  F017         	movff	atanf@x,___fpclassifyf@x
 10912   010042  C097  F018         	movff	atanf@x+1,___fpclassifyf@x+1
 10913   010046  C098  F019         	movff	atanf@x+2,___fpclassifyf@x+2
 10914   01004A  C099  F01A         	movff	atanf@x+3,___fpclassifyf@x+3
 10915   01004E  ECC0  F09E         	call	___fpclassifyf	;wreg free
 10916   010052  5017               	movf	?___fpclassifyf^0,w,c
 10917   010054  1018               	iorwf	(?___fpclassifyf+1)^0,w,c
 10918   010056  A4D8               	btfss	status,2,c
 10919   010058  EF30  F080         	goto	i1u1012_21
 10920   01005C  EF32  F080         	goto	i1u1012_20
 10921   010060                     i1u1012_21:
 10922   010060  EF3C  F080         	goto	i1l8609
 10923   010064                     i1u1012_20:
 10924   010064                     i1l8607:
 10925   010064  C096  F096         	movff	atanf@x,?_atanf
 10926   010068  C097  F097         	movff	atanf@x+1,?_atanf+1
 10927   01006C  C098  F098         	movff	atanf@x+2,?_atanf+2
 10928   010070  C099  F099         	movff	atanf@x+3,?_atanf+3
 10929   010074  EFC8  F083         	goto	i1l1750
 10930   010078                     i1l8609:
 10931   010078  0E8F               	movlw	low (_atanhi+12)
 10932   01007A  6EF6               	movwf	tblptrl,c
 10933   01007C  0EFE               	movlw	high (_atanhi+12)
 10934   01007E  6EF7               	movwf	tblptrh,c
 10935   010080                     	if	0	;tblptru may be non-zero
 10936   010080                     	endif
 10937   010080                     	if	1	;Program memory is > 0xFFFF, there are 3 active tblptr bytes
 10938   010080  0E00               	movlw	low (__mediumconst shr (0+16))
 10939   010082  6EF8               	movwf	tblptru,c
 10940   010084                     	endif
 10941   010084  0009               	tblrd		*+
 10942   010086  CFF5 F06D          	movff	tablat,i1___fladd@b
 10943   01008A  0009               	tblrd		*+
 10944   01008C  CFF5 F06E          	movff	tablat,i1___fladd@b+1
 10945   010090  0009               	tblrd		*+
 10946   010092  CFF5 F06F          	movff	tablat,i1___fladd@b+2
 10947   010096  000A               	tblrd		*-
 10948   010098  CFF5 F070          	movff	tablat,i1___fladd@b+3
 10949   01009C  0E00               	movlw	0
 10950   01009E  0100               	movlb	0	; () banked
 10951   0100A0  6F71               	movwf	i1___fladd@a& (0+255),b
 10952   0100A2  0E00               	movlw	0
 10953   0100A4  6F72               	movwf	(i1___fladd@a+1)& (0+255),b
 10954   0100A6  0E80               	movlw	128
 10955   0100A8  6F73               	movwf	(i1___fladd@a+2)& (0+255),b
 10956   0100AA  0E03               	movlw	3
 10957   0100AC  6F74               	movwf	(i1___fladd@a+3)& (0+255),b
 10958   0100AE  ECA8  F08C         	call	i1___fladd	;wreg free
 10959   0100B2  C06D  F122         	movff	?i1___fladd,atanf@z
 10960   0100B6  C06E  F123         	movff	?i1___fladd+1,atanf@z+1
 10961   0100BA  C06F  F124         	movff	?i1___fladd+2,atanf@z+2
 10962   0100BE  C070  F125         	movff	?i1___fladd+3,atanf@z+3
 10963   0100C2  0101               	movlb	1	; () banked
 10964   0100C4  511C               	movf	atanf@sign& (0+255),w,b
 10965   0100C6  A4D8               	btfss	status,2,c
 10966   0100C8  EF68  F080         	goto	i1u1013_21
 10967   0100CC  EF6A  F080         	goto	i1u1013_20
 10968   0100D0                     i1u1013_21:
 10969   0100D0  EF74  F080         	goto	i1l8615
 10970   0100D4                     i1u1013_20:
 10971   0100D4                     i1l8613:
 10972                           
 10973                           ; BSR set to: 1
 10974   0100D4  C122  F096         	movff	atanf@z,?_atanf
 10975   0100D8  C123  F097         	movff	atanf@z+1,?_atanf+1
 10976   0100DC  C124  F098         	movff	atanf@z+2,?_atanf+2
 10977   0100E0  C125  F099         	movff	atanf@z+3,?_atanf+3
 10978   0100E4  EFC8  F083         	goto	i1l1750
 10979   0100E8                     i1l8615:
 10980                           
 10981                           ; BSR set to: 1
 10982   0100E8  C122  F017         	movff	atanf@z,i1___flneg@f1
 10983   0100EC  C123  F018         	movff	atanf@z+1,i1___flneg@f1+1
 10984   0100F0  C124  F019         	movff	atanf@z+2,i1___flneg@f1+2
 10985   0100F4  C125  F01A         	movff	atanf@z+3,i1___flneg@f1+3
 10986   0100F8  EC3A  F0A2         	call	i1___flneg	;wreg free
 10987   0100FC  C017  F096         	movff	?i1___flneg,?_atanf
 10988   010100  C018  F097         	movff	?i1___flneg+1,?_atanf+1
 10989   010104  C019  F098         	movff	?i1___flneg+2,?_atanf+2
 10990   010108  C01A  F099         	movff	?i1___flneg+3,?_atanf+3
 10991   01010C  EFC8  F083         	goto	i1l1750
 10992   010110                     i1l8619:
 10993                           
 10994                           ; BSR set to: 1
 10995   010110  0EE0               	movlw	224
 10996   010112  5D28               	subwf	(atanf@ix+2)& (0+255),w,b
 10997   010114  0E3E               	movlw	62
 10998   010116  5929               	subwfb	(atanf@ix+3)& (0+255),w,b
 10999   010118  B0D8               	btfsc	status,0,c
 11000   01011A  EF91  F080         	goto	i1u1014_21
 11001   01011E  EF93  F080         	goto	i1u1014_20
 11002   010122                     i1u1014_21:
 11003   010122  EFA3  F080         	goto	i1l8625
 11004   010126                     i1u1014_20:
 11005   010126                     
 11006                           ; BSR set to: 1
 11007   010126  0E80               	movlw	128
 11008   010128  5D28               	subwf	(atanf@ix+2)& (0+255),w,b
 11009   01012A  0E39               	movlw	57
 11010   01012C  5929               	subwfb	(atanf@ix+3)& (0+255),w,b
 11011   01012E  B0D8               	btfsc	status,0,c
 11012   010130  EF9C  F080         	goto	i1u1015_21
 11013   010134  EF9E  F080         	goto	i1u1015_20
 11014   010138                     i1u1015_21:
 11015   010138  EFA0  F080         	goto	i1l1756
 11016   01013C                     i1u1015_20:
 11017   01013C  EF32  F080         	goto	i1l8607
 11018   010140                     i1l1756:
 11019                           
 11020                           ; BSR set to: 1
 11021   010140  6921               	setf	atanf@id& (0+255),b
 11022   010142  EFE4  F081         	goto	i1l8649
 11023   010146                     i1l8625:
 11024                           
 11025                           ; BSR set to: 1
 11026   010146  C096  F017         	movff	atanf@x,fabsf@x
 11027   01014A  C097  F018         	movff	atanf@x+1,fabsf@x+1
 11028   01014E  C098  F019         	movff	atanf@x+2,fabsf@x+2
 11029   010152  C099  F01A         	movff	atanf@x+3,fabsf@x+3
 11030   010156  EC71  F0A2         	call	_fabsf	;wreg free
 11031   01015A  C017  F096         	movff	?_fabsf,atanf@x
 11032   01015E  C018  F097         	movff	?_fabsf+1,atanf@x+1
 11033   010162  C019  F098         	movff	?_fabsf+2,atanf@x+2
 11034   010166  C01A  F099         	movff	?_fabsf+3,atanf@x+3
 11035   01016A  0E98               	movlw	152
 11036   01016C  0101               	movlb	1	; () banked
 11037   01016E  5D28               	subwf	(atanf@ix+2)& (0+255),w,b
 11038   010170  0E3F               	movlw	63
 11039   010172  5929               	subwfb	(atanf@ix+3)& (0+255),w,b
 11040   010174  B0D8               	btfsc	status,0,c
 11041   010176  EFBF  F080         	goto	i1u1016_21
 11042   01017A  EFC1  F080         	goto	i1u1016_20
 11043   01017E                     i1u1016_21:
 11044   01017E  EF66  F081         	goto	i1l8639
 11045   010182                     i1u1016_20:
 11046   010182                     
 11047                           ; BSR set to: 1
 11048   010182  0E30               	movlw	48
 11049   010184  5D28               	subwf	(atanf@ix+2)& (0+255),w,b
 11050   010186  0E3F               	movlw	63
 11051   010188  5929               	subwfb	(atanf@ix+3)& (0+255),w,b
 11052   01018A  B0D8               	btfsc	status,0,c
 11053   01018C  EFCA  F080         	goto	i1u1017_21
 11054   010190  EFCC  F080         	goto	i1u1017_20
 11055   010194                     i1u1017_21:
 11056   010194  EF22  F081         	goto	i1l8635
 11057   010198                     i1u1017_20:
 11058   010198                     
 11059                           ; BSR set to: 1
 11060   010198  0E00               	movlw	0
 11061   01019A  6F21               	movwf	atanf@id& (0+255),b
 11062   01019C                     
 11063                           ; BSR set to: 1
 11064   01019C  0E00               	movlw	0
 11065   01019E  0100               	movlb	0	; () banked
 11066   0101A0  6F71               	movwf	i1___fladd@a& (0+255),b
 11067   0101A2  0E00               	movlw	0
 11068   0101A4  6F72               	movwf	(i1___fladd@a+1)& (0+255),b
 11069   0101A6  0E80               	movlw	128
 11070   0101A8  6F73               	movwf	(i1___fladd@a+2)& (0+255),b
 11071   0101AA  0EBF               	movlw	191
 11072   0101AC  6F74               	movwf	(i1___fladd@a+3)& (0+255),b
 11073   0101AE  0E00               	movlw	0
 11074   0101B0  6E29               	movwf	i1___flmul@a^0,c
 11075   0101B2  0E00               	movlw	0
 11076   0101B4  6E2A               	movwf	(i1___flmul@a+1)^0,c
 11077   0101B6  0E00               	movlw	0
 11078   0101B8  6E2B               	movwf	(i1___flmul@a+2)^0,c
 11079   0101BA  0E40               	movlw	64
 11080   0101BC  6E2C               	movwf	(i1___flmul@a+3)^0,c
 11081   0101BE  C096  F025         	movff	atanf@x,i1___flmul@b
 11082   0101C2  C097  F026         	movff	atanf@x+1,i1___flmul@b+1
 11083   0101C6  C098  F027         	movff	atanf@x+2,i1___flmul@b+2
 11084   0101CA  C099  F028         	movff	atanf@x+3,i1___flmul@b+3
 11085   0101CE  EC1F  F091         	call	i1___flmul	;wreg free
 11086   0101D2  C025  F06D         	movff	?i1___flmul,i1___fladd@b
 11087   0101D6  C026  F06E         	movff	?i1___flmul+1,i1___fladd@b+1
 11088   0101DA  C027  F06F         	movff	?i1___flmul+2,i1___fladd@b+2
 11089   0101DE  C028  F070         	movff	?i1___flmul+3,i1___fladd@b+3
 11090   0101E2  ECA8  F08C         	call	i1___fladd	;wreg free
 11091   0101E6  C06D  F07D         	movff	?i1___fladd,i1___fldiv@b
 11092   0101EA  C06E  F07E         	movff	?i1___fladd+1,i1___fldiv@b+1
 11093   0101EE  C06F  F07F         	movff	?i1___fladd+2,i1___fldiv@b+2
 11094   0101F2  C070  F080         	movff	?i1___fladd+3,i1___fldiv@b+3
 11095   0101F6  0E00               	movlw	0
 11096   0101F8  0100               	movlb	0	; () banked
 11097   0101FA  6F71               	movwf	i1___fladd@a& (0+255),b
 11098   0101FC  0E00               	movlw	0
 11099   0101FE  6F72               	movwf	(i1___fladd@a+1)& (0+255),b
 11100   010200  0E00               	movlw	0
 11101   010202  6F73               	movwf	(i1___fladd@a+2)& (0+255),b
 11102   010204  0E40               	movlw	64
 11103   010206  6F74               	movwf	(i1___fladd@a+3)& (0+255),b
 11104   010208  C096  F06D         	movff	atanf@x,i1___fladd@b
 11105   01020C  C097  F06E         	movff	atanf@x+1,i1___fladd@b+1
 11106   010210  C098  F06F         	movff	atanf@x+2,i1___fladd@b+2
 11107   010214  C099  F070         	movff	atanf@x+3,i1___fladd@b+3
 11108   010218  ECA8  F08C         	call	i1___fladd	;wreg free
 11109   01021C  C06D  F081         	movff	?i1___fladd,i1___fldiv@a
 11110   010220  C06E  F082         	movff	?i1___fladd+1,i1___fldiv@a+1
 11111   010224  C06F  F083         	movff	?i1___fladd+2,i1___fldiv@a+2
 11112   010228  C070  F084         	movff	?i1___fladd+3,i1___fldiv@a+3
 11113   01022C  ECFC  F096         	call	i1___fldiv	;wreg free
 11114   010230  C07D  F096         	movff	?i1___fldiv,atanf@x
 11115   010234  C07E  F097         	movff	?i1___fldiv+1,atanf@x+1
 11116   010238  C07F  F098         	movff	?i1___fldiv+2,atanf@x+2
 11117   01023C  C080  F099         	movff	?i1___fldiv+3,atanf@x+3
 11118   010240  EFE4  F081         	goto	i1l8649
 11119   010244                     i1l8635:
 11120                           
 11121                           ; BSR set to: 1
 11122   010244  0E01               	movlw	1
 11123   010246  6F21               	movwf	atanf@id& (0+255),b
 11124   010248                     
 11125                           ; BSR set to: 1
 11126   010248  0E00               	movlw	0
 11127   01024A  0100               	movlb	0	; () banked
 11128   01024C  6F71               	movwf	i1___fladd@a& (0+255),b
 11129   01024E  0E00               	movlw	0
 11130   010250  6F72               	movwf	(i1___fladd@a+1)& (0+255),b
 11131   010252  0E80               	movlw	128
 11132   010254  6F73               	movwf	(i1___fladd@a+2)& (0+255),b
 11133   010256  0EBF               	movlw	191
 11134   010258  6F74               	movwf	(i1___fladd@a+3)& (0+255),b
 11135   01025A  C096  F06D         	movff	atanf@x,i1___fladd@b
 11136   01025E  C097  F06E         	movff	atanf@x+1,i1___fladd@b+1
 11137   010262  C098  F06F         	movff	atanf@x+2,i1___fladd@b+2
 11138   010266  C099  F070         	movff	atanf@x+3,i1___fladd@b+3
 11139   01026A  ECA8  F08C         	call	i1___fladd	;wreg free
 11140   01026E  C06D  F07D         	movff	?i1___fladd,i1___fldiv@b
 11141   010272  C06E  F07E         	movff	?i1___fladd+1,i1___fldiv@b+1
 11142   010276  C06F  F07F         	movff	?i1___fladd+2,i1___fldiv@b+2
 11143   01027A  C070  F080         	movff	?i1___fladd+3,i1___fldiv@b+3
 11144   01027E  0E00               	movlw	0
 11145   010280  0100               	movlb	0	; () banked
 11146   010282  6F71               	movwf	i1___fladd@a& (0+255),b
 11147   010284  0E00               	movlw	0
 11148   010286  6F72               	movwf	(i1___fladd@a+1)& (0+255),b
 11149   010288  0E80               	movlw	128
 11150   01028A  6F73               	movwf	(i1___fladd@a+2)& (0+255),b
 11151   01028C  0E3F               	movlw	63
 11152   01028E  6F74               	movwf	(i1___fladd@a+3)& (0+255),b
 11153   010290  C096  F06D         	movff	atanf@x,i1___fladd@b
 11154   010294  C097  F06E         	movff	atanf@x+1,i1___fladd@b+1
 11155   010298  C098  F06F         	movff	atanf@x+2,i1___fladd@b+2
 11156   01029C  C099  F070         	movff	atanf@x+3,i1___fladd@b+3
 11157   0102A0  ECA8  F08C         	call	i1___fladd	;wreg free
 11158   0102A4  C06D  F081         	movff	?i1___fladd,i1___fldiv@a
 11159   0102A8  C06E  F082         	movff	?i1___fladd+1,i1___fldiv@a+1
 11160   0102AC  C06F  F083         	movff	?i1___fladd+2,i1___fldiv@a+2
 11161   0102B0  C070  F084         	movff	?i1___fladd+3,i1___fldiv@a+3
 11162   0102B4  ECFC  F096         	call	i1___fldiv	;wreg free
 11163   0102B8  C07D  F096         	movff	?i1___fldiv,atanf@x
 11164   0102BC  C07E  F097         	movff	?i1___fldiv+1,atanf@x+1
 11165   0102C0  C07F  F098         	movff	?i1___fldiv+2,atanf@x+2
 11166   0102C4  C080  F099         	movff	?i1___fldiv+3,atanf@x+3
 11167   0102C8  EFE4  F081         	goto	i1l8649
 11168   0102CC                     i1l8639:
 11169                           
 11170                           ; BSR set to: 1
 11171   0102CC  0E1C               	movlw	28
 11172   0102CE  5D28               	subwf	(atanf@ix+2)& (0+255),w,b
 11173   0102D0  0E40               	movlw	64
 11174   0102D2  5929               	subwfb	(atanf@ix+3)& (0+255),w,b
 11175   0102D4  B0D8               	btfsc	status,0,c
 11176   0102D6  EF6F  F081         	goto	i1u1018_21
 11177   0102DA  EF71  F081         	goto	i1u1018_20
 11178   0102DE                     i1u1018_21:
 11179   0102DE  EFC7  F081         	goto	i1l8645
 11180   0102E2                     i1u1018_20:
 11181   0102E2                     
 11182                           ; BSR set to: 1
 11183   0102E2  0E02               	movlw	2
 11184   0102E4  6F21               	movwf	atanf@id& (0+255),b
 11185   0102E6                     
 11186                           ; BSR set to: 1
 11187   0102E6  0E00               	movlw	0
 11188   0102E8  0100               	movlb	0	; () banked
 11189   0102EA  6F71               	movwf	i1___fladd@a& (0+255),b
 11190   0102EC  0E00               	movlw	0
 11191   0102EE  6F72               	movwf	(i1___fladd@a+1)& (0+255),b
 11192   0102F0  0EC0               	movlw	192
 11193   0102F2  6F73               	movwf	(i1___fladd@a+2)& (0+255),b
 11194   0102F4  0EBF               	movlw	191
 11195   0102F6  6F74               	movwf	(i1___fladd@a+3)& (0+255),b
 11196   0102F8  C096  F06D         	movff	atanf@x,i1___fladd@b
 11197   0102FC  C097  F06E         	movff	atanf@x+1,i1___fladd@b+1
 11198   010300  C098  F06F         	movff	atanf@x+2,i1___fladd@b+2
 11199   010304  C099  F070         	movff	atanf@x+3,i1___fladd@b+3
 11200   010308  ECA8  F08C         	call	i1___fladd	;wreg free
 11201   01030C  C06D  F07D         	movff	?i1___fladd,i1___fldiv@b
 11202   010310  C06E  F07E         	movff	?i1___fladd+1,i1___fldiv@b+1
 11203   010314  C06F  F07F         	movff	?i1___fladd+2,i1___fldiv@b+2
 11204   010318  C070  F080         	movff	?i1___fladd+3,i1___fldiv@b+3
 11205   01031C  0E00               	movlw	0
 11206   01031E  0100               	movlb	0	; () banked
 11207   010320  6F71               	movwf	i1___fladd@a& (0+255),b
 11208   010322  0E00               	movlw	0
 11209   010324  6F72               	movwf	(i1___fladd@a+1)& (0+255),b
 11210   010326  0E80               	movlw	128
 11211   010328  6F73               	movwf	(i1___fladd@a+2)& (0+255),b
 11212   01032A  0E3F               	movlw	63
 11213   01032C  6F74               	movwf	(i1___fladd@a+3)& (0+255),b
 11214   01032E  0E00               	movlw	0
 11215   010330  6E29               	movwf	i1___flmul@a^0,c
 11216   010332  0E00               	movlw	0
 11217   010334  6E2A               	movwf	(i1___flmul@a+1)^0,c
 11218   010336  0EC0               	movlw	192
 11219   010338  6E2B               	movwf	(i1___flmul@a+2)^0,c
 11220   01033A  0E3F               	movlw	63
 11221   01033C  6E2C               	movwf	(i1___flmul@a+3)^0,c
 11222   01033E  C096  F025         	movff	atanf@x,i1___flmul@b
 11223   010342  C097  F026         	movff	atanf@x+1,i1___flmul@b+1
 11224   010346  C098  F027         	movff	atanf@x+2,i1___flmul@b+2
 11225   01034A  C099  F028         	movff	atanf@x+3,i1___flmul@b+3
 11226   01034E  EC1F  F091         	call	i1___flmul	;wreg free
 11227   010352  C025  F06D         	movff	?i1___flmul,i1___fladd@b
 11228   010356  C026  F06E         	movff	?i1___flmul+1,i1___fladd@b+1
 11229   01035A  C027  F06F         	movff	?i1___flmul+2,i1___fladd@b+2
 11230   01035E  C028  F070         	movff	?i1___flmul+3,i1___fladd@b+3
 11231   010362  ECA8  F08C         	call	i1___fladd	;wreg free
 11232   010366  C06D  F081         	movff	?i1___fladd,i1___fldiv@a
 11233   01036A  C06E  F082         	movff	?i1___fladd+1,i1___fldiv@a+1
 11234   01036E  C06F  F083         	movff	?i1___fladd+2,i1___fldiv@a+2
 11235   010372  C070  F084         	movff	?i1___fladd+3,i1___fldiv@a+3
 11236   010376  ECFC  F096         	call	i1___fldiv	;wreg free
 11237   01037A  C07D  F096         	movff	?i1___fldiv,atanf@x
 11238   01037E  C07E  F097         	movff	?i1___fldiv+1,atanf@x+1
 11239   010382  C07F  F098         	movff	?i1___fldiv+2,atanf@x+2
 11240   010386  C080  F099         	movff	?i1___fldiv+3,atanf@x+3
 11241   01038A  EFE4  F081         	goto	i1l8649
 11242   01038E                     i1l8645:
 11243                           
 11244                           ; BSR set to: 1
 11245   01038E  0E03               	movlw	3
 11246   010390  6F21               	movwf	atanf@id& (0+255),b
 11247   010392                     
 11248                           ; BSR set to: 1
 11249   010392  0E00               	movlw	0
 11250   010394  0100               	movlb	0	; () banked
 11251   010396  6F7D               	movwf	i1___fldiv@b& (0+255),b
 11252   010398  0E00               	movlw	0
 11253   01039A  6F7E               	movwf	(i1___fldiv@b+1)& (0+255),b
 11254   01039C  0E80               	movlw	128
 11255   01039E  6F7F               	movwf	(i1___fldiv@b+2)& (0+255),b
 11256   0103A0  0EBF               	movlw	191
 11257   0103A2  6F80               	movwf	(i1___fldiv@b+3)& (0+255),b
 11258   0103A4  C096  F081         	movff	atanf@x,i1___fldiv@a
 11259   0103A8  C097  F082         	movff	atanf@x+1,i1___fldiv@a+1
 11260   0103AC  C098  F083         	movff	atanf@x+2,i1___fldiv@a+2
 11261   0103B0  C099  F084         	movff	atanf@x+3,i1___fldiv@a+3
 11262   0103B4  ECFC  F096         	call	i1___fldiv	;wreg free
 11263   0103B8  C07D  F096         	movff	?i1___fldiv,atanf@x
 11264   0103BC  C07E  F097         	movff	?i1___fldiv+1,atanf@x+1
 11265   0103C0  C07F  F098         	movff	?i1___fldiv+2,atanf@x+2
 11266   0103C4  C080  F099         	movff	?i1___fldiv+3,atanf@x+3
 11267   0103C8                     i1l8649:
 11268   0103C8  C096  F025         	movff	atanf@x,i1___flmul@b
 11269   0103CC  C097  F026         	movff	atanf@x+1,i1___flmul@b+1
 11270   0103D0  C098  F027         	movff	atanf@x+2,i1___flmul@b+2
 11271   0103D4  C099  F028         	movff	atanf@x+3,i1___flmul@b+3
 11272   0103D8  C096  F029         	movff	atanf@x,i1___flmul@a
 11273   0103DC  C097  F02A         	movff	atanf@x+1,i1___flmul@a+1
 11274   0103E0  C098  F02B         	movff	atanf@x+2,i1___flmul@a+2
 11275   0103E4  C099  F02C         	movff	atanf@x+3,i1___flmul@a+3
 11276   0103E8  EC1F  F091         	call	i1___flmul	;wreg free
 11277   0103EC  C025  F122         	movff	?i1___flmul,atanf@z
 11278   0103F0  C026  F123         	movff	?i1___flmul+1,atanf@z+1
 11279   0103F4  C027  F124         	movff	?i1___flmul+2,atanf@z+2
 11280   0103F8  C028  F125         	movff	?i1___flmul+3,atanf@z+3
 11281   0103FC  C122  F025         	movff	atanf@z,i1___flmul@b
 11282   010400  C123  F026         	movff	atanf@z+1,i1___flmul@b+1
 11283   010404  C124  F027         	movff	atanf@z+2,i1___flmul@b+2
 11284   010408  C125  F028         	movff	atanf@z+3,i1___flmul@b+3
 11285   01040C  C122  F029         	movff	atanf@z,i1___flmul@a
 11286   010410  C123  F02A         	movff	atanf@z+1,i1___flmul@a+1
 11287   010414  C124  F02B         	movff	atanf@z+2,i1___flmul@a+2
 11288   010418  C125  F02C         	movff	atanf@z+3,i1___flmul@a+3
 11289   01041C  EC1F  F091         	call	i1___flmul	;wreg free
 11290   010420  C025  F11D         	movff	?i1___flmul,atanf@w
 11291   010424  C026  F11E         	movff	?i1___flmul+1,atanf@w+1
 11292   010428  C027  F11F         	movff	?i1___flmul+2,atanf@w+2
 11293   01042C  C028  F120         	movff	?i1___flmul+3,atanf@w+3
 11294   010430  0E0D               	movlw	13
 11295   010432  0100               	movlb	0	; () banked
 11296   010434  6F71               	movwf	i1___fladd@a& (0+255),b
 11297   010436  0EF5               	movlw	245
 11298   010438  6F72               	movwf	(i1___fladd@a+1)& (0+255),b
 11299   01043A  0E11               	movlw	17
 11300   01043C  6F73               	movwf	(i1___fladd@a+2)& (0+255),b
 11301   01043E  0E3E               	movlw	62
 11302   010440  6F74               	movwf	(i1___fladd@a+3)& (0+255),b
 11303   010442  0E25               	movlw	37
 11304   010444  6E29               	movwf	i1___flmul@a^0,c
 11305   010446  0EAC               	movlw	172
 11306   010448  6E2A               	movwf	(i1___flmul@a+1)^0,c
 11307   01044A  0E7C               	movlw	124
 11308   01044C  6E2B               	movwf	(i1___flmul@a+2)^0,c
 11309   01044E  0E3D               	movlw	61
 11310   010450  6E2C               	movwf	(i1___flmul@a+3)^0,c
 11311   010452  C11D  F025         	movff	atanf@w,i1___flmul@b
 11312   010456  C11E  F026         	movff	atanf@w+1,i1___flmul@b+1
 11313   01045A  C11F  F027         	movff	atanf@w+2,i1___flmul@b+2
 11314   01045E  C120  F028         	movff	atanf@w+3,i1___flmul@b+3
 11315   010462  EC1F  F091         	call	i1___flmul	;wreg free
 11316   010466  C025  F06D         	movff	?i1___flmul,i1___fladd@b
 11317   01046A  C026  F06E         	movff	?i1___flmul+1,i1___fladd@b+1
 11318   01046E  C027  F06F         	movff	?i1___flmul+2,i1___fladd@b+2
 11319   010472  C028  F070         	movff	?i1___flmul+3,i1___fladd@b+3
 11320   010476  ECA8  F08C         	call	i1___fladd	;wreg free
 11321   01047A  C06D  F114         	movff	?i1___fladd,_atanf$2669
 11322   01047E  C06E  F115         	movff	?i1___fladd+1,_atanf$2669+1
 11323   010482  C06F  F116         	movff	?i1___fladd+2,_atanf$2669+2
 11324   010486  C070  F117         	movff	?i1___fladd+3,_atanf$2669+3
 11325   01048A  0EA9               	movlw	169
 11326   01048C  0100               	movlb	0	; () banked
 11327   01048E  6F71               	movwf	i1___fladd@a& (0+255),b
 11328   010490  0EAA               	movlw	170
 11329   010492  6F72               	movwf	(i1___fladd@a+1)& (0+255),b
 11330   010494  0EAA               	movlw	170
 11331   010496  6F73               	movwf	(i1___fladd@a+2)& (0+255),b
 11332   010498  0E3E               	movlw	62
 11333   01049A  6F74               	movwf	(i1___fladd@a+3)& (0+255),b
 11334   01049C  C11D  F029         	movff	atanf@w,i1___flmul@a
 11335   0104A0  C11E  F02A         	movff	atanf@w+1,i1___flmul@a+1
 11336   0104A4  C11F  F02B         	movff	atanf@w+2,i1___flmul@a+2
 11337   0104A8  C120  F02C         	movff	atanf@w+3,i1___flmul@a+3
 11338   0104AC  C114  F025         	movff	_atanf$2669,i1___flmul@b
 11339   0104B0  C115  F026         	movff	_atanf$2669+1,i1___flmul@b+1
 11340   0104B4  C116  F027         	movff	_atanf$2669+2,i1___flmul@b+2
 11341   0104B8  C117  F028         	movff	_atanf$2669+3,i1___flmul@b+3
 11342   0104BC  EC1F  F091         	call	i1___flmul	;wreg free
 11343   0104C0  C025  F06D         	movff	?i1___flmul,i1___fladd@b
 11344   0104C4  C026  F06E         	movff	?i1___flmul+1,i1___fladd@b+1
 11345   0104C8  C027  F06F         	movff	?i1___flmul+2,i1___fladd@b+2
 11346   0104CC  C028  F070         	movff	?i1___flmul+3,i1___fladd@b+3
 11347   0104D0  ECA8  F08C         	call	i1___fladd	;wreg free
 11348   0104D4  C06D  F100         	movff	?i1___fladd,_atanf$2670
 11349   0104D8  C06E  F101         	movff	?i1___fladd+1,_atanf$2670+1
 11350   0104DC  C06F  F102         	movff	?i1___fladd+2,_atanf$2670+2
 11351   0104E0  C070  F103         	movff	?i1___fladd+3,_atanf$2670+3
 11352   0104E4  C100  F025         	movff	_atanf$2670,i1___flmul@b
 11353   0104E8  C101  F026         	movff	_atanf$2670+1,i1___flmul@b+1
 11354   0104EC  C102  F027         	movff	_atanf$2670+2,i1___flmul@b+2
 11355   0104F0  C103  F028         	movff	_atanf$2670+3,i1___flmul@b+3
 11356   0104F4  C122  F029         	movff	atanf@z,i1___flmul@a
 11357   0104F8  C123  F02A         	movff	atanf@z+1,i1___flmul@a+1
 11358   0104FC  C124  F02B         	movff	atanf@z+2,i1___flmul@a+2
 11359   010500  C125  F02C         	movff	atanf@z+3,i1___flmul@a+3
 11360   010504  EC1F  F091         	call	i1___flmul	;wreg free
 11361   010508  C025  F10C         	movff	?i1___flmul,atanf@s1
 11362   01050C  C026  F10D         	movff	?i1___flmul+1,atanf@s1+1
 11363   010510  C027  F10E         	movff	?i1___flmul+2,atanf@s1+2
 11364   010514  C028  F10F         	movff	?i1___flmul+3,atanf@s1+3
 11365   010518  0E98               	movlw	152
 11366   01051A  0100               	movlb	0	; () banked
 11367   01051C  6F71               	movwf	i1___fladd@a& (0+255),b
 11368   01051E  0ECA               	movlw	202
 11369   010520  6F72               	movwf	(i1___fladd@a+1)& (0+255),b
 11370   010522  0E4C               	movlw	76
 11371   010524  6F73               	movwf	(i1___fladd@a+2)& (0+255),b
 11372   010526  0EBE               	movlw	190
 11373   010528  6F74               	movwf	(i1___fladd@a+3)& (0+255),b
 11374   01052A  0E47               	movlw	71
 11375   01052C  6E29               	movwf	i1___flmul@a^0,c
 11376   01052E  0E12               	movlw	18
 11377   010530  6E2A               	movwf	(i1___flmul@a+1)^0,c
 11378   010532  0EDA               	movlw	218
 11379   010534  6E2B               	movwf	(i1___flmul@a+2)^0,c
 11380   010536  0EBD               	movlw	189
 11381   010538  6E2C               	movwf	(i1___flmul@a+3)^0,c
 11382   01053A  C11D  F025         	movff	atanf@w,i1___flmul@b
 11383   01053E  C11E  F026         	movff	atanf@w+1,i1___flmul@b+1
 11384   010542  C11F  F027         	movff	atanf@w+2,i1___flmul@b+2
 11385   010546  C120  F028         	movff	atanf@w+3,i1___flmul@b+3
 11386   01054A  EC1F  F091         	call	i1___flmul	;wreg free
 11387   01054E  C025  F06D         	movff	?i1___flmul,i1___fladd@b
 11388   010552  C026  F06E         	movff	?i1___flmul+1,i1___fladd@b+1
 11389   010556  C027  F06F         	movff	?i1___flmul+2,i1___fladd@b+2
 11390   01055A  C028  F070         	movff	?i1___flmul+3,i1___fladd@b+3
 11391   01055E  ECA8  F08C         	call	i1___fladd	;wreg free
 11392   010562  C06D  F114         	movff	?i1___fladd,_atanf$2669
 11393   010566  C06E  F115         	movff	?i1___fladd+1,_atanf$2669+1
 11394   01056A  C06F  F116         	movff	?i1___fladd+2,_atanf$2669+2
 11395   01056E  C070  F117         	movff	?i1___fladd+3,_atanf$2669+3
 11396   010572  C114  F025         	movff	_atanf$2669,i1___flmul@b
 11397   010576  C115  F026         	movff	_atanf$2669+1,i1___flmul@b+1
 11398   01057A  C116  F027         	movff	_atanf$2669+2,i1___flmul@b+2
 11399   01057E  C117  F028         	movff	_atanf$2669+3,i1___flmul@b+3
 11400   010582  C11D  F029         	movff	atanf@w,i1___flmul@a
 11401   010586  C11E  F02A         	movff	atanf@w+1,i1___flmul@a+1
 11402   01058A  C11F  F02B         	movff	atanf@w+2,i1___flmul@a+2
 11403   01058E  C120  F02C         	movff	atanf@w+3,i1___flmul@a+3
 11404   010592  EC1F  F091         	call	i1___flmul	;wreg free
 11405   010596  C025  F110         	movff	?i1___flmul,atanf@s2
 11406   01059A  C026  F111         	movff	?i1___flmul+1,atanf@s2+1
 11407   01059E  C027  F112         	movff	?i1___flmul+2,atanf@s2+2
 11408   0105A2  C028  F113         	movff	?i1___flmul+3,atanf@s2+3
 11409   0105A6  0101               	movlb	1	; () banked
 11410   0105A8  BF21               	btfsc	atanf@id& (0+255),7,b
 11411   0105AA  EFDB  F082         	goto	i1u1019_20
 11412   0105AE  EFD9  F082         	goto	i1u1019_21
 11413   0105B2                     i1u1019_21:
 11414   0105B2  EF23  F083         	goto	i1l8671
 11415   0105B6                     i1u1019_20:
 11416   0105B6                     
 11417                           ; BSR set to: 1
 11418   0105B6  C096  F029         	movff	atanf@x,i1___flmul@a
 11419   0105BA  C097  F02A         	movff	atanf@x+1,i1___flmul@a+1
 11420   0105BE  C098  F02B         	movff	atanf@x+2,i1___flmul@a+2
 11421   0105C2  C099  F02C         	movff	atanf@x+3,i1___flmul@a+3
 11422   0105C6  C110  F071         	movff	atanf@s2,i1___fladd@a
 11423   0105CA  C111  F072         	movff	atanf@s2+1,i1___fladd@a+1
 11424   0105CE  C112  F073         	movff	atanf@s2+2,i1___fladd@a+2
 11425   0105D2  C113  F074         	movff	atanf@s2+3,i1___fladd@a+3
 11426   0105D6  C10C  F06D         	movff	atanf@s1,i1___fladd@b
 11427   0105DA  C10D  F06E         	movff	atanf@s1+1,i1___fladd@b+1
 11428   0105DE  C10E  F06F         	movff	atanf@s1+2,i1___fladd@b+2
 11429   0105E2  C10F  F070         	movff	atanf@s1+3,i1___fladd@b+3
 11430   0105E6  ECA8  F08C         	call	i1___fladd	;wreg free
 11431   0105EA  C06D  F025         	movff	?i1___fladd,i1___flmul@b
 11432   0105EE  C06E  F026         	movff	?i1___fladd+1,i1___flmul@b+1
 11433   0105F2  C06F  F027         	movff	?i1___fladd+2,i1___flmul@b+2
 11434   0105F6  C070  F028         	movff	?i1___fladd+3,i1___flmul@b+3
 11435   0105FA  EC1F  F091         	call	i1___flmul	;wreg free
 11436   0105FE  C025  F118         	movff	?i1___flmul,_atanf$2671
 11437   010602  C026  F119         	movff	?i1___flmul+1,_atanf$2671+1
 11438   010606  C027  F11A         	movff	?i1___flmul+2,_atanf$2671+2
 11439   01060A  C028  F11B         	movff	?i1___flmul+3,_atanf$2671+3
 11440   01060E  C096  F07D         	movff	atanf@x,i1___flsub@b
 11441   010612  C097  F07E         	movff	atanf@x+1,i1___flsub@b+1
 11442   010616  C098  F07F         	movff	atanf@x+2,i1___flsub@b+2
 11443   01061A  C099  F080         	movff	atanf@x+3,i1___flsub@b+3
 11444   01061E  C118  F081         	movff	_atanf$2671,i1___flsub@a
 11445   010622  C119  F082         	movff	_atanf$2671+1,i1___flsub@a+1
 11446   010626  C11A  F083         	movff	_atanf$2671+2,i1___flsub@a+2
 11447   01062A  C11B  F084         	movff	_atanf$2671+3,i1___flsub@a+3
 11448   01062E  EC95  F0A1         	call	i1___flsub	;wreg free
 11449   010632  C07D  F096         	movff	?i1___flsub,?_atanf
 11450   010636  C07E  F097         	movff	?i1___flsub+1,?_atanf+1
 11451   01063A  C07F  F098         	movff	?i1___flsub+2,?_atanf+2
 11452   01063E  C080  F099         	movff	?i1___flsub+3,?_atanf+3
 11453   010642  EFC8  F083         	goto	i1l1750
 11454   010646                     i1l8671:
 11455                           
 11456                           ; BSR set to: 1
 11457   010646  C096  F029         	movff	atanf@x,i1___flmul@a
 11458   01064A  C097  F02A         	movff	atanf@x+1,i1___flmul@a+1
 11459   01064E  C098  F02B         	movff	atanf@x+2,i1___flmul@a+2
 11460   010652  C099  F02C         	movff	atanf@x+3,i1___flmul@a+3
 11461   010656  C110  F071         	movff	atanf@s2,i1___fladd@a
 11462   01065A  C111  F072         	movff	atanf@s2+1,i1___fladd@a+1
 11463   01065E  C112  F073         	movff	atanf@s2+2,i1___fladd@a+2
 11464   010662  C113  F074         	movff	atanf@s2+3,i1___fladd@a+3
 11465   010666  C10C  F06D         	movff	atanf@s1,i1___fladd@b
 11466   01066A  C10D  F06E         	movff	atanf@s1+1,i1___fladd@b+1
 11467   01066E  C10E  F06F         	movff	atanf@s1+2,i1___fladd@b+2
 11468   010672  C10F  F070         	movff	atanf@s1+3,i1___fladd@b+3
 11469   010676  ECA8  F08C         	call	i1___fladd	;wreg free
 11470   01067A  C06D  F025         	movff	?i1___fladd,i1___flmul@b
 11471   01067E  C06E  F026         	movff	?i1___fladd+1,i1___flmul@b+1
 11472   010682  C06F  F027         	movff	?i1___fladd+2,i1___flmul@b+2
 11473   010686  C070  F028         	movff	?i1___fladd+3,i1___flmul@b+3
 11474   01068A  EC1F  F091         	call	i1___flmul	;wreg free
 11475   01068E  C025  F118         	movff	?i1___flmul,_atanf$2671
 11476   010692  C026  F119         	movff	?i1___flmul+1,_atanf$2671+1
 11477   010696  C027  F11A         	movff	?i1___flmul+2,_atanf$2671+2
 11478   01069A  C028  F11B         	movff	?i1___flmul+3,_atanf$2671+3
 11479   01069E  0101               	movlb	1	; () banked
 11480   0106A0  5121               	movf	atanf@id& (0+255),w,b
 11481   0106A2  0D04               	mullw	4
 11482   0106A4  0E73               	movlw	low _atanlo
 11483   0106A6  24F3               	addwf	243,w,c
 11484   0106A8  6EF6               	movwf	tblptrl,c
 11485   0106AA  0EFE               	movlw	high _atanlo
 11486   0106AC  20F4               	addwfc	244,w,c
 11487   0106AE  6EF7               	movwf	tblptrh,c
 11488   0106B0                     	if	1	;There are 3 active tblptr bytes
 11489   0106B0  6AF8               	clrf	tblptru,c
 11490   0106B2  0E00               	movlw	low (__mediumconst shr (0+16))
 11491   0106B4  22F8               	addwfc	tblptru,f,c
 11492   0106B6                     	endif
 11493   0106B6  0009               	tblrd		*+
 11494   0106B8  CFF5 F081          	movff	tablat,i1___flsub@a
 11495   0106BC  0009               	tblrd		*+
 11496   0106BE  CFF5 F082          	movff	tablat,i1___flsub@a+1
 11497   0106C2  0009               	tblrd		*+
 11498   0106C4  CFF5 F083          	movff	tablat,i1___flsub@a+2
 11499   0106C8  000A               	tblrd		*-
 11500   0106CA  CFF5 F084          	movff	tablat,i1___flsub@a+3
 11501   0106CE  C118  F07D         	movff	_atanf$2671,i1___flsub@b
 11502   0106D2  C119  F07E         	movff	_atanf$2671+1,i1___flsub@b+1
 11503   0106D6  C11A  F07F         	movff	_atanf$2671+2,i1___flsub@b+2
 11504   0106DA  C11B  F080         	movff	_atanf$2671+3,i1___flsub@b+3
 11505   0106DE  EC95  F0A1         	call	i1___flsub	;wreg free
 11506   0106E2  C07D  F104         	movff	?i1___flsub,_atanf$2672
 11507   0106E6  C07E  F105         	movff	?i1___flsub+1,_atanf$2672+1
 11508   0106EA  C07F  F106         	movff	?i1___flsub+2,_atanf$2672+2
 11509   0106EE  C080  F107         	movff	?i1___flsub+3,_atanf$2672+3
 11510   0106F2  C096  F081         	movff	atanf@x,i1___flsub@a
 11511   0106F6  C097  F082         	movff	atanf@x+1,i1___flsub@a+1
 11512   0106FA  C098  F083         	movff	atanf@x+2,i1___flsub@a+2
 11513   0106FE  C099  F084         	movff	atanf@x+3,i1___flsub@a+3
 11514   010702  C104  F07D         	movff	_atanf$2672,i1___flsub@b
 11515   010706  C105  F07E         	movff	_atanf$2672+1,i1___flsub@b+1
 11516   01070A  C106  F07F         	movff	_atanf$2672+2,i1___flsub@b+2
 11517   01070E  C107  F080         	movff	_atanf$2672+3,i1___flsub@b+3
 11518   010712  EC95  F0A1         	call	i1___flsub	;wreg free
 11519   010716  C07D  F108         	movff	?i1___flsub,_atanf$2673
 11520   01071A  C07E  F109         	movff	?i1___flsub+1,_atanf$2673+1
 11521   01071E  C07F  F10A         	movff	?i1___flsub+2,_atanf$2673+2
 11522   010722  C080  F10B         	movff	?i1___flsub+3,_atanf$2673+3
 11523   010726  0101               	movlb	1	; () banked
 11524   010728  5121               	movf	atanf@id& (0+255),w,b
 11525   01072A  0D04               	mullw	4
 11526   01072C  0E83               	movlw	low _atanhi
 11527   01072E  24F3               	addwf	243,w,c
 11528   010730  6EF6               	movwf	tblptrl,c
 11529   010732  0EFE               	movlw	high _atanhi
 11530   010734  20F4               	addwfc	244,w,c
 11531   010736  6EF7               	movwf	tblptrh,c
 11532   010738                     	if	1	;There are 3 active tblptr bytes
 11533   010738  6AF8               	clrf	tblptru,c
 11534   01073A  0E00               	movlw	low (__mediumconst shr (0+16))
 11535   01073C  22F8               	addwfc	tblptru,f,c
 11536   01073E                     	endif
 11537   01073E  0009               	tblrd		*+
 11538   010740  CFF5 F07D          	movff	tablat,i1___flsub@b
 11539   010744  0009               	tblrd		*+
 11540   010746  CFF5 F07E          	movff	tablat,i1___flsub@b+1
 11541   01074A  0009               	tblrd		*+
 11542   01074C  CFF5 F07F          	movff	tablat,i1___flsub@b+2
 11543   010750  000A               	tblrd		*-
 11544   010752  CFF5 F080          	movff	tablat,i1___flsub@b+3
 11545   010756  C108  F081         	movff	_atanf$2673,i1___flsub@a
 11546   01075A  C109  F082         	movff	_atanf$2673+1,i1___flsub@a+1
 11547   01075E  C10A  F083         	movff	_atanf$2673+2,i1___flsub@a+2
 11548   010762  C10B  F084         	movff	_atanf$2673+3,i1___flsub@a+3
 11549   010766  EC95  F0A1         	call	i1___flsub	;wreg free
 11550   01076A  C07D  F122         	movff	?i1___flsub,atanf@z
 11551   01076E  C07E  F123         	movff	?i1___flsub+1,atanf@z+1
 11552   010772  C07F  F124         	movff	?i1___flsub+2,atanf@z+2
 11553   010776  C080  F125         	movff	?i1___flsub+3,atanf@z+3
 11554   01077A  0101               	movlb	1	; () banked
 11555   01077C  511C               	movf	atanf@sign& (0+255),w,b
 11556   01077E  A4D8               	btfss	status,2,c
 11557   010780  EFC4  F083         	goto	i1u1020_21
 11558   010784  EFC6  F083         	goto	i1u1020_20
 11559   010788                     i1u1020_21:
 11560   010788  EF74  F080         	goto	i1l8615
 11561   01078C                     i1u1020_20:
 11562   01078C  EF6A  F080         	goto	i1l8613
 11563   010790                     i1l1750:
 11564   010790  0012               	return		;funcret
 11565   010792                     __end_of_atanf:
 11566                           	callstack 0
 11567                           
 11568 ;; *************** function i1___flsub *****************
 11569 ;; Defined at:
 11570 ;;		line 245 in file "C:\Program Files\Microchip\xc8\v2.46\pic\sources\c99\common\sprcadd.c"
 11571 ;; Parameters:    Size  Location     Type
 11572 ;;  b               4   29[BANK0 ] float 
 11573 ;;  a               4   33[BANK0 ] float 
 11574 ;; Auto vars:     Size  Location     Type
 11575 ;;		None
 11576 ;; Return value:  Size  Location     Type
 11577 ;;                  4   29[BANK0 ] float 
 11578 ;; Registers used:
 11579 ;;		wreg, status,2, status,0, cstack
 11580 ;; Tracked objects:
 11581 ;;		On entry : 0/0
 11582 ;;		On exit  : 0/0
 11583 ;;		Unchanged: 0/0
 11584 ;; Data sizes:     COMRAM   BANK0   BANK1   BANK2   BANK3   BANK4   BANK5   BANK6   BANK7   BANK8   BANK9  BANK10  BANK1
      +1  BANK12  BANK13  BANK14
 11585 ;;      Params:         0       8       0       0       0       0       0       0       0       0       0       0       
      +0       0       0       0
 11586 ;;      Locals:         0       0       0       0       0       0       0       0       0       0       0       0       
      +0       0       0       0
 11587 ;;      Temps:          0       0       0       0       0       0       0       0       0       0       0       0       
      +0       0       0       0
 11588 ;;      Totals:         0       8       0       0       0       0       0       0       0       0       0       0       
      +0       0       0       0
 11589 ;;Total ram usage:        8 bytes
 11590 ;; Hardware stack levels used: 1
 11591 ;; Hardware stack levels required when called: 3
 11592 ;; This function calls:
 11593 ;;		i1___fladd
 11594 ;; This function is called by:
 11595 ;;		_atanf
 11596 ;; This function uses a non-reentrant model
 11597 ;;
 11598                           
 11599                           	psect	text38
 11600   01432A                     __ptext38:
 11601                           	callstack 0
 11602   01432A                     i1___flsub:
 11603                           	callstack 20
 11604   01432A  0E00               	movlw	0
 11605   01432C  0100               	movlb	0	; () banked
 11606   01432E  1B81               	xorwf	i1___flsub@a& (0+255),f,b
 11607   014330  0E00               	movlw	0
 11608   014332  1B82               	xorwf	(i1___flsub@a+1)& (0+255),f,b
 11609   014334  0E00               	movlw	0
 11610   014336  1B83               	xorwf	(i1___flsub@a+2)& (0+255),f,b
 11611   014338  0E80               	movlw	128
 11612   01433A  1B84               	xorwf	(i1___flsub@a+3)& (0+255),f,b
 11613   01433C                     
 11614                           ; BSR set to: 0
 11615   01433C  C07D  F06D         	movff	i1___flsub@b,i1___fladd@b
 11616   014340  C07E  F06E         	movff	i1___flsub@b+1,i1___fladd@b+1
 11617   014344  C07F  F06F         	movff	i1___flsub@b+2,i1___fladd@b+2
 11618   014348  C080  F070         	movff	i1___flsub@b+3,i1___fladd@b+3
 11619   01434C  C081  F071         	movff	i1___flsub@a,i1___fladd@a
 11620   014350  C082  F072         	movff	i1___flsub@a+1,i1___fladd@a+1
 11621   014354  C083  F073         	movff	i1___flsub@a+2,i1___fladd@a+2
 11622   014358  C084  F074         	movff	i1___flsub@a+3,i1___fladd@a+3
 11623   01435C  ECA8  F08C         	call	i1___fladd	;wreg free
 11624   014360  C06D  F07D         	movff	?i1___fladd,?i1___flsub
 11625   014364  C06E  F07E         	movff	?i1___fladd+1,?i1___flsub+1
 11626   014368  C06F  F07F         	movff	?i1___fladd+2,?i1___flsub+2
 11627   01436C  C070  F080         	movff	?i1___fladd+3,?i1___flsub+3
 11628   014370  0012               	return		;funcret
 11629   014372                     __end_ofi1___flsub:
 11630                           	callstack 0
 11631                           
 11632 ;; *************** function i1___fladd *****************
 11633 ;; Defined at:
 11634 ;;		line 10 in file "C:\Program Files\Microchip\xc8\v2.46\pic\sources\c99\common\sprcadd.c"
 11635 ;; Parameters:    Size  Location     Type
 11636 ;;  b               4   13[BANK0 ] float 
 11637 ;;  a               4   17[BANK0 ] float 
 11638 ;; Auto vars:     Size  Location     Type
 11639 ;;  grs             1   28[BANK0 ] unsigned char 
 11640 ;;  bexp            1   27[BANK0 ] unsigned char 
 11641 ;;  aexp            1   26[BANK0 ] unsigned char 
 11642 ;;  signs           1   25[BANK0 ] unsigned char 
 11643 ;; Return value:  Size  Location     Type
 11644 ;;                  4   13[BANK0 ] unsigned char 
 11645 ;; Registers used:
 11646 ;;		wreg, status,2, status,0
 11647 ;; Tracked objects:
 11648 ;;		On entry : 0/0
 11649 ;;		On exit  : 0/0
 11650 ;;		Unchanged: 0/0
 11651 ;; Data sizes:     COMRAM   BANK0   BANK1   BANK2   BANK3   BANK4   BANK5   BANK6   BANK7   BANK8   BANK9  BANK10  BANK1
      +1  BANK12  BANK13  BANK14
 11652 ;;      Params:         0       8       0       0       0       0       0       0       0       0       0       0       
      +0       0       0       0
 11653 ;;      Locals:         0       4       0       0       0       0       0       0       0       0       0       0       
      +0       0       0       0
 11654 ;;      Temps:          0       4       0       0       0       0       0       0       0       0       0       0       
      +0       0       0       0
 11655 ;;      Totals:         0      16       0       0       0       0       0       0       0       0       0       0       
      +0       0       0       0
 11656 ;;Total ram usage:       16 bytes
 11657 ;; Hardware stack levels used: 1
 11658 ;; Hardware stack levels required when called: 2
 11659 ;; This function calls:
 11660 ;;		Nothing
 11661 ;; This function is called by:
 11662 ;;		_myLowIsr
 11663 ;;		_atanf
 11664 ;;		i1___flsub
 11665 ;; This function uses a non-reentrant model
 11666 ;;
 11667                           
 11668                           	psect	text39
 11669   011950                     __ptext39:
 11670                           	callstack 0
 11671   011950                     i1___fladd:
 11672                           	callstack 22
 11673   011950  0100               	movlb	0	; () banked
 11674   011952  5170               	movf	(i1___fladd@b+3)& (0+255),w,b
 11675   011954  0B80               	andlw	128
 11676   011956  6F79               	movwf	i1___fladd@signs& (0+255),b
 11677   011958  5170               	movf	(i1___fladd@b+3)& (0+255),w,b
 11678   01195A  2570               	addwf	(i1___fladd@b+3)& (0+255),w,b
 11679   01195C  6F7B               	movwf	i1___fladd@bexp& (0+255),b
 11680   01195E                     
 11681                           ; BSR set to: 0
 11682   01195E  AF6F               	btfss	(i1___fladd@b+2)& (0+255),7,b
 11683   011960  EFB4  F08C         	goto	i1u920_21
 11684   011964  EFB6  F08C         	goto	i1u920_20
 11685   011968                     i1u920_21:
 11686   011968  EFB7  F08C         	goto	i1l8089
 11687   01196C                     i1u920_20:
 11688   01196C                     
 11689                           ; BSR set to: 0
 11690   01196C  817B               	bsf	i1___fladd@bexp& (0+255),0,b
 11691   01196E                     i1l8089:
 11692                           
 11693                           ; BSR set to: 0
 11694   01196E  517B               	movf	i1___fladd@bexp& (0+255),w,b
 11695   011970  B4D8               	btfsc	status,2,c
 11696   011972  EFBD  F08C         	goto	i1u921_21
 11697   011976  EFBF  F08C         	goto	i1u921_20
 11698   01197A                     i1u921_21:
 11699   01197A  EFD4  F08C         	goto	i1l8099
 11700   01197E                     i1u921_20:
 11701   01197E                     
 11702                           ; BSR set to: 0
 11703   01197E  297B               	incf	i1___fladd@bexp& (0+255),w,b
 11704   011980  A4D8               	btfss	status,2,c
 11705   011982  EFC5  F08C         	goto	i1u922_21
 11706   011986  EFC7  F08C         	goto	i1u922_20
 11707   01198A                     i1u922_21:
 11708   01198A  EFCF  F08C         	goto	i1l8095
 11709   01198E                     i1u922_20:
 11710   01198E                     
 11711                           ; BSR set to: 0
 11712   01198E  0E00               	movlw	0
 11713   011990  6F6D               	movwf	i1___fladd@b& (0+255),b
 11714   011992  0E00               	movlw	0
 11715   011994  6F6E               	movwf	(i1___fladd@b+1)& (0+255),b
 11716   011996  0E00               	movlw	0
 11717   011998  6F6F               	movwf	(i1___fladd@b+2)& (0+255),b
 11718   01199A  0E00               	movlw	0
 11719   01199C  6F70               	movwf	(i1___fladd@b+3)& (0+255),b
 11720   01199E                     i1l8095:
 11721                           
 11722                           ; BSR set to: 0
 11723   01199E  8F6F               	bsf	(i1___fladd@b+2)& (0+255),7,b
 11724   0119A0                     
 11725                           ; BSR set to: 0
 11726   0119A0  0E00               	movlw	0
 11727   0119A2  6F70               	movwf	(i1___fladd@b+3)& (0+255),b
 11728   0119A4  EFDC  F08C         	goto	i1l8101
 11729   0119A8                     i1l8099:
 11730                           
 11731                           ; BSR set to: 0
 11732   0119A8  0E00               	movlw	0
 11733   0119AA  6F6D               	movwf	i1___fladd@b& (0+255),b
 11734   0119AC  0E00               	movlw	0
 11735   0119AE  6F6E               	movwf	(i1___fladd@b+1)& (0+255),b
 11736   0119B0  0E00               	movlw	0
 11737   0119B2  6F6F               	movwf	(i1___fladd@b+2)& (0+255),b
 11738   0119B4  0E00               	movlw	0
 11739   0119B6  6F70               	movwf	(i1___fladd@b+3)& (0+255),b
 11740   0119B8                     i1l8101:
 11741                           
 11742                           ; BSR set to: 0
 11743   0119B8  5174               	movf	(i1___fladd@a+3)& (0+255),w,b
 11744   0119BA  0B80               	andlw	128
 11745   0119BC  6F7A               	movwf	i1___fladd@aexp& (0+255),b
 11746   0119BE                     
 11747                           ; BSR set to: 0
 11748   0119BE  5179               	movf	i1___fladd@signs& (0+255),w,b
 11749   0119C0  197A               	xorwf	i1___fladd@aexp& (0+255),w,b
 11750   0119C2  B4D8               	btfsc	status,2,c
 11751   0119C4  EFE6  F08C         	goto	i1u923_21
 11752   0119C8  EFE8  F08C         	goto	i1u923_20
 11753   0119CC                     i1u923_21:
 11754   0119CC  EFE9  F08C         	goto	i1l8107
 11755   0119D0                     i1u923_20:
 11756   0119D0                     
 11757                           ; BSR set to: 0
 11758   0119D0  8D79               	bsf	i1___fladd@signs& (0+255),6,b
 11759   0119D2                     i1l8107:
 11760                           
 11761                           ; BSR set to: 0
 11762   0119D2  5174               	movf	(i1___fladd@a+3)& (0+255),w,b
 11763   0119D4  2574               	addwf	(i1___fladd@a+3)& (0+255),w,b
 11764   0119D6  6F7A               	movwf	i1___fladd@aexp& (0+255),b
 11765   0119D8                     
 11766                           ; BSR set to: 0
 11767   0119D8  AF73               	btfss	(i1___fladd@a+2)& (0+255),7,b
 11768   0119DA  EFF1  F08C         	goto	i1u924_21
 11769   0119DE  EFF3  F08C         	goto	i1u924_20
 11770   0119E2                     i1u924_21:
 11771   0119E2  EFF4  F08C         	goto	i1l8113
 11772   0119E6                     i1u924_20:
 11773   0119E6                     
 11774                           ; BSR set to: 0
 11775   0119E6  817A               	bsf	i1___fladd@aexp& (0+255),0,b
 11776   0119E8                     i1l8113:
 11777                           
 11778                           ; BSR set to: 0
 11779   0119E8  517A               	movf	i1___fladd@aexp& (0+255),w,b
 11780   0119EA  B4D8               	btfsc	status,2,c
 11781   0119EC  EFFA  F08C         	goto	i1u925_21
 11782   0119F0  EFFC  F08C         	goto	i1u925_20
 11783   0119F4                     i1u925_21:
 11784   0119F4  EF11  F08D         	goto	i1l8123
 11785   0119F8                     i1u925_20:
 11786   0119F8                     
 11787                           ; BSR set to: 0
 11788   0119F8  297A               	incf	i1___fladd@aexp& (0+255),w,b
 11789   0119FA  A4D8               	btfss	status,2,c
 11790   0119FC  EF02  F08D         	goto	i1u926_21
 11791   011A00  EF04  F08D         	goto	i1u926_20
 11792   011A04                     i1u926_21:
 11793   011A04  EF0C  F08D         	goto	i1l8119
 11794   011A08                     i1u926_20:
 11795   011A08                     
 11796                           ; BSR set to: 0
 11797   011A08  0E00               	movlw	0
 11798   011A0A  6F71               	movwf	i1___fladd@a& (0+255),b
 11799   011A0C  0E00               	movlw	0
 11800   011A0E  6F72               	movwf	(i1___fladd@a+1)& (0+255),b
 11801   011A10  0E00               	movlw	0
 11802   011A12  6F73               	movwf	(i1___fladd@a+2)& (0+255),b
 11803   011A14  0E00               	movlw	0
 11804   011A16  6F74               	movwf	(i1___fladd@a+3)& (0+255),b
 11805   011A18                     i1l8119:
 11806                           
 11807                           ; BSR set to: 0
 11808   011A18  8F73               	bsf	(i1___fladd@a+2)& (0+255),7,b
 11809   011A1A                     
 11810                           ; BSR set to: 0
 11811   011A1A  0E00               	movlw	0
 11812   011A1C  6F74               	movwf	(i1___fladd@a+3)& (0+255),b
 11813   011A1E  EF19  F08D         	goto	i1l8125
 11814   011A22                     i1l8123:
 11815                           
 11816                           ; BSR set to: 0
 11817   011A22  0E00               	movlw	0
 11818   011A24  6F71               	movwf	i1___fladd@a& (0+255),b
 11819   011A26  0E00               	movlw	0
 11820   011A28  6F72               	movwf	(i1___fladd@a+1)& (0+255),b
 11821   011A2A  0E00               	movlw	0
 11822   011A2C  6F73               	movwf	(i1___fladd@a+2)& (0+255),b
 11823   011A2E  0E00               	movlw	0
 11824   011A30  6F74               	movwf	(i1___fladd@a+3)& (0+255),b
 11825   011A32                     i1l8125:
 11826                           
 11827                           ; BSR set to: 0
 11828   011A32  517B               	movf	i1___fladd@bexp& (0+255),w,b
 11829   011A34  5D7A               	subwf	i1___fladd@aexp& (0+255),w,b
 11830   011A36  B0D8               	btfsc	status,0,c
 11831   011A38  EF20  F08D         	goto	i1u927_21
 11832   011A3C  EF22  F08D         	goto	i1u927_20
 11833   011A40                     i1u927_21:
 11834   011A40  EF49  F08D         	goto	i1l8161
 11835   011A44                     i1u927_20:
 11836   011A44                     
 11837                           ; BSR set to: 0
 11838   011A44  AD79               	btfss	i1___fladd@signs& (0+255),6,b
 11839   011A46  EF27  F08D         	goto	i1u928_21
 11840   011A4A  EF29  F08D         	goto	i1u928_20
 11841   011A4E                     i1u928_21:
 11842   011A4E  EF2B  F08D         	goto	i1l8131
 11843   011A52                     i1u928_20:
 11844   011A52                     
 11845                           ; BSR set to: 0
 11846   011A52  0E80               	movlw	128
 11847   011A54  1B79               	xorwf	i1___fladd@signs& (0+255),f,b
 11848   011A56                     i1l8131:
 11849                           
 11850                           ; BSR set to: 0
 11851   011A56  C07B  F07C         	movff	i1___fladd@bexp,i1___fladd@grs
 11852   011A5A                     
 11853                           ; BSR set to: 0
 11854   011A5A  C07A  F07B         	movff	i1___fladd@aexp,i1___fladd@bexp
 11855   011A5E                     
 11856                           ; BSR set to: 0
 11857   011A5E  C07C  F07A         	movff	i1___fladd@grs,i1___fladd@aexp
 11858   011A62                     
 11859                           ; BSR set to: 0
 11860   011A62  C06D  F07C         	movff	i1___fladd@b,i1___fladd@grs
 11861   011A66                     
 11862                           ; BSR set to: 0
 11863   011A66  C071  F06D         	movff	i1___fladd@a,i1___fladd@b
 11864   011A6A                     
 11865                           ; BSR set to: 0
 11866   011A6A  C07C  F071         	movff	i1___fladd@grs,i1___fladd@a
 11867   011A6E                     
 11868                           ; BSR set to: 0
 11869   011A6E  C06E  F07C         	movff	i1___fladd@b+1,i1___fladd@grs
 11870   011A72                     
 11871                           ; BSR set to: 0
 11872   011A72  C072  F06E         	movff	i1___fladd@a+1,i1___fladd@b+1
 11873   011A76                     
 11874                           ; BSR set to: 0
 11875   011A76  C07C  F072         	movff	i1___fladd@grs,i1___fladd@a+1
 11876   011A7A                     
 11877                           ; BSR set to: 0
 11878   011A7A  C06F  F07C         	movff	i1___fladd@b+2,i1___fladd@grs
 11879   011A7E                     
 11880                           ; BSR set to: 0
 11881   011A7E  C073  F06F         	movff	i1___fladd@a+2,i1___fladd@b+2
 11882   011A82                     
 11883                           ; BSR set to: 0
 11884   011A82  C07C  F073         	movff	i1___fladd@grs,i1___fladd@a+2
 11885   011A86                     
 11886                           ; BSR set to: 0
 11887   011A86  C070  F07C         	movff	i1___fladd@b+3,i1___fladd@grs
 11888   011A8A                     
 11889                           ; BSR set to: 0
 11890   011A8A  C074  F070         	movff	i1___fladd@a+3,i1___fladd@b+3
 11891   011A8E                     
 11892                           ; BSR set to: 0
 11893   011A8E  C07C  F074         	movff	i1___fladd@grs,i1___fladd@a+3
 11894   011A92                     i1l8161:
 11895                           
 11896                           ; BSR set to: 0
 11897   011A92  0E00               	movlw	0
 11898   011A94  6F7C               	movwf	i1___fladd@grs& (0+255),b
 11899   011A96                     
 11900                           ; BSR set to: 0
 11901   011A96  517B               	movf	i1___fladd@bexp& (0+255),w,b
 11902   011A98  C07A  F075         	movff	i1___fladd@aexp,??i1___fladd
 11903   011A9C  6B76               	clrf	(??i1___fladd+1)& (0+255),b
 11904   011A9E  5F75               	subwf	??i1___fladd& (0+255),f,b
 11905   011AA0  0E00               	movlw	0
 11906   011AA2  5B76               	subwfb	(??i1___fladd+1)& (0+255),f,b
 11907   011AA4  BF76               	btfsc	(??i1___fladd+1)& (0+255),7,b
 11908   011AA6  EF5E  F08D         	goto	i1u929_21
 11909   011AAA  5176               	movf	(??i1___fladd+1)& (0+255),w,b
 11910   011AAC  E109               	bnz	i1u929_20
 11911   011AAE  0E1A               	movlw	26
 11912   011AB0  5D75               	subwf	??i1___fladd& (0+255),w,b
 11913   011AB2  A0D8               	btfss	status,0,c
 11914   011AB4  EF5E  F08D         	goto	i1u929_21
 11915   011AB8  EF60  F08D         	goto	i1u929_20
 11916   011ABC                     i1u929_21:
 11917   011ABC  EF97  F08D         	goto	i1l1578
 11918   011AC0                     i1u929_20:
 11919   011AC0                     
 11920                           ; BSR set to: 0
 11921   011AC0  516D               	movf	i1___fladd@b& (0+255),w,b
 11922   011AC2  116E               	iorwf	(i1___fladd@b+1)& (0+255),w,b
 11923   011AC4  116F               	iorwf	(i1___fladd@b+2)& (0+255),w,b
 11924   011AC6  1170               	iorwf	(i1___fladd@b+3)& (0+255),w,b
 11925   011AC8  A4D8               	btfss	status,2,c
 11926   011ACA  EF69  F08D         	goto	i1u930_21
 11927   011ACE  EF6C  F08D         	goto	i1u930_20
 11928   011AD2                     i1u930_21:
 11929   011AD2  0E01               	movlw	1
 11930   011AD4  EF6D  F08D         	goto	i1u931_20
 11931   011AD8                     i1u930_20:
 11932   011AD8  0E00               	movlw	0
 11933   011ADA                     i1u931_20:
 11934   011ADA  6F7C               	movwf	i1___fladd@grs& (0+255),b
 11935   011ADC                     
 11936                           ; BSR set to: 0
 11937   011ADC  0E00               	movlw	0
 11938   011ADE  6F6D               	movwf	i1___fladd@b& (0+255),b
 11939   011AE0  0E00               	movlw	0
 11940   011AE2  6F6E               	movwf	(i1___fladd@b+1)& (0+255),b
 11941   011AE4  0E00               	movlw	0
 11942   011AE6  6F6F               	movwf	(i1___fladd@b+2)& (0+255),b
 11943   011AE8  0E00               	movlw	0
 11944   011AEA  6F70               	movwf	(i1___fladd@b+3)& (0+255),b
 11945   011AEC                     
 11946                           ; BSR set to: 0
 11947   011AEC  C07A  F07B         	movff	i1___fladd@aexp,i1___fladd@bexp
 11948   011AF0  EFA0  F08D         	goto	i1l1577
 11949   011AF4                     i1l1579:
 11950                           
 11951                           ; BSR set to: 0
 11952   011AF4  A17C               	btfss	i1___fladd@grs& (0+255),0,b
 11953   011AF6  EF7F  F08D         	goto	i1u932_21
 11954   011AFA  EF81  F08D         	goto	i1u932_20
 11955   011AFE                     i1u932_21:
 11956   011AFE  EF87  F08D         	goto	i1l8173
 11957   011B02                     i1u932_20:
 11958   011B02                     
 11959                           ; BSR set to: 0
 11960   011B02  90D8               	bcf	status,0,c
 11961   011B04  317C               	rrcf	i1___fladd@grs& (0+255),w,b
 11962   011B06  0901               	iorlw	1
 11963   011B08  6F7C               	movwf	i1___fladd@grs& (0+255),b
 11964   011B0A  EF89  F08D         	goto	i1l8175
 11965   011B0E                     i1l8173:
 11966                           
 11967                           ; BSR set to: 0
 11968   011B0E  90D8               	bcf	status,0,c
 11969   011B10  337C               	rrcf	i1___fladd@grs& (0+255),f,b
 11970   011B12                     i1l8175:
 11971                           
 11972                           ; BSR set to: 0
 11973   011B12  A16D               	btfss	i1___fladd@b& (0+255),0,b
 11974   011B14  EF8E  F08D         	goto	i1u933_21
 11975   011B18  EF90  F08D         	goto	i1u933_20
 11976   011B1C                     i1u933_21:
 11977   011B1C  EF91  F08D         	goto	i1l8179
 11978   011B20                     i1u933_20:
 11979   011B20                     
 11980                           ; BSR set to: 0
 11981   011B20  8F7C               	bsf	i1___fladd@grs& (0+255),7,b
 11982   011B22                     i1l8179:
 11983                           
 11984                           ; BSR set to: 0
 11985   011B22  3570               	rlcf	(i1___fladd@b+3)& (0+255),w,b
 11986   011B24  3370               	rrcf	(i1___fladd@b+3)& (0+255),f,b
 11987   011B26  336F               	rrcf	(i1___fladd@b+2)& (0+255),f,b
 11988   011B28  336E               	rrcf	(i1___fladd@b+1)& (0+255),f,b
 11989   011B2A  336D               	rrcf	i1___fladd@b& (0+255),f,b
 11990   011B2C                     
 11991                           ; BSR set to: 0
 11992   011B2C  2B7B               	incf	i1___fladd@bexp& (0+255),f,b
 11993   011B2E                     i1l1578:
 11994                           
 11995                           ; BSR set to: 0
 11996   011B2E  517A               	movf	i1___fladd@aexp& (0+255),w,b
 11997   011B30  5D7B               	subwf	i1___fladd@bexp& (0+255),w,b
 11998   011B32  A0D8               	btfss	status,0,c
 11999   011B34  EF9E  F08D         	goto	i1u934_21
 12000   011B38  EFA0  F08D         	goto	i1u934_20
 12001   011B3C                     i1u934_21:
 12002   011B3C  EF7A  F08D         	goto	i1l1579
 12003   011B40                     i1u934_20:
 12004   011B40                     i1l1577:
 12005                           
 12006                           ; BSR set to: 0
 12007   011B40  BD79               	btfsc	i1___fladd@signs& (0+255),6,b
 12008   011B42  EFA5  F08D         	goto	i1u935_21
 12009   011B46  EFA7  F08D         	goto	i1u935_20
 12010   011B4A                     i1u935_21:
 12011   011B4A  EFE7  F08D         	goto	i1l8207
 12012   011B4E                     i1u935_20:
 12013   011B4E                     
 12014                           ; BSR set to: 0
 12015   011B4E  517B               	movf	i1___fladd@bexp& (0+255),w,b
 12016   011B50  A4D8               	btfss	status,2,c
 12017   011B52  EFAD  F08D         	goto	i1u936_21
 12018   011B56  EFAF  F08D         	goto	i1u936_20
 12019   011B5A                     i1u936_21:
 12020   011B5A  EFB9  F08D         	goto	i1l8189
 12021   011B5E                     i1u936_20:
 12022   011B5E                     
 12023                           ; BSR set to: 0
 12024   011B5E  0E00               	movlw	0
 12025   011B60  6F6D               	movwf	?i1___fladd& (0+255),b
 12026   011B62  0E00               	movlw	0
 12027   011B64  6F6E               	movwf	(?i1___fladd+1)& (0+255),b
 12028   011B66  0E00               	movlw	0
 12029   011B68  6F6F               	movwf	(?i1___fladd+2)& (0+255),b
 12030   011B6A  0E00               	movlw	0
 12031   011B6C  6F70               	movwf	(?i1___fladd+3)& (0+255),b
 12032   011B6E  EF08  F08F         	goto	i1l1586
 12033   011B72                     i1l8189:
 12034                           
 12035                           ; BSR set to: 0
 12036   011B72  5171               	movf	i1___fladd@a& (0+255),w,b
 12037   011B74  276D               	addwf	i1___fladd@b& (0+255),f,b
 12038   011B76  5172               	movf	(i1___fladd@a+1)& (0+255),w,b
 12039   011B78  236E               	addwfc	(i1___fladd@b+1)& (0+255),f,b
 12040   011B7A  5173               	movf	(i1___fladd@a+2)& (0+255),w,b
 12041   011B7C  236F               	addwfc	(i1___fladd@b+2)& (0+255),f,b
 12042   011B7E  5174               	movf	(i1___fladd@a+3)& (0+255),w,b
 12043   011B80  2370               	addwfc	(i1___fladd@b+3)& (0+255),f,b
 12044   011B82                     
 12045                           ; BSR set to: 0
 12046   011B82  A170               	btfss	(i1___fladd@b+3)& (0+255),0,b
 12047   011B84  EFC6  F08D         	goto	i1u937_21
 12048   011B88  EFC8  F08D         	goto	i1u937_20
 12049   011B8C                     i1u937_21:
 12050   011B8C  EF74  F08E         	goto	i1l8243
 12051   011B90                     i1u937_20:
 12052   011B90                     
 12053                           ; BSR set to: 0
 12054   011B90  A17C               	btfss	i1___fladd@grs& (0+255),0,b
 12055   011B92  EFCD  F08D         	goto	i1u938_21
 12056   011B96  EFCF  F08D         	goto	i1u938_20
 12057   011B9A                     i1u938_21:
 12058   011B9A  EFD5  F08D         	goto	i1l8197
 12059   011B9E                     i1u938_20:
 12060   011B9E                     
 12061                           ; BSR set to: 0
 12062   011B9E  90D8               	bcf	status,0,c
 12063   011BA0  317C               	rrcf	i1___fladd@grs& (0+255),w,b
 12064   011BA2  0901               	iorlw	1
 12065   011BA4  6F7C               	movwf	i1___fladd@grs& (0+255),b
 12066   011BA6  EFD7  F08D         	goto	i1l8199
 12067   011BAA                     i1l8197:
 12068                           
 12069                           ; BSR set to: 0
 12070   011BAA  90D8               	bcf	status,0,c
 12071   011BAC  337C               	rrcf	i1___fladd@grs& (0+255),f,b
 12072   011BAE                     i1l8199:
 12073                           
 12074                           ; BSR set to: 0
 12075   011BAE  A16D               	btfss	i1___fladd@b& (0+255),0,b
 12076   011BB0  EFDC  F08D         	goto	i1u939_21
 12077   011BB4  EFDE  F08D         	goto	i1u939_20
 12078   011BB8                     i1u939_21:
 12079   011BB8  EFDF  F08D         	goto	i1l8203
 12080   011BBC                     i1u939_20:
 12081   011BBC                     
 12082                           ; BSR set to: 0
 12083   011BBC  8F7C               	bsf	i1___fladd@grs& (0+255),7,b
 12084   011BBE                     i1l8203:
 12085                           
 12086                           ; BSR set to: 0
 12087   011BBE  3570               	rlcf	(i1___fladd@b+3)& (0+255),w,b
 12088   011BC0  3370               	rrcf	(i1___fladd@b+3)& (0+255),f,b
 12089   011BC2  336F               	rrcf	(i1___fladd@b+2)& (0+255),f,b
 12090   011BC4  336E               	rrcf	(i1___fladd@b+1)& (0+255),f,b
 12091   011BC6  336D               	rrcf	i1___fladd@b& (0+255),f,b
 12092   011BC8                     
 12093                           ; BSR set to: 0
 12094   011BC8  2B7B               	incf	i1___fladd@bexp& (0+255),f,b
 12095   011BCA  EF74  F08E         	goto	i1l8243
 12096   011BCE                     i1l8207:
 12097                           
 12098                           ; BSR set to: 0
 12099   011BCE  5171               	movf	i1___fladd@a& (0+255),w,b
 12100   011BD0  5D6D               	subwf	i1___fladd@b& (0+255),w,b
 12101   011BD2  5172               	movf	(i1___fladd@a+1)& (0+255),w,b
 12102   011BD4  596E               	subwfb	(i1___fladd@b+1)& (0+255),w,b
 12103   011BD6  5173               	movf	(i1___fladd@a+2)& (0+255),w,b
 12104   011BD8  596F               	subwfb	(i1___fladd@b+2)& (0+255),w,b
 12105   011BDA  5170               	movf	(i1___fladd@b+3)& (0+255),w,b
 12106   011BDC  0A80               	xorlw	128
 12107   011BDE  6F75               	movwf	??i1___fladd& (0+255),b
 12108   011BE0  5174               	movf	(i1___fladd@a+3)& (0+255),w,b
 12109   011BE2  0A80               	xorlw	128
 12110   011BE4  5975               	subwfb	??i1___fladd& (0+255),w,b
 12111   011BE6  B0D8               	btfsc	status,0,c
 12112   011BE8  EFF8  F08D         	goto	i1u940_21
 12113   011BEC  EFFA  F08D         	goto	i1u940_20
 12114   011BF0                     i1u940_21:
 12115   011BF0  EF25  F08E         	goto	i1l8217
 12116   011BF4                     i1u940_20:
 12117   011BF4                     
 12118                           ; BSR set to: 0
 12119   011BF4  516D               	movf	i1___fladd@b& (0+255),w,b
 12120   011BF6  5D71               	subwf	i1___fladd@a& (0+255),w,b
 12121   011BF8  6F75               	movwf	??i1___fladd& (0+255),b
 12122   011BFA  516E               	movf	(i1___fladd@b+1)& (0+255),w,b
 12123   011BFC  5972               	subwfb	(i1___fladd@a+1)& (0+255),w,b
 12124   011BFE  6F76               	movwf	(??i1___fladd+1)& (0+255),b
 12125   011C00  516F               	movf	(i1___fladd@b+2)& (0+255),w,b
 12126   011C02  5973               	subwfb	(i1___fladd@a+2)& (0+255),w,b
 12127   011C04  6F77               	movwf	(??i1___fladd+2)& (0+255),b
 12128   011C06  5170               	movf	(i1___fladd@b+3)& (0+255),w,b
 12129   011C08  5974               	subwfb	(i1___fladd@a+3)& (0+255),w,b
 12130   011C0A  6F78               	movwf	(??i1___fladd+3)& (0+255),b
 12131   011C0C  0EFF               	movlw	255
 12132   011C0E  2575               	addwf	??i1___fladd& (0+255),w,b
 12133   011C10  6F6D               	movwf	i1___fladd@b& (0+255),b
 12134   011C12  0EFF               	movlw	255
 12135   011C14  2176               	addwfc	(??i1___fladd+1)& (0+255),w,b
 12136   011C16  6F6E               	movwf	(i1___fladd@b+1)& (0+255),b
 12137   011C18  0EFF               	movlw	255
 12138   011C1A  2177               	addwfc	(??i1___fladd+2)& (0+255),w,b
 12139   011C1C  6F6F               	movwf	(i1___fladd@b+2)& (0+255),b
 12140   011C1E  0EFF               	movlw	255
 12141   011C20  2178               	addwfc	(??i1___fladd+3)& (0+255),w,b
 12142   011C22  6F70               	movwf	(i1___fladd@b+3)& (0+255),b
 12143   011C24  0E80               	movlw	128
 12144   011C26  1B79               	xorwf	i1___fladd@signs& (0+255),f,b
 12145   011C28                     
 12146                           ; BSR set to: 0
 12147   011C28  6D7C               	negf	i1___fladd@grs& (0+255),b
 12148   011C2A                     
 12149                           ; BSR set to: 0
 12150   011C2A  517C               	movf	i1___fladd@grs& (0+255),w,b
 12151   011C2C  A4D8               	btfss	status,2,c
 12152   011C2E  EF1B  F08E         	goto	i1u941_21
 12153   011C32  EF1D  F08E         	goto	i1u941_20
 12154   011C36                     i1u941_21:
 12155   011C36  EF2D  F08E         	goto	i1l1594
 12156   011C3A                     i1u941_20:
 12157   011C3A                     
 12158                           ; BSR set to: 0
 12159   011C3A  0E01               	movlw	1
 12160   011C3C  276D               	addwf	i1___fladd@b& (0+255),f,b
 12161   011C3E  0E00               	movlw	0
 12162   011C40  236E               	addwfc	(i1___fladd@b+1)& (0+255),f,b
 12163   011C42  236F               	addwfc	(i1___fladd@b+2)& (0+255),f,b
 12164   011C44  2370               	addwfc	(i1___fladd@b+3)& (0+255),f,b
 12165   011C46  EF2D  F08E         	goto	i1l1594
 12166   011C4A                     i1l8217:
 12167                           
 12168                           ; BSR set to: 0
 12169   011C4A  5171               	movf	i1___fladd@a& (0+255),w,b
 12170   011C4C  5F6D               	subwf	i1___fladd@b& (0+255),f,b
 12171   011C4E  5172               	movf	(i1___fladd@a+1)& (0+255),w,b
 12172   011C50  5B6E               	subwfb	(i1___fladd@b+1)& (0+255),f,b
 12173   011C52  5173               	movf	(i1___fladd@a+2)& (0+255),w,b
 12174   011C54  5B6F               	subwfb	(i1___fladd@b+2)& (0+255),f,b
 12175   011C56  5174               	movf	(i1___fladd@a+3)& (0+255),w,b
 12176   011C58  5B70               	subwfb	(i1___fladd@b+3)& (0+255),f,b
 12177   011C5A                     i1l1594:
 12178                           
 12179                           ; BSR set to: 0
 12180   011C5A  516D               	movf	i1___fladd@b& (0+255),w,b
 12181   011C5C  116E               	iorwf	(i1___fladd@b+1)& (0+255),w,b
 12182   011C5E  116F               	iorwf	(i1___fladd@b+2)& (0+255),w,b
 12183   011C60  1170               	iorwf	(i1___fladd@b+3)& (0+255),w,b
 12184   011C62  A4D8               	btfss	status,2,c
 12185   011C64  EF36  F08E         	goto	i1u942_21
 12186   011C68  EF38  F08E         	goto	i1u942_20
 12187   011C6C                     i1u942_21:
 12188   011C6C  EF6D  F08E         	goto	i1l8241
 12189   011C70                     i1u942_20:
 12190   011C70                     
 12191                           ; BSR set to: 0
 12192   011C70  517C               	movf	i1___fladd@grs& (0+255),w,b
 12193   011C72  A4D8               	btfss	status,2,c
 12194   011C74  EF3E  F08E         	goto	i1u943_21
 12195   011C78  EF40  F08E         	goto	i1u943_20
 12196   011C7C                     i1u943_21:
 12197   011C7C  EF6D  F08E         	goto	i1l8241
 12198   011C80                     i1u943_20:
 12199   011C80                     
 12200                           ; BSR set to: 0
 12201   011C80  0E00               	movlw	0
 12202   011C82  6F6D               	movwf	?i1___fladd& (0+255),b
 12203   011C84  0E00               	movlw	0
 12204   011C86  6F6E               	movwf	(?i1___fladd+1)& (0+255),b
 12205   011C88  0E00               	movlw	0
 12206   011C8A  6F6F               	movwf	(?i1___fladd+2)& (0+255),b
 12207   011C8C  0E00               	movlw	0
 12208   011C8E  6F70               	movwf	(?i1___fladd+3)& (0+255),b
 12209   011C90  EF08  F08F         	goto	i1l1586
 12210   011C94                     i1l8225:
 12211                           
 12212                           ; BSR set to: 0
 12213   011C94  90D8               	bcf	status,0,c
 12214   011C96  376D               	rlcf	i1___fladd@b& (0+255),f,b
 12215   011C98  376E               	rlcf	(i1___fladd@b+1)& (0+255),f,b
 12216   011C9A  376F               	rlcf	(i1___fladd@b+2)& (0+255),f,b
 12217   011C9C  3770               	rlcf	(i1___fladd@b+3)& (0+255),f,b
 12218   011C9E                     
 12219                           ; BSR set to: 0
 12220   011C9E  AF7C               	btfss	i1___fladd@grs& (0+255),7,b
 12221   011CA0  EF54  F08E         	goto	i1u944_21
 12222   011CA4  EF56  F08E         	goto	i1u944_20
 12223   011CA8                     i1u944_21:
 12224   011CA8  EF57  F08E         	goto	i1l8231
 12225   011CAC                     i1u944_20:
 12226   011CAC                     
 12227                           ; BSR set to: 0
 12228   011CAC  816D               	bsf	i1___fladd@b& (0+255),0,b
 12229   011CAE                     i1l8231:
 12230                           
 12231                           ; BSR set to: 0
 12232   011CAE  A17C               	btfss	i1___fladd@grs& (0+255),0,b
 12233   011CB0  EF5C  F08E         	goto	i1u945_21
 12234   011CB4  EF5E  F08E         	goto	i1u945_20
 12235   011CB8                     i1u945_21:
 12236   011CB8  EF62  F08E         	goto	i1l8235
 12237   011CBC                     i1u945_20:
 12238   011CBC                     
 12239                           ; BSR set to: 0
 12240   011CBC  80D8               	bsf	status,0,c
 12241   011CBE  377C               	rlcf	i1___fladd@grs& (0+255),f,b
 12242   011CC0  EF64  F08E         	goto	i1l8237
 12243   011CC4                     i1l8235:
 12244                           
 12245                           ; BSR set to: 0
 12246   011CC4  90D8               	bcf	status,0,c
 12247   011CC6  377C               	rlcf	i1___fladd@grs& (0+255),f,b
 12248   011CC8                     i1l8237:
 12249                           
 12250                           ; BSR set to: 0
 12251   011CC8  517B               	movf	i1___fladd@bexp& (0+255),w,b
 12252   011CCA  B4D8               	btfsc	status,2,c
 12253   011CCC  EF6A  F08E         	goto	i1u946_21
 12254   011CD0  EF6C  F08E         	goto	i1u946_20
 12255   011CD4                     i1u946_21:
 12256   011CD4  EF6D  F08E         	goto	i1l8241
 12257   011CD8                     i1u946_20:
 12258   011CD8                     
 12259                           ; BSR set to: 0
 12260   011CD8  077B               	decf	i1___fladd@bexp& (0+255),f,b
 12261   011CDA                     i1l8241:
 12262                           
 12263                           ; BSR set to: 0
 12264   011CDA  AF6F               	btfss	(i1___fladd@b+2)& (0+255),7,b
 12265   011CDC  EF72  F08E         	goto	i1u947_21
 12266   011CE0  EF74  F08E         	goto	i1u947_20
 12267   011CE4                     i1u947_21:
 12268   011CE4  EF4A  F08E         	goto	i1l8225
 12269   011CE8                     i1u947_20:
 12270   011CE8                     i1l8243:
 12271                           
 12272                           ; BSR set to: 0
 12273   011CE8  0E00               	movlw	0
 12274   011CEA  6F7A               	movwf	i1___fladd@aexp& (0+255),b
 12275   011CEC                     
 12276                           ; BSR set to: 0
 12277   011CEC  AF7C               	btfss	i1___fladd@grs& (0+255),7,b
 12278   011CEE  EF7B  F08E         	goto	i1u948_21
 12279   011CF2  EF7D  F08E         	goto	i1u948_20
 12280   011CF6                     i1u948_21:
 12281   011CF6  EF95  F08E         	goto	i1l1603
 12282   011CFA                     i1u948_20:
 12283   011CFA                     
 12284                           ; BSR set to: 0
 12285   011CFA  C07C  F075         	movff	i1___fladd@grs,??i1___fladd
 12286   011CFE  0E7F               	movlw	127
 12287   011D00  1775               	andwf	??i1___fladd& (0+255),f,b
 12288   011D02  B4D8               	btfsc	status,2,c
 12289   011D04  EF86  F08E         	goto	i1u949_21
 12290   011D08  EF88  F08E         	goto	i1u949_20
 12291   011D0C                     i1u949_21:
 12292   011D0C  EF8C  F08E         	goto	i1l1604
 12293   011D10                     i1u949_20:
 12294   011D10                     i1l8249:
 12295                           
 12296                           ; BSR set to: 0
 12297   011D10  0E01               	movlw	1
 12298   011D12  6F7A               	movwf	i1___fladd@aexp& (0+255),b
 12299   011D14  EF95  F08E         	goto	i1l1603
 12300   011D18                     i1l1604:
 12301                           
 12302                           ; BSR set to: 0
 12303   011D18  A16D               	btfss	i1___fladd@b& (0+255),0,b
 12304   011D1A  EF91  F08E         	goto	i1u950_21
 12305   011D1E  EF93  F08E         	goto	i1u950_20
 12306   011D22                     i1u950_21:
 12307   011D22  EF95  F08E         	goto	i1l1603
 12308   011D26                     i1u950_20:
 12309   011D26  EF88  F08E         	goto	i1l8249
 12310   011D2A                     i1l1603:
 12311                           
 12312                           ; BSR set to: 0
 12313   011D2A  517A               	movf	i1___fladd@aexp& (0+255),w,b
 12314   011D2C  B4D8               	btfsc	status,2,c
 12315   011D2E  EF9B  F08E         	goto	i1u951_21
 12316   011D32  EF9D  F08E         	goto	i1u951_20
 12317   011D36                     i1u951_21:
 12318   011D36  EFC8  F08E         	goto	i1l8261
 12319   011D3A                     i1u951_20:
 12320   011D3A                     
 12321                           ; BSR set to: 0
 12322   011D3A  0E01               	movlw	1
 12323   011D3C  276D               	addwf	i1___fladd@b& (0+255),f,b
 12324   011D3E  0E00               	movlw	0
 12325   011D40  236E               	addwfc	(i1___fladd@b+1)& (0+255),f,b
 12326   011D42  236F               	addwfc	(i1___fladd@b+2)& (0+255),f,b
 12327   011D44  2370               	addwfc	(i1___fladd@b+3)& (0+255),f,b
 12328   011D46                     
 12329                           ; BSR set to: 0
 12330   011D46  A170               	btfss	(i1___fladd@b+3)& (0+255),0,b
 12331   011D48  EFA8  F08E         	goto	i1u952_21
 12332   011D4C  EFAA  F08E         	goto	i1u952_20
 12333   011D50                     i1u952_21:
 12334   011D50  EFC8  F08E         	goto	i1l8261
 12335   011D54                     i1u952_20:
 12336   011D54                     
 12337                           ; BSR set to: 0
 12338   011D54  C06D  F075         	movff	i1___fladd@b,??i1___fladd
 12339   011D58  C06E  F076         	movff	i1___fladd@b+1,??i1___fladd+1
 12340   011D5C  C06F  F077         	movff	i1___fladd@b+2,??i1___fladd+2
 12341   011D60  C070  F078         	movff	i1___fladd@b+3,??i1___fladd+3
 12342   011D64  3578               	rlcf	(??i1___fladd+3)& (0+255),w,b
 12343   011D66  3378               	rrcf	(??i1___fladd+3)& (0+255),f,b
 12344   011D68  3377               	rrcf	(??i1___fladd+2)& (0+255),f,b
 12345   011D6A  3376               	rrcf	(??i1___fladd+1)& (0+255),f,b
 12346   011D6C  3375               	rrcf	??i1___fladd& (0+255),f,b
 12347   011D6E  C075  F06D         	movff	??i1___fladd,i1___fladd@b
 12348   011D72  C076  F06E         	movff	??i1___fladd+1,i1___fladd@b+1
 12349   011D76  C077  F06F         	movff	??i1___fladd+2,i1___fladd@b+2
 12350   011D7A  C078  F070         	movff	??i1___fladd+3,i1___fladd@b+3
 12351   011D7E  297B               	incf	i1___fladd@bexp& (0+255),w,b
 12352   011D80  B4D8               	btfsc	status,2,c
 12353   011D82  EFC5  F08E         	goto	i1u953_21
 12354   011D86  EFC7  F08E         	goto	i1u953_20
 12355   011D8A                     i1u953_21:
 12356   011D8A  EFC8  F08E         	goto	i1l8261
 12357   011D8E                     i1u953_20:
 12358   011D8E                     
 12359                           ; BSR set to: 0
 12360   011D8E  2B7B               	incf	i1___fladd@bexp& (0+255),f,b
 12361   011D90                     i1l8261:
 12362                           
 12363                           ; BSR set to: 0
 12364   011D90  297B               	incf	i1___fladd@bexp& (0+255),w,b
 12365   011D92  B4D8               	btfsc	status,2,c
 12366   011D94  EFCE  F08E         	goto	i1u954_21
 12367   011D98  EFD0  F08E         	goto	i1u954_20
 12368   011D9C                     i1u954_21:
 12369   011D9C  EFD8  F08E         	goto	i1l8265
 12370   011DA0                     i1u954_20:
 12371   011DA0                     
 12372                           ; BSR set to: 0
 12373   011DA0  517B               	movf	i1___fladd@bexp& (0+255),w,b
 12374   011DA2  A4D8               	btfss	status,2,c
 12375   011DA4  EFD6  F08E         	goto	i1u955_21
 12376   011DA8  EFD8  F08E         	goto	i1u955_20
 12377   011DAC                     i1u955_21:
 12378   011DAC  EFEA  F08E         	goto	i1l8269
 12379   011DB0                     i1u955_20:
 12380   011DB0                     i1l8265:
 12381                           
 12382                           ; BSR set to: 0
 12383   011DB0  0E00               	movlw	0
 12384   011DB2  6F6D               	movwf	i1___fladd@b& (0+255),b
 12385   011DB4  0E00               	movlw	0
 12386   011DB6  6F6E               	movwf	(i1___fladd@b+1)& (0+255),b
 12387   011DB8  0E00               	movlw	0
 12388   011DBA  6F6F               	movwf	(i1___fladd@b+2)& (0+255),b
 12389   011DBC  0E00               	movlw	0
 12390   011DBE  6F70               	movwf	(i1___fladd@b+3)& (0+255),b
 12391   011DC0  517B               	movf	i1___fladd@bexp& (0+255),w,b
 12392   011DC2  A4D8               	btfss	status,2,c
 12393   011DC4  EFE6  F08E         	goto	i1u956_21
 12394   011DC8  EFE8  F08E         	goto	i1u956_20
 12395   011DCC                     i1u956_21:
 12396   011DCC  EFEA  F08E         	goto	i1l8269
 12397   011DD0                     i1u956_20:
 12398   011DD0                     
 12399                           ; BSR set to: 0
 12400   011DD0  0E00               	movlw	0
 12401   011DD2  6F79               	movwf	i1___fladd@signs& (0+255),b
 12402   011DD4                     i1l8269:
 12403                           
 12404                           ; BSR set to: 0
 12405   011DD4  A17B               	btfss	i1___fladd@bexp& (0+255),0,b
 12406   011DD6  EFEF  F08E         	goto	i1u957_21
 12407   011DDA  EFF1  F08E         	goto	i1u957_20
 12408   011DDE                     i1u957_21:
 12409   011DDE  EFF4  F08E         	goto	i1l8273
 12410   011DE2                     i1u957_20:
 12411   011DE2                     
 12412                           ; BSR set to: 0
 12413   011DE2  8F6F               	bsf	(i1___fladd@b+2)& (0+255),7,b
 12414   011DE4  EFF5  F08E         	goto	i1l8275
 12415   011DE8                     i1l8273:
 12416                           
 12417                           ; BSR set to: 0
 12418   011DE8  9F6F               	bcf	(i1___fladd@b+2)& (0+255),7,b
 12419   011DEA                     i1l8275:
 12420                           
 12421                           ; BSR set to: 0
 12422   011DEA  90D8               	bcf	status,0,c
 12423   011DEC  317B               	rrcf	i1___fladd@bexp& (0+255),w,b
 12424   011DEE  6F70               	movwf	(i1___fladd@b+3)& (0+255),b
 12425   011DF0                     
 12426                           ; BSR set to: 0
 12427   011DF0  AF79               	btfss	i1___fladd@signs& (0+255),7,b
 12428   011DF2  EFFD  F08E         	goto	i1u958_21
 12429   011DF6  EFFF  F08E         	goto	i1u958_20
 12430   011DFA                     i1u958_21:
 12431   011DFA  EF00  F08F         	goto	i1l8281
 12432   011DFE                     i1u958_20:
 12433   011DFE                     
 12434                           ; BSR set to: 0
 12435   011DFE  8F70               	bsf	(i1___fladd@b+3)& (0+255),7,b
 12436   011E00                     i1l8281:
 12437                           
 12438                           ; BSR set to: 0
 12439   011E00  C06D  F06D         	movff	i1___fladd@b,?i1___fladd
 12440   011E04  C06E  F06E         	movff	i1___fladd@b+1,?i1___fladd+1
 12441   011E08  C06F  F06F         	movff	i1___fladd@b+2,?i1___fladd+2
 12442   011E0C  C070  F070         	movff	i1___fladd@b+3,?i1___fladd+3
 12443   011E10                     i1l1586:
 12444                           
 12445                           ; BSR set to: 0
 12446   011E10  0012               	return		;funcret
 12447   011E12                     __end_ofi1___fladd:
 12448                           	callstack 0
 12449                           
 12450 ;; *************** function i1___flneg *****************
 12451 ;; Defined at:
 12452 ;;		line 15 in file "C:\Program Files\Microchip\xc8\v2.46\pic\sources\c99\common\flneg.c"
 12453 ;; Parameters:    Size  Location     Type
 12454 ;;  f1              4   22[COMRAM] unsigned char 
 12455 ;; Auto vars:     Size  Location     Type
 12456 ;;		None
 12457 ;; Return value:  Size  Location     Type
 12458 ;;                  4   22[COMRAM] unsigned char 
 12459 ;; Registers used:
 12460 ;;		wreg, status,2, status,0
 12461 ;; Tracked objects:
 12462 ;;		On entry : 0/0
 12463 ;;		On exit  : 0/0
 12464 ;;		Unchanged: 0/0
 12465 ;; Data sizes:     COMRAM   BANK0   BANK1   BANK2   BANK3   BANK4   BANK5   BANK6   BANK7   BANK8   BANK9  BANK10  BANK1
      +1  BANK12  BANK13  BANK14
 12466 ;;      Params:         4       0       0       0       0       0       0       0       0       0       0       0       
      +0       0       0       0
 12467 ;;      Locals:         0       0       0       0       0       0       0       0       0       0       0       0       
      +0       0       0       0
 12468 ;;      Temps:          0       0       0       0       0       0       0       0       0       0       0       0       
      +0       0       0       0
 12469 ;;      Totals:         4       0       0       0       0       0       0       0       0       0       0       0       
      +0       0       0       0
 12470 ;;Total ram usage:        4 bytes
 12471 ;; Hardware stack levels used: 1
 12472 ;; Hardware stack levels required when called: 2
 12473 ;; This function calls:
 12474 ;;		Nothing
 12475 ;; This function is called by:
 12476 ;;		_atanf
 12477 ;; This function uses a non-reentrant model
 12478 ;;
 12479                           
 12480                           	psect	text40
 12481   014474                     __ptext40:
 12482                           	callstack 0
 12483   014474                     i1___flneg:
 12484                           	callstack 21
 12485   014474  5017               	movf	i1___flneg@f1^0,w,c
 12486   014476  1018               	iorwf	(i1___flneg@f1+1)^0,w,c
 12487   014478  1019               	iorwf	(i1___flneg@f1+2)^0,w,c
 12488   01447A  101A               	iorwf	(i1___flneg@f1+3)^0,w,c
 12489   01447C  B4D8               	btfsc	status,2,c
 12490   01447E  EF43  F0A2         	goto	i1u966_21
 12491   014482  EF45  F0A2         	goto	i1u966_20
 12492   014486                     i1u966_21:
 12493   014486  EF4D  F0A2         	goto	i1l8319
 12494   01448A                     i1u966_20:
 12495   01448A  0E00               	movlw	0
 12496   01448C  1A17               	xorwf	i1___flneg@f1^0,f,c
 12497   01448E  0E00               	movlw	0
 12498   014490  1A18               	xorwf	(i1___flneg@f1+1)^0,f,c
 12499   014492  0E00               	movlw	0
 12500   014494  1A19               	xorwf	(i1___flneg@f1+2)^0,f,c
 12501   014496  0E80               	movlw	128
 12502   014498  1A1A               	xorwf	(i1___flneg@f1+3)^0,f,c
 12503   01449A                     i1l8319:
 12504   01449A  C017  F017         	movff	i1___flneg@f1,?i1___flneg
 12505   01449E  C018  F018         	movff	i1___flneg@f1+1,?i1___flneg+1
 12506   0144A2  C019  F019         	movff	i1___flneg@f1+2,?i1___flneg+2
 12507   0144A6  C01A  F01A         	movff	i1___flneg@f1+3,?i1___flneg+3
 12508   0144AA  0012               	return		;funcret
 12509   0144AC                     __end_ofi1___flneg:
 12510                           	callstack 0
 12511                           
 12512 ;; *************** function i1___flmul *****************
 12513 ;; Defined at:
 12514 ;;		line 8 in file "C:\Program Files\Microchip\xc8\v2.46\pic\sources\c99\common\sprcmul.c"
 12515 ;; Parameters:    Size  Location     Type
 12516 ;;  b               4   36[COMRAM] unsigned char 
 12517 ;;  a               4   40[COMRAM] unsigned char 
 12518 ;; Auto vars:     Size  Location     Type
 12519 ;;  prod            4    7[BANK0 ] struct .
 12520 ;;  grs             4    2[BANK0 ] unsigned long 
 12521 ;;  temp            2   11[BANK0 ] struct .
 12522 ;;  bexp            1    6[BANK0 ] unsigned char 
 12523 ;;  aexp            1    1[BANK0 ] unsigned char 
 12524 ;;  sign            1    0[BANK0 ] unsigned char 
 12525 ;; Return value:  Size  Location     Type
 12526 ;;                  4   36[COMRAM] unsigned char 
 12527 ;; Registers used:
 12528 ;;		wreg, status,2, status,0, prodl, prodh
 12529 ;; Tracked objects:
 12530 ;;		On entry : 0/0
 12531 ;;		On exit  : 0/0
 12532 ;;		Unchanged: 0/0
 12533 ;; Data sizes:     COMRAM   BANK0   BANK1   BANK2   BANK3   BANK4   BANK5   BANK6   BANK7   BANK8   BANK9  BANK10  BANK1
      +1  BANK12  BANK13  BANK14
 12534 ;;      Params:         8       0       0       0       0       0       0       0       0       0       0       0       
      +0       0       0       0
 12535 ;;      Locals:         0      13       0       0       0       0       0       0       0       0       0       0       
      +0       0       0       0
 12536 ;;      Temps:          4       0       0       0       0       0       0       0       0       0       0       0       
      +0       0       0       0
 12537 ;;      Totals:        12      13       0       0       0       0       0       0       0       0       0       0       
      +0       0       0       0
 12538 ;;Total ram usage:       25 bytes
 12539 ;; Hardware stack levels used: 1
 12540 ;; Hardware stack levels required when called: 2
 12541 ;; This function calls:
 12542 ;;		Nothing
 12543 ;; This function is called by:
 12544 ;;		_myLowIsr
 12545 ;;		_atanf
 12546 ;; This function uses a non-reentrant model
 12547 ;;
 12548                           
 12549                           	psect	text41
 12550   01223E                     __ptext41:
 12551                           	callstack 0
 12552   01223E                     i1___flmul:
 12553                           	callstack 22
 12554   01223E  5028               	movf	(i1___flmul@b+3)^0,w,c
 12555   012240  0B80               	andlw	128
 12556   012242  0100               	movlb	0	; () banked
 12557   012244  6F60               	movwf	i1___flmul@sign& (0+255),b
 12558   012246  5028               	movf	(i1___flmul@b+3)^0,w,c
 12559   012248  2428               	addwf	(i1___flmul@b+3)^0,w,c
 12560   01224A  6F66               	movwf	i1___flmul@bexp& (0+255),b
 12561   01224C                     
 12562                           ; BSR set to: 0
 12563   01224C  AE27               	btfss	(i1___flmul@b+2)^0,7,c
 12564   01224E  EF2B  F091         	goto	i1u990_21
 12565   012252  EF2D  F091         	goto	i1u990_20
 12566   012256                     i1u990_21:
 12567   012256  EF2E  F091         	goto	i1l8473
 12568   01225A                     i1u990_20:
 12569   01225A                     
 12570                           ; BSR set to: 0
 12571   01225A  8166               	bsf	i1___flmul@bexp& (0+255),0,b
 12572   01225C                     i1l8473:
 12573                           
 12574                           ; BSR set to: 0
 12575   01225C  5166               	movf	i1___flmul@bexp& (0+255),w,b
 12576   01225E  B4D8               	btfsc	status,2,c
 12577   012260  EF34  F091         	goto	i1u991_21
 12578   012264  EF36  F091         	goto	i1u991_20
 12579   012268                     i1u991_21:
 12580   012268  EF49  F091         	goto	i1l8481
 12581   01226C                     i1u991_20:
 12582   01226C                     
 12583                           ; BSR set to: 0
 12584   01226C  2966               	incf	i1___flmul@bexp& (0+255),w,b
 12585   01226E  A4D8               	btfss	status,2,c
 12586   012270  EF3C  F091         	goto	i1u992_21
 12587   012274  EF3E  F091         	goto	i1u992_20
 12588   012278                     i1u992_21:
 12589   012278  EF46  F091         	goto	i1l8479
 12590   01227C                     i1u992_20:
 12591   01227C                     
 12592                           ; BSR set to: 0
 12593   01227C  0E00               	movlw	0
 12594   01227E  6E25               	movwf	i1___flmul@b^0,c
 12595   012280  0E00               	movlw	0
 12596   012282  6E26               	movwf	(i1___flmul@b+1)^0,c
 12597   012284  0E00               	movlw	0
 12598   012286  6E27               	movwf	(i1___flmul@b+2)^0,c
 12599   012288  0E00               	movlw	0
 12600   01228A  6E28               	movwf	(i1___flmul@b+3)^0,c
 12601   01228C                     i1l8479:
 12602                           
 12603                           ; BSR set to: 0
 12604   01228C  8E27               	bsf	(i1___flmul@b+2)^0,7,c
 12605   01228E  EF51  F091         	goto	i1l8483
 12606   012292                     i1l8481:
 12607                           
 12608                           ; BSR set to: 0
 12609   012292  0E00               	movlw	0
 12610   012294  6E25               	movwf	i1___flmul@b^0,c
 12611   012296  0E00               	movlw	0
 12612   012298  6E26               	movwf	(i1___flmul@b+1)^0,c
 12613   01229A  0E00               	movlw	0
 12614   01229C  6E27               	movwf	(i1___flmul@b+2)^0,c
 12615   01229E  0E00               	movlw	0
 12616   0122A0  6E28               	movwf	(i1___flmul@b+3)^0,c
 12617   0122A2                     i1l8483:
 12618                           
 12619                           ; BSR set to: 0
 12620   0122A2  502C               	movf	(i1___flmul@a+3)^0,w,c
 12621   0122A4  0B80               	andlw	128
 12622   0122A6  1B60               	xorwf	i1___flmul@sign& (0+255),f,b
 12623   0122A8                     
 12624                           ; BSR set to: 0
 12625   0122A8  502C               	movf	(i1___flmul@a+3)^0,w,c
 12626   0122AA  242C               	addwf	(i1___flmul@a+3)^0,w,c
 12627   0122AC  6F61               	movwf	i1___flmul@aexp& (0+255),b
 12628   0122AE                     
 12629                           ; BSR set to: 0
 12630   0122AE  AE2B               	btfss	(i1___flmul@a+2)^0,7,c
 12631   0122B0  EF5C  F091         	goto	i1u993_21
 12632   0122B4  EF5E  F091         	goto	i1u993_20
 12633   0122B8                     i1u993_21:
 12634   0122B8  EF5F  F091         	goto	i1l8491
 12635   0122BC                     i1u993_20:
 12636   0122BC                     
 12637                           ; BSR set to: 0
 12638   0122BC  8161               	bsf	i1___flmul@aexp& (0+255),0,b
 12639   0122BE                     i1l8491:
 12640                           
 12641                           ; BSR set to: 0
 12642   0122BE  5161               	movf	i1___flmul@aexp& (0+255),w,b
 12643   0122C0  B4D8               	btfsc	status,2,c
 12644   0122C2  EF65  F091         	goto	i1u994_21
 12645   0122C6  EF67  F091         	goto	i1u994_20
 12646   0122CA                     i1u994_21:
 12647   0122CA  EF7A  F091         	goto	i1l8499
 12648   0122CE                     i1u994_20:
 12649   0122CE                     
 12650                           ; BSR set to: 0
 12651   0122CE  2961               	incf	i1___flmul@aexp& (0+255),w,b
 12652   0122D0  A4D8               	btfss	status,2,c
 12653   0122D2  EF6D  F091         	goto	i1u995_21
 12654   0122D6  EF6F  F091         	goto	i1u995_20
 12655   0122DA                     i1u995_21:
 12656   0122DA  EF77  F091         	goto	i1l8497
 12657   0122DE                     i1u995_20:
 12658   0122DE                     
 12659                           ; BSR set to: 0
 12660   0122DE  0E00               	movlw	0
 12661   0122E0  6E29               	movwf	i1___flmul@a^0,c
 12662   0122E2  0E00               	movlw	0
 12663   0122E4  6E2A               	movwf	(i1___flmul@a+1)^0,c
 12664   0122E6  0E00               	movlw	0
 12665   0122E8  6E2B               	movwf	(i1___flmul@a+2)^0,c
 12666   0122EA  0E00               	movlw	0
 12667   0122EC  6E2C               	movwf	(i1___flmul@a+3)^0,c
 12668   0122EE                     i1l8497:
 12669                           
 12670                           ; BSR set to: 0
 12671   0122EE  8E2B               	bsf	(i1___flmul@a+2)^0,7,c
 12672   0122F0  EF82  F091         	goto	i1l1663
 12673   0122F4                     i1l8499:
 12674                           
 12675                           ; BSR set to: 0
 12676   0122F4  0E00               	movlw	0
 12677   0122F6  6E29               	movwf	i1___flmul@a^0,c
 12678   0122F8  0E00               	movlw	0
 12679   0122FA  6E2A               	movwf	(i1___flmul@a+1)^0,c
 12680   0122FC  0E00               	movlw	0
 12681   0122FE  6E2B               	movwf	(i1___flmul@a+2)^0,c
 12682   012300  0E00               	movlw	0
 12683   012302  6E2C               	movwf	(i1___flmul@a+3)^0,c
 12684   012304                     i1l1663:
 12685                           
 12686                           ; BSR set to: 0
 12687   012304  5161               	movf	i1___flmul@aexp& (0+255),w,b
 12688   012306  B4D8               	btfsc	status,2,c
 12689   012308  EF88  F091         	goto	i1u996_21
 12690   01230C  EF8A  F091         	goto	i1u996_20
 12691   012310                     i1u996_21:
 12692   012310  EF92  F091         	goto	i1l8503
 12693   012314                     i1u996_20:
 12694   012314                     
 12695                           ; BSR set to: 0
 12696   012314  5166               	movf	i1___flmul@bexp& (0+255),w,b
 12697   012316  A4D8               	btfss	status,2,c
 12698   012318  EF90  F091         	goto	i1u997_21
 12699   01231C  EF92  F091         	goto	i1u997_20
 12700   012320                     i1u997_21:
 12701   012320  EF9C  F091         	goto	i1l8507
 12702   012324                     i1u997_20:
 12703   012324                     i1l8503:
 12704                           
 12705                           ; BSR set to: 0
 12706   012324  0E00               	movlw	0
 12707   012326  6E25               	movwf	?i1___flmul^0,c
 12708   012328  0E00               	movlw	0
 12709   01232A  6E26               	movwf	(?i1___flmul+1)^0,c
 12710   01232C  0E00               	movlw	0
 12711   01232E  6E27               	movwf	(?i1___flmul+2)^0,c
 12712   012330  0E00               	movlw	0
 12713   012332  6E28               	movwf	(?i1___flmul+3)^0,c
 12714   012334  EF34  F093         	goto	i1l1667
 12715   012338                     i1l8507:
 12716                           
 12717                           ; BSR set to: 0
 12718   012338  502B               	movf	(i1___flmul@a+2)^0,w,c
 12719   01233A  0225               	mulwf	i1___flmul@b^0,c
 12720   01233C  CFF3 F06B          	movff	prodl,i1___flmul@temp
 12721   012340  CFF4 F06C          	movff	prodh,i1___flmul@temp+1
 12722   012344                     
 12723                           ; BSR set to: 0
 12724   012344  516B               	movf	i1___flmul@temp& (0+255),w,b
 12725   012346  6F62               	movwf	i1___flmul@grs& (0+255),b
 12726   012348  6B63               	clrf	(i1___flmul@grs+1)& (0+255),b
 12727   01234A  6B64               	clrf	(i1___flmul@grs+2)& (0+255),b
 12728   01234C  6B65               	clrf	(i1___flmul@grs+3)& (0+255),b
 12729   01234E                     
 12730                           ; BSR set to: 0
 12731   01234E  516C               	movf	(i1___flmul@temp+1)& (0+255),w,b
 12732   012350  6F67               	movwf	i1___flmul@prod& (0+255),b
 12733   012352  6B68               	clrf	(i1___flmul@prod+1)& (0+255),b
 12734   012354  6B69               	clrf	(i1___flmul@prod+2)& (0+255),b
 12735   012356  6B6A               	clrf	(i1___flmul@prod+3)& (0+255),b
 12736   012358  502A               	movf	(i1___flmul@a+1)^0,w,c
 12737   01235A  0226               	mulwf	(i1___flmul@b+1)^0,c
 12738   01235C  CFF3 F06B          	movff	prodl,i1___flmul@temp
 12739   012360  CFF4 F06C          	movff	prodh,i1___flmul@temp+1
 12740   012364                     
 12741                           ; BSR set to: 0
 12742   012364  516B               	movf	i1___flmul@temp& (0+255),w,b
 12743   012366  2762               	addwf	i1___flmul@grs& (0+255),f,b
 12744   012368  0E00               	movlw	0
 12745   01236A  2363               	addwfc	(i1___flmul@grs+1)& (0+255),f,b
 12746   01236C  2364               	addwfc	(i1___flmul@grs+2)& (0+255),f,b
 12747   01236E  2365               	addwfc	(i1___flmul@grs+3)& (0+255),f,b
 12748   012370                     
 12749                           ; BSR set to: 0
 12750   012370  516C               	movf	(i1___flmul@temp+1)& (0+255),w,b
 12751   012372  2767               	addwf	i1___flmul@prod& (0+255),f,b
 12752   012374  0E00               	movlw	0
 12753   012376  2368               	addwfc	(i1___flmul@prod+1)& (0+255),f,b
 12754   012378  2369               	addwfc	(i1___flmul@prod+2)& (0+255),f,b
 12755   01237A  236A               	addwfc	(i1___flmul@prod+3)& (0+255),f,b
 12756   01237C  5029               	movf	i1___flmul@a^0,w,c
 12757   01237E  0227               	mulwf	(i1___flmul@b+2)^0,c
 12758   012380  CFF3 F06B          	movff	prodl,i1___flmul@temp
 12759   012384  CFF4 F06C          	movff	prodh,i1___flmul@temp+1
 12760   012388                     
 12761                           ; BSR set to: 0
 12762   012388  516B               	movf	i1___flmul@temp& (0+255),w,b
 12763   01238A  2762               	addwf	i1___flmul@grs& (0+255),f,b
 12764   01238C  0E00               	movlw	0
 12765   01238E  2363               	addwfc	(i1___flmul@grs+1)& (0+255),f,b
 12766   012390  2364               	addwfc	(i1___flmul@grs+2)& (0+255),f,b
 12767   012392  2365               	addwfc	(i1___flmul@grs+3)& (0+255),f,b
 12768   012394                     
 12769                           ; BSR set to: 0
 12770   012394  516C               	movf	(i1___flmul@temp+1)& (0+255),w,b
 12771   012396  2767               	addwf	i1___flmul@prod& (0+255),f,b
 12772   012398  0E00               	movlw	0
 12773   01239A  2368               	addwfc	(i1___flmul@prod+1)& (0+255),f,b
 12774   01239C  2369               	addwfc	(i1___flmul@prod+2)& (0+255),f,b
 12775   01239E  236A               	addwfc	(i1___flmul@prod+3)& (0+255),f,b
 12776   0123A0                     
 12777                           ; BSR set to: 0
 12778   0123A0  C064  F065         	movff	i1___flmul@grs+2,i1___flmul@grs+3
 12779   0123A4  C063  F064         	movff	i1___flmul@grs+1,i1___flmul@grs+2
 12780   0123A8  C062  F063         	movff	i1___flmul@grs,i1___flmul@grs+1
 12781   0123AC  6B62               	clrf	i1___flmul@grs& (0+255),b
 12782   0123AE                     
 12783                           ; BSR set to: 0
 12784   0123AE  5029               	movf	i1___flmul@a^0,w,c
 12785   0123B0  0226               	mulwf	(i1___flmul@b+1)^0,c
 12786   0123B2  CFF3 F06B          	movff	prodl,i1___flmul@temp
 12787   0123B6  CFF4 F06C          	movff	prodh,i1___flmul@temp+1
 12788   0123BA                     
 12789                           ; BSR set to: 0
 12790   0123BA  516B               	movf	i1___flmul@temp& (0+255),w,b
 12791   0123BC  2762               	addwf	i1___flmul@grs& (0+255),f,b
 12792   0123BE  516C               	movf	(i1___flmul@temp+1)& (0+255),w,b
 12793   0123C0  2363               	addwfc	(i1___flmul@grs+1)& (0+255),f,b
 12794   0123C2  0E00               	movlw	0
 12795   0123C4  2364               	addwfc	(i1___flmul@grs+2)& (0+255),f,b
 12796   0123C6  0E00               	movlw	0
 12797   0123C8  2365               	addwfc	(i1___flmul@grs+3)& (0+255),f,b
 12798   0123CA                     
 12799                           ; BSR set to: 0
 12800   0123CA  502A               	movf	(i1___flmul@a+1)^0,w,c
 12801   0123CC  0225               	mulwf	i1___flmul@b^0,c
 12802   0123CE  CFF3 F06B          	movff	prodl,i1___flmul@temp
 12803   0123D2  CFF4 F06C          	movff	prodh,i1___flmul@temp+1
 12804   0123D6                     
 12805                           ; BSR set to: 0
 12806   0123D6  516B               	movf	i1___flmul@temp& (0+255),w,b
 12807   0123D8  2762               	addwf	i1___flmul@grs& (0+255),f,b
 12808   0123DA  516C               	movf	(i1___flmul@temp+1)& (0+255),w,b
 12809   0123DC  2363               	addwfc	(i1___flmul@grs+1)& (0+255),f,b
 12810   0123DE  0E00               	movlw	0
 12811   0123E0  2364               	addwfc	(i1___flmul@grs+2)& (0+255),f,b
 12812   0123E2  0E00               	movlw	0
 12813   0123E4  2365               	addwfc	(i1___flmul@grs+3)& (0+255),f,b
 12814   0123E6                     
 12815                           ; BSR set to: 0
 12816   0123E6  C064  F065         	movff	i1___flmul@grs+2,i1___flmul@grs+3
 12817   0123EA  C063  F064         	movff	i1___flmul@grs+1,i1___flmul@grs+2
 12818   0123EE  C062  F063         	movff	i1___flmul@grs,i1___flmul@grs+1
 12819   0123F2  6B62               	clrf	i1___flmul@grs& (0+255),b
 12820   0123F4  5029               	movf	i1___flmul@a^0,w,c
 12821   0123F6  0225               	mulwf	i1___flmul@b^0,c
 12822   0123F8  CFF3 F06B          	movff	prodl,i1___flmul@temp
 12823   0123FC  CFF4 F06C          	movff	prodh,i1___flmul@temp+1
 12824   012400                     
 12825                           ; BSR set to: 0
 12826   012400  516B               	movf	i1___flmul@temp& (0+255),w,b
 12827   012402  2762               	addwf	i1___flmul@grs& (0+255),f,b
 12828   012404  516C               	movf	(i1___flmul@temp+1)& (0+255),w,b
 12829   012406  2363               	addwfc	(i1___flmul@grs+1)& (0+255),f,b
 12830   012408  0E00               	movlw	0
 12831   01240A  2364               	addwfc	(i1___flmul@grs+2)& (0+255),f,b
 12832   01240C  0E00               	movlw	0
 12833   01240E  2365               	addwfc	(i1___flmul@grs+3)& (0+255),f,b
 12834   012410                     
 12835                           ; BSR set to: 0
 12836   012410  502B               	movf	(i1___flmul@a+2)^0,w,c
 12837   012412  0226               	mulwf	(i1___flmul@b+1)^0,c
 12838   012414  CFF3 F06B          	movff	prodl,i1___flmul@temp
 12839   012418  CFF4 F06C          	movff	prodh,i1___flmul@temp+1
 12840   01241C  516B               	movf	i1___flmul@temp& (0+255),w,b
 12841   01241E  2767               	addwf	i1___flmul@prod& (0+255),f,b
 12842   012420  516C               	movf	(i1___flmul@temp+1)& (0+255),w,b
 12843   012422  2368               	addwfc	(i1___flmul@prod+1)& (0+255),f,b
 12844   012424  0E00               	movlw	0
 12845   012426  2369               	addwfc	(i1___flmul@prod+2)& (0+255),f,b
 12846   012428  0E00               	movlw	0
 12847   01242A  236A               	addwfc	(i1___flmul@prod+3)& (0+255),f,b
 12848   01242C                     
 12849                           ; BSR set to: 0
 12850   01242C  502A               	movf	(i1___flmul@a+1)^0,w,c
 12851   01242E  0227               	mulwf	(i1___flmul@b+2)^0,c
 12852   012430  CFF3 F06B          	movff	prodl,i1___flmul@temp
 12853   012434  CFF4 F06C          	movff	prodh,i1___flmul@temp+1
 12854   012438                     
 12855                           ; BSR set to: 0
 12856   012438  516B               	movf	i1___flmul@temp& (0+255),w,b
 12857   01243A  2767               	addwf	i1___flmul@prod& (0+255),f,b
 12858   01243C  516C               	movf	(i1___flmul@temp+1)& (0+255),w,b
 12859   01243E  2368               	addwfc	(i1___flmul@prod+1)& (0+255),f,b
 12860   012440  0E00               	movlw	0
 12861   012442  2369               	addwfc	(i1___flmul@prod+2)& (0+255),f,b
 12862   012444  0E00               	movlw	0
 12863   012446  236A               	addwfc	(i1___flmul@prod+3)& (0+255),f,b
 12864   012448  502B               	movf	(i1___flmul@a+2)^0,w,c
 12865   01244A  0227               	mulwf	(i1___flmul@b+2)^0,c
 12866   01244C  CFF3 F06B          	movff	prodl,i1___flmul@temp
 12867   012450  CFF4 F06C          	movff	prodh,i1___flmul@temp+1
 12868   012454                     
 12869                           ; BSR set to: 0
 12870   012454  516B               	movf	i1___flmul@temp& (0+255),w,b
 12871   012456  6E2D               	movwf	??i1___flmul^0,c
 12872   012458  516C               	movf	(i1___flmul@temp+1)& (0+255),w,b
 12873   01245A  6E2E               	movwf	(??i1___flmul+1)^0,c
 12874   01245C  6A2F               	clrf	(??i1___flmul+2)^0,c
 12875   01245E  6A30               	clrf	(??i1___flmul+3)^0,c
 12876   012460  C02F  F030         	movff	??i1___flmul+2,??i1___flmul+3
 12877   012464  C02E  F02F         	movff	??i1___flmul+1,??i1___flmul+2
 12878   012468  C02D  F02E         	movff	??i1___flmul,??i1___flmul+1
 12879   01246C  6A2D               	clrf	??i1___flmul^0,c
 12880   01246E  502D               	movf	??i1___flmul^0,w,c
 12881   012470  2767               	addwf	i1___flmul@prod& (0+255),f,b
 12882   012472  502E               	movf	(??i1___flmul+1)^0,w,c
 12883   012474  2368               	addwfc	(i1___flmul@prod+1)& (0+255),f,b
 12884   012476  502F               	movf	(??i1___flmul+2)^0,w,c
 12885   012478  2369               	addwfc	(i1___flmul@prod+2)& (0+255),f,b
 12886   01247A  5030               	movf	(??i1___flmul+3)^0,w,c
 12887   01247C  236A               	addwfc	(i1___flmul@prod+3)& (0+255),f,b
 12888   01247E                     
 12889                           ; BSR set to: 0
 12890   01247E  C062  F02D         	movff	i1___flmul@grs,??i1___flmul
 12891   012482  C063  F02E         	movff	i1___flmul@grs+1,??i1___flmul+1
 12892   012486  C064  F02F         	movff	i1___flmul@grs+2,??i1___flmul+2
 12893   01248A  C065  F030         	movff	i1___flmul@grs+3,??i1___flmul+3
 12894   01248E  0E19               	movlw	25
 12895   012490  EF4F  F092         	goto	i1u998_20
 12896   012494                     i1u998_25:
 12897   012494  90D8               	bcf	status,0,c
 12898   012496  3230               	rrcf	(??i1___flmul+3)^0,f,c
 12899   012498  322F               	rrcf	(??i1___flmul+2)^0,f,c
 12900   01249A  322E               	rrcf	(??i1___flmul+1)^0,f,c
 12901   01249C  322D               	rrcf	??i1___flmul^0,f,c
 12902   01249E                     i1u998_20:
 12903   01249E  2EE8               	decfsz	wreg,f,c
 12904   0124A0  EF4A  F092         	goto	i1u998_25
 12905   0124A4  502D               	movf	??i1___flmul^0,w,c
 12906   0124A6  2767               	addwf	i1___flmul@prod& (0+255),f,b
 12907   0124A8  502E               	movf	(??i1___flmul+1)^0,w,c
 12908   0124AA  2368               	addwfc	(i1___flmul@prod+1)& (0+255),f,b
 12909   0124AC  502F               	movf	(??i1___flmul+2)^0,w,c
 12910   0124AE  2369               	addwfc	(i1___flmul@prod+2)& (0+255),f,b
 12911   0124B0  5030               	movf	(??i1___flmul+3)^0,w,c
 12912   0124B2  236A               	addwfc	(i1___flmul@prod+3)& (0+255),f,b
 12913   0124B4                     
 12914                           ; BSR set to: 0
 12915   0124B4  C064  F065         	movff	i1___flmul@grs+2,i1___flmul@grs+3
 12916   0124B8  C063  F064         	movff	i1___flmul@grs+1,i1___flmul@grs+2
 12917   0124BC  C062  F063         	movff	i1___flmul@grs,i1___flmul@grs+1
 12918   0124C0  6B62               	clrf	i1___flmul@grs& (0+255),b
 12919   0124C2                     
 12920                           ; BSR set to: 0
 12921   0124C2  5161               	movf	i1___flmul@aexp& (0+255),w,b
 12922   0124C4  C066  F02D         	movff	i1___flmul@bexp,??i1___flmul
 12923   0124C8  6A2E               	clrf	(??i1___flmul+1)^0,c
 12924   0124CA  262D               	addwf	??i1___flmul^0,f,c
 12925   0124CC  0E00               	movlw	0
 12926   0124CE  222E               	addwfc	(??i1___flmul+1)^0,f,c
 12927   0124D0  0E82               	movlw	130
 12928   0124D2  242D               	addwf	??i1___flmul^0,w,c
 12929   0124D4  6F6B               	movwf	i1___flmul@temp& (0+255),b
 12930   0124D6  0EFF               	movlw	255
 12931   0124D8  202E               	addwfc	(??i1___flmul+1)^0,w,c
 12932   0124DA  6F6C               	movwf	(i1___flmul@temp+1)& (0+255),b
 12933   0124DC  EF85  F092         	goto	i1l8555
 12934   0124E0                     i1l8549:
 12935                           
 12936                           ; BSR set to: 0
 12937   0124E0  90D8               	bcf	status,0,c
 12938   0124E2  3767               	rlcf	i1___flmul@prod& (0+255),f,b
 12939   0124E4  3768               	rlcf	(i1___flmul@prod+1)& (0+255),f,b
 12940   0124E6  3769               	rlcf	(i1___flmul@prod+2)& (0+255),f,b
 12941   0124E8  376A               	rlcf	(i1___flmul@prod+3)& (0+255),f,b
 12942   0124EA                     
 12943                           ; BSR set to: 0
 12944   0124EA  AF65               	btfss	(i1___flmul@grs+3)& (0+255),7,b
 12945   0124EC  EF7A  F092         	goto	i1u999_21
 12946   0124F0  EF7C  F092         	goto	i1u999_20
 12947   0124F4                     i1u999_21:
 12948   0124F4  EF7D  F092         	goto	i1l1670
 12949   0124F8                     i1u999_20:
 12950   0124F8                     
 12951                           ; BSR set to: 0
 12952   0124F8  8167               	bsf	i1___flmul@prod& (0+255),0,b
 12953   0124FA                     i1l1670:
 12954                           
 12955                           ; BSR set to: 0
 12956   0124FA  90D8               	bcf	status,0,c
 12957   0124FC  3762               	rlcf	i1___flmul@grs& (0+255),f,b
 12958   0124FE  3763               	rlcf	(i1___flmul@grs+1)& (0+255),f,b
 12959   012500  3764               	rlcf	(i1___flmul@grs+2)& (0+255),f,b
 12960   012502  3765               	rlcf	(i1___flmul@grs+3)& (0+255),f,b
 12961   012504  076B               	decf	i1___flmul@temp& (0+255),f,b
 12962   012506  A0D8               	btfss	status,0,c
 12963   012508  076C               	decf	(i1___flmul@temp+1)& (0+255),f,b
 12964   01250A                     i1l8555:
 12965                           
 12966                           ; BSR set to: 0
 12967   01250A  AF69               	btfss	(i1___flmul@prod+2)& (0+255),7,b
 12968   01250C  EF8A  F092         	goto	i1u1000_21
 12969   012510  EF8C  F092         	goto	i1u1000_20
 12970   012514                     i1u1000_21:
 12971   012514  EF70  F092         	goto	i1l8549
 12972   012518                     i1u1000_20:
 12973   012518                     
 12974                           ; BSR set to: 0
 12975   012518  0E00               	movlw	0
 12976   01251A  6F61               	movwf	i1___flmul@aexp& (0+255),b
 12977   01251C                     
 12978                           ; BSR set to: 0
 12979   01251C  AF65               	btfss	(i1___flmul@grs+3)& (0+255),7,b
 12980   01251E  EF93  F092         	goto	i1u1001_21
 12981   012522  EF95  F092         	goto	i1u1001_20
 12982   012526                     i1u1001_21:
 12983   012526  EFB9  F092         	goto	i1l1672
 12984   01252A                     i1u1001_20:
 12985   01252A                     
 12986                           ; BSR set to: 0
 12987   01252A  0EFF               	movlw	255
 12988   01252C  1562               	andwf	i1___flmul@grs& (0+255),w,b
 12989   01252E  6E2D               	movwf	??i1___flmul^0,c
 12990   012530  0EFF               	movlw	255
 12991   012532  1563               	andwf	(i1___flmul@grs+1)& (0+255),w,b
 12992   012534  6E2E               	movwf	(??i1___flmul+1)^0,c
 12993   012536  0EFF               	movlw	255
 12994   012538  1564               	andwf	(i1___flmul@grs+2)& (0+255),w,b
 12995   01253A  6E2F               	movwf	(??i1___flmul+2)^0,c
 12996   01253C  0E7F               	movlw	127
 12997   01253E  1565               	andwf	(i1___flmul@grs+3)& (0+255),w,b
 12998   012540  6E30               	movwf	(??i1___flmul+3)^0,c
 12999   012542  502D               	movf	??i1___flmul^0,w,c
 13000   012544  102E               	iorwf	(??i1___flmul+1)^0,w,c
 13001   012546  102F               	iorwf	(??i1___flmul+2)^0,w,c
 13002   012548  1030               	iorwf	(??i1___flmul+3)^0,w,c
 13003   01254A  B4D8               	btfsc	status,2,c
 13004   01254C  EFAA  F092         	goto	i1u1002_21
 13005   012550  EFAC  F092         	goto	i1u1002_20
 13006   012554                     i1u1002_21:
 13007   012554  EFB0  F092         	goto	i1l1673
 13008   012558                     i1u1002_20:
 13009   012558                     i1l8563:
 13010                           
 13011                           ; BSR set to: 0
 13012   012558  0E01               	movlw	1
 13013   01255A  6F61               	movwf	i1___flmul@aexp& (0+255),b
 13014   01255C  EFB9  F092         	goto	i1l1672
 13015   012560                     i1l1673:
 13016                           
 13017                           ; BSR set to: 0
 13018   012560  A167               	btfss	i1___flmul@prod& (0+255),0,b
 13019   012562  EFB5  F092         	goto	i1u1003_21
 13020   012566  EFB7  F092         	goto	i1u1003_20
 13021   01256A                     i1u1003_21:
 13022   01256A  EFB9  F092         	goto	i1l1672
 13023   01256E                     i1u1003_20:
 13024   01256E  EFAC  F092         	goto	i1l8563
 13025   012572                     i1l1672:
 13026                           
 13027                           ; BSR set to: 0
 13028   012572  5161               	movf	i1___flmul@aexp& (0+255),w,b
 13029   012574  B4D8               	btfsc	status,2,c
 13030   012576  EFBF  F092         	goto	i1u1004_21
 13031   01257A  EFC1  F092         	goto	i1u1004_20
 13032   01257E                     i1u1004_21:
 13033   01257E  EFE5  F092         	goto	i1l8575
 13034   012582                     i1u1004_20:
 13035   012582                     
 13036                           ; BSR set to: 0
 13037   012582  0E01               	movlw	1
 13038   012584  2767               	addwf	i1___flmul@prod& (0+255),f,b
 13039   012586  0E00               	movlw	0
 13040   012588  2368               	addwfc	(i1___flmul@prod+1)& (0+255),f,b
 13041   01258A  2369               	addwfc	(i1___flmul@prod+2)& (0+255),f,b
 13042   01258C  236A               	addwfc	(i1___flmul@prod+3)& (0+255),f,b
 13043   01258E                     
 13044                           ; BSR set to: 0
 13045   01258E  A16A               	btfss	(i1___flmul@prod+3)& (0+255),0,b
 13046   012590  EFCC  F092         	goto	i1u1005_21
 13047   012594  EFCE  F092         	goto	i1u1005_20
 13048   012598                     i1u1005_21:
 13049   012598  EFE5  F092         	goto	i1l8575
 13050   01259C                     i1u1005_20:
 13051   01259C                     
 13052                           ; BSR set to: 0
 13053   01259C  C067  F02D         	movff	i1___flmul@prod,??i1___flmul
 13054   0125A0  C068  F02E         	movff	i1___flmul@prod+1,??i1___flmul+1
 13055   0125A4  C069  F02F         	movff	i1___flmul@prod+2,??i1___flmul+2
 13056   0125A8  C06A  F030         	movff	i1___flmul@prod+3,??i1___flmul+3
 13057   0125AC  3430               	rlcf	(??i1___flmul+3)^0,w,c
 13058   0125AE  3230               	rrcf	(??i1___flmul+3)^0,f,c
 13059   0125B0  322F               	rrcf	(??i1___flmul+2)^0,f,c
 13060   0125B2  322E               	rrcf	(??i1___flmul+1)^0,f,c
 13061   0125B4  322D               	rrcf	??i1___flmul^0,f,c
 13062   0125B6  C02D  F067         	movff	??i1___flmul,i1___flmul@prod
 13063   0125BA  C02E  F068         	movff	??i1___flmul+1,i1___flmul@prod+1
 13064   0125BE  C02F  F069         	movff	??i1___flmul+2,i1___flmul@prod+2
 13065   0125C2  C030  F06A         	movff	??i1___flmul+3,i1___flmul@prod+3
 13066   0125C6                     
 13067                           ; BSR set to: 0
 13068   0125C6  4B6B               	infsnz	i1___flmul@temp& (0+255),f,b
 13069   0125C8  2B6C               	incf	(i1___flmul@temp+1)& (0+255),f,b
 13070   0125CA                     i1l8575:
 13071                           
 13072                           ; BSR set to: 0
 13073   0125CA  BF6C               	btfsc	(i1___flmul@temp+1)& (0+255),7,b
 13074   0125CC  EFF0  F092         	goto	i1u1006_21
 13075   0125D0  516C               	movf	(i1___flmul@temp+1)& (0+255),w,b
 13076   0125D2  E108               	bnz	i1u1006_20
 13077   0125D4  296B               	incf	i1___flmul@temp& (0+255),w,b
 13078   0125D6  A0D8               	btfss	status,0,c
 13079   0125D8  EFF0  F092         	goto	i1u1006_21
 13080   0125DC  EFF2  F092         	goto	i1u1006_20
 13081   0125E0                     i1u1006_21:
 13082   0125E0  EFFC  F092         	goto	i1l8579
 13083   0125E4                     i1u1006_20:
 13084   0125E4                     
 13085                           ; BSR set to: 0
 13086   0125E4  0E00               	movlw	0
 13087   0125E6  6F67               	movwf	i1___flmul@prod& (0+255),b
 13088   0125E8  0E00               	movlw	0
 13089   0125EA  6F68               	movwf	(i1___flmul@prod+1)& (0+255),b
 13090   0125EC  0E80               	movlw	128
 13091   0125EE  6F69               	movwf	(i1___flmul@prod+2)& (0+255),b
 13092   0125F0  0E7F               	movlw	127
 13093   0125F2  6F6A               	movwf	(i1___flmul@prod+3)& (0+255),b
 13094   0125F4  EF2A  F093         	goto	i1l8591
 13095   0125F8                     i1l8579:
 13096                           
 13097                           ; BSR set to: 0
 13098   0125F8  BF6C               	btfsc	(i1___flmul@temp+1)& (0+255),7,b
 13099   0125FA  EF09  F093         	goto	i1u1007_20
 13100   0125FE  516C               	movf	(i1___flmul@temp+1)& (0+255),w,b
 13101   012600  E106               	bnz	i1u1007_21
 13102   012602  056B               	decf	i1___flmul@temp& (0+255),w,b
 13103   012604  B0D8               	btfsc	status,0,c
 13104   012606  EF07  F093         	goto	i1u1007_21
 13105   01260A  EF09  F093         	goto	i1u1007_20
 13106   01260E                     i1u1007_21:
 13107   01260E  EF15  F093         	goto	i1l1680
 13108   012612                     i1u1007_20:
 13109   012612                     
 13110                           ; BSR set to: 0
 13111   012612  0E00               	movlw	0
 13112   012614  6F67               	movwf	i1___flmul@prod& (0+255),b
 13113   012616  0E00               	movlw	0
 13114   012618  6F68               	movwf	(i1___flmul@prod+1)& (0+255),b
 13115   01261A  0E00               	movlw	0
 13116   01261C  6F69               	movwf	(i1___flmul@prod+2)& (0+255),b
 13117   01261E  0E00               	movlw	0
 13118   012620  6F6A               	movwf	(i1___flmul@prod+3)& (0+255),b
 13119   012622  0E00               	movlw	0
 13120   012624  6F60               	movwf	i1___flmul@sign& (0+255),b
 13121   012626  EF2A  F093         	goto	i1l8591
 13122   01262A                     i1l1680:
 13123                           
 13124                           ; BSR set to: 0
 13125   01262A  C06B  F066         	movff	i1___flmul@temp,i1___flmul@bexp
 13126   01262E                     
 13127                           ; BSR set to: 0
 13128   01262E  0EFF               	movlw	255
 13129   012630  1767               	andwf	i1___flmul@prod& (0+255),f,b
 13130   012632  0EFF               	movlw	255
 13131   012634  1768               	andwf	(i1___flmul@prod+1)& (0+255),f,b
 13132   012636  0E7F               	movlw	127
 13133   012638  1769               	andwf	(i1___flmul@prod+2)& (0+255),f,b
 13134   01263A  0E00               	movlw	0
 13135   01263C  176A               	andwf	(i1___flmul@prod+3)& (0+255),f,b
 13136   01263E                     
 13137                           ; BSR set to: 0
 13138   01263E  A166               	btfss	i1___flmul@bexp& (0+255),0,b
 13139   012640  EF24  F093         	goto	i1u1008_21
 13140   012644  EF26  F093         	goto	i1u1008_20
 13141   012648                     i1u1008_21:
 13142   012648  EF27  F093         	goto	i1l8589
 13143   01264C                     i1u1008_20:
 13144   01264C                     
 13145                           ; BSR set to: 0
 13146   01264C  8F69               	bsf	(i1___flmul@prod+2)& (0+255),7,b
 13147   01264E                     i1l8589:
 13148                           
 13149                           ; BSR set to: 0
 13150   01264E  90D8               	bcf	status,0,c
 13151   012650  3166               	rrcf	i1___flmul@bexp& (0+255),w,b
 13152   012652  6F6A               	movwf	(i1___flmul@prod+3)& (0+255),b
 13153   012654                     i1l8591:
 13154                           
 13155                           ; BSR set to: 0
 13156   012654  5160               	movf	i1___flmul@sign& (0+255),w,b
 13157   012656  136A               	iorwf	(i1___flmul@prod+3)& (0+255),f,b
 13158   012658                     
 13159                           ; BSR set to: 0
 13160   012658  C067  F025         	movff	i1___flmul@prod,?i1___flmul
 13161   01265C  C068  F026         	movff	i1___flmul@prod+1,?i1___flmul+1
 13162   012660  C069  F027         	movff	i1___flmul@prod+2,?i1___flmul+2
 13163   012664  C06A  F028         	movff	i1___flmul@prod+3,?i1___flmul+3
 13164   012668                     i1l1667:
 13165                           
 13166                           ; BSR set to: 0
 13167   012668  0012               	return		;funcret
 13168   01266A                     __end_ofi1___flmul:
 13169                           	callstack 0
 13170                           
 13171 ;; *************** function i1___fldiv *****************
 13172 ;; Defined at:
 13173 ;;		line 11 in file "C:\Program Files\Microchip\xc8\v2.46\pic\sources\c99\common\sprcdiv.c"
 13174 ;; Parameters:    Size  Location     Type
 13175 ;;  b               4   29[BANK0 ] unsigned char 
 13176 ;;  a               4   33[BANK0 ] unsigned char 
 13177 ;; Auto vars:     Size  Location     Type
 13178 ;;  grs             4   48[BANK0 ] unsigned long 
 13179 ;;  rem             4   41[BANK0 ] unsigned long 
 13180 ;;  new_exp         2   46[BANK0 ] short 
 13181 ;;  aexp            1   53[BANK0 ] unsigned char 
 13182 ;;  bexp            1   52[BANK0 ] unsigned char 
 13183 ;;  sign            1   45[BANK0 ] unsigned char 
 13184 ;; Return value:  Size  Location     Type
 13185 ;;                  4   29[BANK0 ] unsigned char 
 13186 ;; Registers used:
 13187 ;;		wreg, status,2, status,0
 13188 ;; Tracked objects:
 13189 ;;		On entry : 0/0
 13190 ;;		On exit  : 0/0
 13191 ;;		Unchanged: 0/0
 13192 ;; Data sizes:     COMRAM   BANK0   BANK1   BANK2   BANK3   BANK4   BANK5   BANK6   BANK7   BANK8   BANK9  BANK10  BANK1
      +1  BANK12  BANK13  BANK14
 13193 ;;      Params:         0       8       0       0       0       0       0       0       0       0       0       0       
      +0       0       0       0
 13194 ;;      Locals:         0      13       0       0       0       0       0       0       0       0       0       0       
      +0       0       0       0
 13195 ;;      Temps:          0       4       0       0       0       0       0       0       0       0       0       0       
      +0       0       0       0
 13196 ;;      Totals:         0      25       0       0       0       0       0       0       0       0       0       0       
      +0       0       0       0
 13197 ;;Total ram usage:       25 bytes
 13198 ;; Hardware stack levels used: 1
 13199 ;; Hardware stack levels required when called: 2
 13200 ;; This function calls:
 13201 ;;		Nothing
 13202 ;; This function is called by:
 13203 ;;		_myLowIsr
 13204 ;;		_atanf
 13205 ;; This function uses a non-reentrant model
 13206 ;;
 13207                           
 13208                           	psect	text42
 13209   012DF8                     __ptext42:
 13210                           	callstack 0
 13211   012DF8                     i1___fldiv:
 13212                           	callstack 22
 13213   012DF8  0100               	movlb	0	; () banked
 13214   012DFA  5180               	movf	(i1___fldiv@b+3)& (0+255),w,b
 13215   012DFC  0B80               	andlw	128
 13216   012DFE  6F8D               	movwf	i1___fldiv@sign& (0+255),b
 13217   012E00  5180               	movf	(i1___fldiv@b+3)& (0+255),w,b
 13218   012E02  2580               	addwf	(i1___fldiv@b+3)& (0+255),w,b
 13219   012E04  6F94               	movwf	i1___fldiv@bexp& (0+255),b
 13220   012E06                     
 13221                           ; BSR set to: 0
 13222   012E06  AF7F               	btfss	(i1___fldiv@b+2)& (0+255),7,b
 13223   012E08  EF08  F097         	goto	i1u967_21
 13224   012E0C  EF0A  F097         	goto	i1u967_20
 13225   012E10                     i1u967_21:
 13226   012E10  EF0B  F097         	goto	i1l8335
 13227   012E14                     i1u967_20:
 13228   012E14                     
 13229                           ; BSR set to: 0
 13230   012E14  8194               	bsf	i1___fldiv@bexp& (0+255),0,b
 13231   012E16                     i1l8335:
 13232                           
 13233                           ; BSR set to: 0
 13234   012E16  5194               	movf	i1___fldiv@bexp& (0+255),w,b
 13235   012E18  B4D8               	btfsc	status,2,c
 13236   012E1A  EF11  F097         	goto	i1u968_21
 13237   012E1E  EF13  F097         	goto	i1u968_20
 13238   012E22                     i1u968_21:
 13239   012E22  EF28  F097         	goto	i1l8345
 13240   012E26                     i1u968_20:
 13241   012E26                     
 13242                           ; BSR set to: 0
 13243   012E26  2994               	incf	i1___fldiv@bexp& (0+255),w,b
 13244   012E28  A4D8               	btfss	status,2,c
 13245   012E2A  EF19  F097         	goto	i1u969_21
 13246   012E2E  EF1B  F097         	goto	i1u969_20
 13247   012E32                     i1u969_21:
 13248   012E32  EF23  F097         	goto	i1l8341
 13249   012E36                     i1u969_20:
 13250   012E36                     
 13251                           ; BSR set to: 0
 13252   012E36  0E00               	movlw	0
 13253   012E38  6F7D               	movwf	i1___fldiv@b& (0+255),b
 13254   012E3A  0E00               	movlw	0
 13255   012E3C  6F7E               	movwf	(i1___fldiv@b+1)& (0+255),b
 13256   012E3E  0E00               	movlw	0
 13257   012E40  6F7F               	movwf	(i1___fldiv@b+2)& (0+255),b
 13258   012E42  0E00               	movlw	0
 13259   012E44  6F80               	movwf	(i1___fldiv@b+3)& (0+255),b
 13260   012E46                     i1l8341:
 13261                           
 13262                           ; BSR set to: 0
 13263   012E46  8F7F               	bsf	(i1___fldiv@b+2)& (0+255),7,b
 13264   012E48                     
 13265                           ; BSR set to: 0
 13266   012E48  0E00               	movlw	0
 13267   012E4A  6F80               	movwf	(i1___fldiv@b+3)& (0+255),b
 13268   012E4C  EF30  F097         	goto	i1l8347
 13269   012E50                     i1l8345:
 13270                           
 13271                           ; BSR set to: 0
 13272   012E50  0E00               	movlw	0
 13273   012E52  6F7D               	movwf	i1___fldiv@b& (0+255),b
 13274   012E54  0E00               	movlw	0
 13275   012E56  6F7E               	movwf	(i1___fldiv@b+1)& (0+255),b
 13276   012E58  0E00               	movlw	0
 13277   012E5A  6F7F               	movwf	(i1___fldiv@b+2)& (0+255),b
 13278   012E5C  0E00               	movlw	0
 13279   012E5E  6F80               	movwf	(i1___fldiv@b+3)& (0+255),b
 13280   012E60                     i1l8347:
 13281                           
 13282                           ; BSR set to: 0
 13283   012E60  5184               	movf	(i1___fldiv@a+3)& (0+255),w,b
 13284   012E62  0B80               	andlw	128
 13285   012E64  1B8D               	xorwf	i1___fldiv@sign& (0+255),f,b
 13286   012E66                     
 13287                           ; BSR set to: 0
 13288   012E66  5184               	movf	(i1___fldiv@a+3)& (0+255),w,b
 13289   012E68  2584               	addwf	(i1___fldiv@a+3)& (0+255),w,b
 13290   012E6A  6F95               	movwf	i1___fldiv@aexp& (0+255),b
 13291   012E6C                     
 13292                           ; BSR set to: 0
 13293   012E6C  AF83               	btfss	(i1___fldiv@a+2)& (0+255),7,b
 13294   012E6E  EF3B  F097         	goto	i1u970_21
 13295   012E72  EF3D  F097         	goto	i1u970_20
 13296   012E76                     i1u970_21:
 13297   012E76  EF3E  F097         	goto	i1l8355
 13298   012E7A                     i1u970_20:
 13299   012E7A                     
 13300                           ; BSR set to: 0
 13301   012E7A  8195               	bsf	i1___fldiv@aexp& (0+255),0,b
 13302   012E7C                     i1l8355:
 13303                           
 13304                           ; BSR set to: 0
 13305   012E7C  5195               	movf	i1___fldiv@aexp& (0+255),w,b
 13306   012E7E  B4D8               	btfsc	status,2,c
 13307   012E80  EF44  F097         	goto	i1u971_21
 13308   012E84  EF46  F097         	goto	i1u971_20
 13309   012E88                     i1u971_21:
 13310   012E88  EF5B  F097         	goto	i1l8365
 13311   012E8C                     i1u971_20:
 13312   012E8C                     
 13313                           ; BSR set to: 0
 13314   012E8C  2995               	incf	i1___fldiv@aexp& (0+255),w,b
 13315   012E8E  A4D8               	btfss	status,2,c
 13316   012E90  EF4C  F097         	goto	i1u972_21
 13317   012E94  EF4E  F097         	goto	i1u972_20
 13318   012E98                     i1u972_21:
 13319   012E98  EF56  F097         	goto	i1l8361
 13320   012E9C                     i1u972_20:
 13321   012E9C                     
 13322                           ; BSR set to: 0
 13323   012E9C  0E00               	movlw	0
 13324   012E9E  6F81               	movwf	i1___fldiv@a& (0+255),b
 13325   012EA0  0E00               	movlw	0
 13326   012EA2  6F82               	movwf	(i1___fldiv@a+1)& (0+255),b
 13327   012EA4  0E00               	movlw	0
 13328   012EA6  6F83               	movwf	(i1___fldiv@a+2)& (0+255),b
 13329   012EA8  0E00               	movlw	0
 13330   012EAA  6F84               	movwf	(i1___fldiv@a+3)& (0+255),b
 13331   012EAC                     i1l8361:
 13332                           
 13333                           ; BSR set to: 0
 13334   012EAC  8F83               	bsf	(i1___fldiv@a+2)& (0+255),7,b
 13335   012EAE                     
 13336                           ; BSR set to: 0
 13337   012EAE  0E00               	movlw	0
 13338   012EB0  6F84               	movwf	(i1___fldiv@a+3)& (0+255),b
 13339   012EB2  EF63  F097         	goto	i1l8367
 13340   012EB6                     i1l8365:
 13341                           
 13342                           ; BSR set to: 0
 13343   012EB6  0E00               	movlw	0
 13344   012EB8  6F81               	movwf	i1___fldiv@a& (0+255),b
 13345   012EBA  0E00               	movlw	0
 13346   012EBC  6F82               	movwf	(i1___fldiv@a+1)& (0+255),b
 13347   012EBE  0E00               	movlw	0
 13348   012EC0  6F83               	movwf	(i1___fldiv@a+2)& (0+255),b
 13349   012EC2  0E00               	movlw	0
 13350   012EC4  6F84               	movwf	(i1___fldiv@a+3)& (0+255),b
 13351   012EC6                     i1l8367:
 13352                           
 13353                           ; BSR set to: 0
 13354   012EC6  5181               	movf	i1___fldiv@a& (0+255),w,b
 13355   012EC8  1182               	iorwf	(i1___fldiv@a+1)& (0+255),w,b
 13356   012ECA  1183               	iorwf	(i1___fldiv@a+2)& (0+255),w,b
 13357   012ECC  1184               	iorwf	(i1___fldiv@a+3)& (0+255),w,b
 13358   012ECE  A4D8               	btfss	status,2,c
 13359   012ED0  EF6C  F097         	goto	i1u973_21
 13360   012ED4  EF6E  F097         	goto	i1u973_20
 13361   012ED8                     i1u973_21:
 13362   012ED8  EF86  F097         	goto	i1l8379
 13363   012EDC                     i1u973_20:
 13364   012EDC                     
 13365                           ; BSR set to: 0
 13366   012EDC  0E00               	movlw	0
 13367   012EDE  6F7D               	movwf	i1___fldiv@b& (0+255),b
 13368   012EE0  0E00               	movlw	0
 13369   012EE2  6F7E               	movwf	(i1___fldiv@b+1)& (0+255),b
 13370   012EE4  0E00               	movlw	0
 13371   012EE6  6F7F               	movwf	(i1___fldiv@b+2)& (0+255),b
 13372   012EE8  0E00               	movlw	0
 13373   012EEA  6F80               	movwf	(i1___fldiv@b+3)& (0+255),b
 13374   012EEC                     
 13375                           ; BSR set to: 0
 13376   012EEC  0E80               	movlw	128
 13377   012EEE  137F               	iorwf	(i1___fldiv@b+2)& (0+255),f,b
 13378   012EF0  0E7F               	movlw	127
 13379   012EF2  1380               	iorwf	(i1___fldiv@b+3)& (0+255),f,b
 13380   012EF4                     i1l8373:
 13381                           
 13382                           ; BSR set to: 0
 13383   012EF4  518D               	movf	i1___fldiv@sign& (0+255),w,b
 13384   012EF6  1380               	iorwf	(i1___fldiv@b+3)& (0+255),f,b
 13385   012EF8                     
 13386                           ; BSR set to: 0
 13387   012EF8  C07D  F07D         	movff	i1___fldiv@b,?i1___fldiv
 13388   012EFC  C07E  F07E         	movff	i1___fldiv@b+1,?i1___fldiv+1
 13389   012F00  C07F  F07F         	movff	i1___fldiv@b+2,?i1___fldiv+2
 13390   012F04  C080  F080         	movff	i1___fldiv@b+3,?i1___fldiv+3
 13391   012F08  EFC9  F098         	goto	i1l1631
 13392   012F0C                     i1l8379:
 13393                           
 13394                           ; BSR set to: 0
 13395   012F0C  5194               	movf	i1___fldiv@bexp& (0+255),w,b
 13396   012F0E  A4D8               	btfss	status,2,c
 13397   012F10  EF8C  F097         	goto	i1u974_21
 13398   012F14  EF8E  F097         	goto	i1u974_20
 13399   012F18                     i1u974_21:
 13400   012F18  EF98  F097         	goto	i1l8387
 13401   012F1C                     i1u974_20:
 13402   012F1C                     
 13403                           ; BSR set to: 0
 13404   012F1C  0E00               	movlw	0
 13405   012F1E  6F7D               	movwf	?i1___fldiv& (0+255),b
 13406   012F20  0E00               	movlw	0
 13407   012F22  6F7E               	movwf	(?i1___fldiv+1)& (0+255),b
 13408   012F24  0E00               	movlw	0
 13409   012F26  6F7F               	movwf	(?i1___fldiv+2)& (0+255),b
 13410   012F28  0E00               	movlw	0
 13411   012F2A  6F80               	movwf	(?i1___fldiv+3)& (0+255),b
 13412   012F2C  EFC9  F098         	goto	i1l1631
 13413   012F30                     i1l8387:
 13414                           
 13415                           ; BSR set to: 0
 13416   012F30  5195               	movf	i1___fldiv@aexp& (0+255),w,b
 13417   012F32  C094  F085         	movff	i1___fldiv@bexp,??i1___fldiv
 13418   012F36  6B86               	clrf	(??i1___fldiv+1)& (0+255),b
 13419   012F38  5F85               	subwf	??i1___fldiv& (0+255),f,b
 13420   012F3A  0E00               	movlw	0
 13421   012F3C  5B86               	subwfb	(??i1___fldiv+1)& (0+255),f,b
 13422   012F3E  0E7F               	movlw	127
 13423   012F40  2585               	addwf	??i1___fldiv& (0+255),w,b
 13424   012F42  6F8E               	movwf	i1___fldiv@new_exp& (0+255),b
 13425   012F44  0E00               	movlw	0
 13426   012F46  2186               	addwfc	(??i1___fldiv+1)& (0+255),w,b
 13427   012F48  6F8F               	movwf	(i1___fldiv@new_exp+1)& (0+255),b
 13428   012F4A                     
 13429                           ; BSR set to: 0
 13430   012F4A  C07D  F089         	movff	i1___fldiv@b,i1___fldiv@rem
 13431   012F4E  C07E  F08A         	movff	i1___fldiv@b+1,i1___fldiv@rem+1
 13432   012F52  C07F  F08B         	movff	i1___fldiv@b+2,i1___fldiv@rem+2
 13433   012F56  C080  F08C         	movff	i1___fldiv@b+3,i1___fldiv@rem+3
 13434   012F5A                     
 13435                           ; BSR set to: 0
 13436   012F5A  0E00               	movlw	0
 13437   012F5C  6F7D               	movwf	i1___fldiv@b& (0+255),b
 13438   012F5E  0E00               	movlw	0
 13439   012F60  6F7E               	movwf	(i1___fldiv@b+1)& (0+255),b
 13440   012F62  0E00               	movlw	0
 13441   012F64  6F7F               	movwf	(i1___fldiv@b+2)& (0+255),b
 13442   012F66  0E00               	movlw	0
 13443   012F68  6F80               	movwf	(i1___fldiv@b+3)& (0+255),b
 13444   012F6A                     
 13445                           ; BSR set to: 0
 13446   012F6A  0E00               	movlw	0
 13447   012F6C  6F90               	movwf	i1___fldiv@grs& (0+255),b
 13448   012F6E  0E00               	movlw	0
 13449   012F70  6F91               	movwf	(i1___fldiv@grs+1)& (0+255),b
 13450   012F72  0E00               	movlw	0
 13451   012F74  6F92               	movwf	(i1___fldiv@grs+2)& (0+255),b
 13452   012F76  0E00               	movlw	0
 13453   012F78  6F93               	movwf	(i1___fldiv@grs+3)& (0+255),b
 13454   012F7A                     
 13455                           ; BSR set to: 0
 13456   012F7A  0E00               	movlw	0
 13457   012F7C  6F95               	movwf	i1___fldiv@aexp& (0+255),b
 13458   012F7E  EFF9  F097         	goto	i1l1633
 13459   012F82                     i1l8397:
 13460                           
 13461                           ; BSR set to: 0
 13462   012F82  5195               	movf	i1___fldiv@aexp& (0+255),w,b
 13463   012F84  B4D8               	btfsc	status,2,c
 13464   012F86  EFC7  F097         	goto	i1u975_21
 13465   012F8A  EFC9  F097         	goto	i1u975_20
 13466   012F8E                     i1u975_21:
 13467   012F8E  EFE0  F097         	goto	i1l8405
 13468   012F92                     i1u975_20:
 13469   012F92                     
 13470                           ; BSR set to: 0
 13471   012F92  90D8               	bcf	status,0,c
 13472   012F94  3789               	rlcf	i1___fldiv@rem& (0+255),f,b
 13473   012F96  378A               	rlcf	(i1___fldiv@rem+1)& (0+255),f,b
 13474   012F98  378B               	rlcf	(i1___fldiv@rem+2)& (0+255),f,b
 13475   012F9A  378C               	rlcf	(i1___fldiv@rem+3)& (0+255),f,b
 13476   012F9C  90D8               	bcf	status,0,c
 13477   012F9E  377D               	rlcf	i1___fldiv@b& (0+255),f,b
 13478   012FA0  377E               	rlcf	(i1___fldiv@b+1)& (0+255),f,b
 13479   012FA2  377F               	rlcf	(i1___fldiv@b+2)& (0+255),f,b
 13480   012FA4  3780               	rlcf	(i1___fldiv@b+3)& (0+255),f,b
 13481   012FA6                     
 13482                           ; BSR set to: 0
 13483   012FA6  AF93               	btfss	(i1___fldiv@grs+3)& (0+255),7,b
 13484   012FA8  EFD8  F097         	goto	i1u976_21
 13485   012FAC  EFDA  F097         	goto	i1u976_20
 13486   012FB0                     i1u976_21:
 13487   012FB0  EFDB  F097         	goto	i1l1636
 13488   012FB4                     i1u976_20:
 13489   012FB4                     
 13490                           ; BSR set to: 0
 13491   012FB4  817D               	bsf	i1___fldiv@b& (0+255),0,b
 13492   012FB6                     i1l1636:
 13493                           
 13494                           ; BSR set to: 0
 13495   012FB6  90D8               	bcf	status,0,c
 13496   012FB8  3790               	rlcf	i1___fldiv@grs& (0+255),f,b
 13497   012FBA  3791               	rlcf	(i1___fldiv@grs+1)& (0+255),f,b
 13498   012FBC  3792               	rlcf	(i1___fldiv@grs+2)& (0+255),f,b
 13499   012FBE  3793               	rlcf	(i1___fldiv@grs+3)& (0+255),f,b
 13500   012FC0                     i1l8405:
 13501                           
 13502                           ; BSR set to: 0
 13503   012FC0  5181               	movf	i1___fldiv@a& (0+255),w,b
 13504   012FC2  5D89               	subwf	i1___fldiv@rem& (0+255),w,b
 13505   012FC4  5182               	movf	(i1___fldiv@a+1)& (0+255),w,b
 13506   012FC6  598A               	subwfb	(i1___fldiv@rem+1)& (0+255),w,b
 13507   012FC8  5183               	movf	(i1___fldiv@a+2)& (0+255),w,b
 13508   012FCA  598B               	subwfb	(i1___fldiv@rem+2)& (0+255),w,b
 13509   012FCC  5184               	movf	(i1___fldiv@a+3)& (0+255),w,b
 13510   012FCE  598C               	subwfb	(i1___fldiv@rem+3)& (0+255),w,b
 13511   012FD0  A0D8               	btfss	status,0,c
 13512   012FD2  EFED  F097         	goto	i1u977_21
 13513   012FD6  EFEF  F097         	goto	i1u977_20
 13514   012FDA                     i1u977_21:
 13515   012FDA  EFF8  F097         	goto	i1l8411
 13516   012FDE                     i1u977_20:
 13517   012FDE                     
 13518                           ; BSR set to: 0
 13519   012FDE  8D93               	bsf	(i1___fldiv@grs+3)& (0+255),6,b
 13520   012FE0                     
 13521                           ; BSR set to: 0
 13522   012FE0  5181               	movf	i1___fldiv@a& (0+255),w,b
 13523   012FE2  5F89               	subwf	i1___fldiv@rem& (0+255),f,b
 13524   012FE4  5182               	movf	(i1___fldiv@a+1)& (0+255),w,b
 13525   012FE6  5B8A               	subwfb	(i1___fldiv@rem+1)& (0+255),f,b
 13526   012FE8  5183               	movf	(i1___fldiv@a+2)& (0+255),w,b
 13527   012FEA  5B8B               	subwfb	(i1___fldiv@rem+2)& (0+255),f,b
 13528   012FEC  5184               	movf	(i1___fldiv@a+3)& (0+255),w,b
 13529   012FEE  5B8C               	subwfb	(i1___fldiv@rem+3)& (0+255),f,b
 13530   012FF0                     i1l8411:
 13531                           
 13532                           ; BSR set to: 0
 13533   012FF0  2B95               	incf	i1___fldiv@aexp& (0+255),f,b
 13534   012FF2                     i1l1633:
 13535                           
 13536                           ; BSR set to: 0
 13537   012FF2  0E19               	movlw	25
 13538   012FF4  6595               	cpfsgt	i1___fldiv@aexp& (0+255),b
 13539   012FF6  EFFF  F097         	goto	i1u978_21
 13540   012FFA  EF01  F098         	goto	i1u978_20
 13541   012FFE                     i1u978_21:
 13542   012FFE  EFC1  F097         	goto	i1l8397
 13543   013002                     i1u978_20:
 13544   013002                     
 13545                           ; BSR set to: 0
 13546   013002  5189               	movf	i1___fldiv@rem& (0+255),w,b
 13547   013004  118A               	iorwf	(i1___fldiv@rem+1)& (0+255),w,b
 13548   013006  118B               	iorwf	(i1___fldiv@rem+2)& (0+255),w,b
 13549   013008  118C               	iorwf	(i1___fldiv@rem+3)& (0+255),w,b
 13550   01300A  B4D8               	btfsc	status,2,c
 13551   01300C  EF0A  F098         	goto	i1u979_21
 13552   013010  EF0C  F098         	goto	i1u979_20
 13553   013014                     i1u979_21:
 13554   013014  EF24  F098         	goto	i1l8423
 13555   013018                     i1u979_20:
 13556   013018                     
 13557                           ; BSR set to: 0
 13558   013018  8190               	bsf	i1___fldiv@grs& (0+255),0,b
 13559   01301A  EF24  F098         	goto	i1l8423
 13560   01301E                     i1l8417:
 13561                           
 13562                           ; BSR set to: 0
 13563   01301E  90D8               	bcf	status,0,c
 13564   013020  377D               	rlcf	i1___fldiv@b& (0+255),f,b
 13565   013022  377E               	rlcf	(i1___fldiv@b+1)& (0+255),f,b
 13566   013024  377F               	rlcf	(i1___fldiv@b+2)& (0+255),f,b
 13567   013026  3780               	rlcf	(i1___fldiv@b+3)& (0+255),f,b
 13568   013028                     
 13569                           ; BSR set to: 0
 13570   013028  AF93               	btfss	(i1___fldiv@grs+3)& (0+255),7,b
 13571   01302A  EF19  F098         	goto	i1u980_21
 13572   01302E  EF1B  F098         	goto	i1u980_20
 13573   013032                     i1u980_21:
 13574   013032  EF1C  F098         	goto	i1l1642
 13575   013036                     i1u980_20:
 13576   013036                     
 13577                           ; BSR set to: 0
 13578   013036  817D               	bsf	i1___fldiv@b& (0+255),0,b
 13579   013038                     i1l1642:
 13580                           
 13581                           ; BSR set to: 0
 13582   013038  90D8               	bcf	status,0,c
 13583   01303A  3790               	rlcf	i1___fldiv@grs& (0+255),f,b
 13584   01303C  3791               	rlcf	(i1___fldiv@grs+1)& (0+255),f,b
 13585   01303E  3792               	rlcf	(i1___fldiv@grs+2)& (0+255),f,b
 13586   013040  3793               	rlcf	(i1___fldiv@grs+3)& (0+255),f,b
 13587   013042  078E               	decf	i1___fldiv@new_exp& (0+255),f,b
 13588   013044  A0D8               	btfss	status,0,c
 13589   013046  078F               	decf	(i1___fldiv@new_exp+1)& (0+255),f,b
 13590   013048                     i1l8423:
 13591                           
 13592                           ; BSR set to: 0
 13593   013048  AF7F               	btfss	(i1___fldiv@b+2)& (0+255),7,b
 13594   01304A  EF29  F098         	goto	i1u981_21
 13595   01304E  EF2B  F098         	goto	i1u981_20
 13596   013052                     i1u981_21:
 13597   013052  EF0F  F098         	goto	i1l8417
 13598   013056                     i1u981_20:
 13599   013056                     
 13600                           ; BSR set to: 0
 13601   013056  0E00               	movlw	0
 13602   013058  6F95               	movwf	i1___fldiv@aexp& (0+255),b
 13603   01305A                     
 13604                           ; BSR set to: 0
 13605   01305A  AF93               	btfss	(i1___fldiv@grs+3)& (0+255),7,b
 13606   01305C  EF32  F098         	goto	i1u982_21
 13607   013060  EF34  F098         	goto	i1u982_20
 13608   013064                     i1u982_21:
 13609   013064  EF58  F098         	goto	i1l1644
 13610   013068                     i1u982_20:
 13611   013068                     
 13612                           ; BSR set to: 0
 13613   013068  0EFF               	movlw	255
 13614   01306A  1590               	andwf	i1___fldiv@grs& (0+255),w,b
 13615   01306C  6F85               	movwf	??i1___fldiv& (0+255),b
 13616   01306E  0EFF               	movlw	255
 13617   013070  1591               	andwf	(i1___fldiv@grs+1)& (0+255),w,b
 13618   013072  6F86               	movwf	(??i1___fldiv+1)& (0+255),b
 13619   013074  0EFF               	movlw	255
 13620   013076  1592               	andwf	(i1___fldiv@grs+2)& (0+255),w,b
 13621   013078  6F87               	movwf	(??i1___fldiv+2)& (0+255),b
 13622   01307A  0E7F               	movlw	127
 13623   01307C  1593               	andwf	(i1___fldiv@grs+3)& (0+255),w,b
 13624   01307E  6F88               	movwf	(??i1___fldiv+3)& (0+255),b
 13625   013080  5185               	movf	??i1___fldiv& (0+255),w,b
 13626   013082  1186               	iorwf	(??i1___fldiv+1)& (0+255),w,b
 13627   013084  1187               	iorwf	(??i1___fldiv+2)& (0+255),w,b
 13628   013086  1188               	iorwf	(??i1___fldiv+3)& (0+255),w,b
 13629   013088  B4D8               	btfsc	status,2,c
 13630   01308A  EF49  F098         	goto	i1u983_21
 13631   01308E  EF4B  F098         	goto	i1u983_20
 13632   013092                     i1u983_21:
 13633   013092  EF4F  F098         	goto	i1l1645
 13634   013096                     i1u983_20:
 13635   013096                     i1l8431:
 13636                           
 13637                           ; BSR set to: 0
 13638   013096  0E01               	movlw	1
 13639   013098  6F95               	movwf	i1___fldiv@aexp& (0+255),b
 13640   01309A  EF58  F098         	goto	i1l1644
 13641   01309E                     i1l1645:
 13642                           
 13643                           ; BSR set to: 0
 13644   01309E  A17D               	btfss	i1___fldiv@b& (0+255),0,b
 13645   0130A0  EF54  F098         	goto	i1u984_21
 13646   0130A4  EF56  F098         	goto	i1u984_20
 13647   0130A8                     i1u984_21:
 13648   0130A8  EF58  F098         	goto	i1l1644
 13649   0130AC                     i1u984_20:
 13650   0130AC  EF4B  F098         	goto	i1l8431
 13651   0130B0                     i1l1644:
 13652                           
 13653                           ; BSR set to: 0
 13654   0130B0  5195               	movf	i1___fldiv@aexp& (0+255),w,b
 13655   0130B2  B4D8               	btfsc	status,2,c
 13656   0130B4  EF5E  F098         	goto	i1u985_21
 13657   0130B8  EF60  F098         	goto	i1u985_20
 13658   0130BC                     i1u985_21:
 13659   0130BC  EF84  F098         	goto	i1l8443
 13660   0130C0                     i1u985_20:
 13661   0130C0                     
 13662                           ; BSR set to: 0
 13663   0130C0  0E01               	movlw	1
 13664   0130C2  277D               	addwf	i1___fldiv@b& (0+255),f,b
 13665   0130C4  0E00               	movlw	0
 13666   0130C6  237E               	addwfc	(i1___fldiv@b+1)& (0+255),f,b
 13667   0130C8  237F               	addwfc	(i1___fldiv@b+2)& (0+255),f,b
 13668   0130CA  2380               	addwfc	(i1___fldiv@b+3)& (0+255),f,b
 13669   0130CC                     
 13670                           ; BSR set to: 0
 13671   0130CC  A180               	btfss	(i1___fldiv@b+3)& (0+255),0,b
 13672   0130CE  EF6B  F098         	goto	i1u986_21
 13673   0130D2  EF6D  F098         	goto	i1u986_20
 13674   0130D6                     i1u986_21:
 13675   0130D6  EF84  F098         	goto	i1l8443
 13676   0130DA                     i1u986_20:
 13677   0130DA                     
 13678                           ; BSR set to: 0
 13679   0130DA  C07D  F085         	movff	i1___fldiv@b,??i1___fldiv
 13680   0130DE  C07E  F086         	movff	i1___fldiv@b+1,??i1___fldiv+1
 13681   0130E2  C07F  F087         	movff	i1___fldiv@b+2,??i1___fldiv+2
 13682   0130E6  C080  F088         	movff	i1___fldiv@b+3,??i1___fldiv+3
 13683   0130EA  3588               	rlcf	(??i1___fldiv+3)& (0+255),w,b
 13684   0130EC  3388               	rrcf	(??i1___fldiv+3)& (0+255),f,b
 13685   0130EE  3387               	rrcf	(??i1___fldiv+2)& (0+255),f,b
 13686   0130F0  3386               	rrcf	(??i1___fldiv+1)& (0+255),f,b
 13687   0130F2  3385               	rrcf	??i1___fldiv& (0+255),f,b
 13688   0130F4  C085  F07D         	movff	??i1___fldiv,i1___fldiv@b
 13689   0130F8  C086  F07E         	movff	??i1___fldiv+1,i1___fldiv@b+1
 13690   0130FC  C087  F07F         	movff	??i1___fldiv+2,i1___fldiv@b+2
 13691   013100  C088  F080         	movff	??i1___fldiv+3,i1___fldiv@b+3
 13692   013104                     
 13693                           ; BSR set to: 0
 13694   013104  4B8E               	infsnz	i1___fldiv@new_exp& (0+255),f,b
 13695   013106  2B8F               	incf	(i1___fldiv@new_exp+1)& (0+255),f,b
 13696   013108                     i1l8443:
 13697                           
 13698                           ; BSR set to: 0
 13699   013108  BF8F               	btfsc	(i1___fldiv@new_exp+1)& (0+255),7,b
 13700   01310A  EF8F  F098         	goto	i1u987_21
 13701   01310E  518F               	movf	(i1___fldiv@new_exp+1)& (0+255),w,b
 13702   013110  E108               	bnz	i1u987_20
 13703   013112  298E               	incf	i1___fldiv@new_exp& (0+255),w,b
 13704   013114  A0D8               	btfss	status,0,c
 13705   013116  EF8F  F098         	goto	i1u987_21
 13706   01311A  EF91  F098         	goto	i1u987_20
 13707   01311E                     i1u987_21:
 13708   01311E  EF9C  F098         	goto	i1l8447
 13709   013122                     i1u987_20:
 13710   013122                     
 13711                           ; BSR set to: 0
 13712   013122  0E00               	movlw	0
 13713   013124  6F8F               	movwf	(i1___fldiv@new_exp+1)& (0+255),b
 13714   013126  698E               	setf	i1___fldiv@new_exp& (0+255),b
 13715   013128  0E00               	movlw	0
 13716   01312A  6F7D               	movwf	i1___fldiv@b& (0+255),b
 13717   01312C  0E00               	movlw	0
 13718   01312E  6F7E               	movwf	(i1___fldiv@b+1)& (0+255),b
 13719   013130  0E00               	movlw	0
 13720   013132  6F7F               	movwf	(i1___fldiv@b+2)& (0+255),b
 13721   013134  0E00               	movlw	0
 13722   013136  6F80               	movwf	(i1___fldiv@b+3)& (0+255),b
 13723   013138                     i1l8447:
 13724                           
 13725                           ; BSR set to: 0
 13726   013138  BF8F               	btfsc	(i1___fldiv@new_exp+1)& (0+255),7,b
 13727   01313A  EFA9  F098         	goto	i1u988_20
 13728   01313E  518F               	movf	(i1___fldiv@new_exp+1)& (0+255),w,b
 13729   013140  E106               	bnz	i1u988_21
 13730   013142  058E               	decf	i1___fldiv@new_exp& (0+255),w,b
 13731   013144  B0D8               	btfsc	status,0,c
 13732   013146  EFA7  F098         	goto	i1u988_21
 13733   01314A  EFA9  F098         	goto	i1u988_20
 13734   01314E                     i1u988_21:
 13735   01314E  EFB7  F098         	goto	i1l8451
 13736   013152                     i1u988_20:
 13737   013152                     
 13738                           ; BSR set to: 0
 13739   013152  0E00               	movlw	0
 13740   013154  6F8F               	movwf	(i1___fldiv@new_exp+1)& (0+255),b
 13741   013156  0E00               	movlw	0
 13742   013158  6F8E               	movwf	i1___fldiv@new_exp& (0+255),b
 13743   01315A  0E00               	movlw	0
 13744   01315C  6F7D               	movwf	i1___fldiv@b& (0+255),b
 13745   01315E  0E00               	movlw	0
 13746   013160  6F7E               	movwf	(i1___fldiv@b+1)& (0+255),b
 13747   013162  0E00               	movlw	0
 13748   013164  6F7F               	movwf	(i1___fldiv@b+2)& (0+255),b
 13749   013166  0E00               	movlw	0
 13750   013168  6F80               	movwf	(i1___fldiv@b+3)& (0+255),b
 13751   01316A  0E00               	movlw	0
 13752   01316C  6F8D               	movwf	i1___fldiv@sign& (0+255),b
 13753   01316E                     i1l8451:
 13754                           
 13755                           ; BSR set to: 0
 13756   01316E  C08E  F094         	movff	i1___fldiv@new_exp,i1___fldiv@bexp
 13757   013172                     
 13758                           ; BSR set to: 0
 13759   013172  A194               	btfss	i1___fldiv@bexp& (0+255),0,b
 13760   013174  EFBE  F098         	goto	i1u989_21
 13761   013178  EFC0  F098         	goto	i1u989_20
 13762   01317C                     i1u989_21:
 13763   01317C  EFC3  F098         	goto	i1l8457
 13764   013180                     i1u989_20:
 13765   013180                     
 13766                           ; BSR set to: 0
 13767   013180  8F7F               	bsf	(i1___fldiv@b+2)& (0+255),7,b
 13768   013182  EFC4  F098         	goto	i1l8459
 13769   013186                     i1l8457:
 13770                           
 13771                           ; BSR set to: 0
 13772   013186  9F7F               	bcf	(i1___fldiv@b+2)& (0+255),7,b
 13773   013188                     i1l8459:
 13774                           
 13775                           ; BSR set to: 0
 13776   013188  90D8               	bcf	status,0,c
 13777   01318A  3194               	rrcf	i1___fldiv@bexp& (0+255),w,b
 13778   01318C  6F80               	movwf	(i1___fldiv@b+3)& (0+255),b
 13779   01318E  EF7A  F097         	goto	i1l8373
 13780   013192                     i1l1631:
 13781                           
 13782                           ; BSR set to: 0
 13783   013192  0012               	return		;funcret
 13784   013194                     __end_ofi1___fldiv:
 13785                           	callstack 0
 13786                           
 13787 ;; *************** function _fabsf *****************
 13788 ;; Defined at:
 13789 ;;		line 4 in file "C:\Program Files\Microchip\xc8\v2.46\pic\sources\c99\common\fabsf.c"
 13790 ;; Parameters:    Size  Location     Type
 13791 ;;  x               4   22[COMRAM] float 
 13792 ;; Auto vars:     Size  Location     Type
 13793 ;;  u               4   26[COMRAM] struct .
 13794 ;; Return value:  Size  Location     Type
 13795 ;;                  4   22[COMRAM] float 
 13796 ;; Registers used:
 13797 ;;		status,2, status,0
 13798 ;; Tracked objects:
 13799 ;;		On entry : 0/0
 13800 ;;		On exit  : 0/0
 13801 ;;		Unchanged: 0/0
 13802 ;; Data sizes:     COMRAM   BANK0   BANK1   BANK2   BANK3   BANK4   BANK5   BANK6   BANK7   BANK8   BANK9  BANK10  BANK1
      +1  BANK12  BANK13  BANK14
 13803 ;;      Params:         4       0       0       0       0       0       0       0       0       0       0       0       
      +0       0       0       0
 13804 ;;      Locals:         4       0       0       0       0       0       0       0       0       0       0       0       
      +0       0       0       0
 13805 ;;      Temps:          0       0       0       0       0       0       0       0       0       0       0       0       
      +0       0       0       0
 13806 ;;      Totals:         8       0       0       0       0       0       0       0       0       0       0       0       
      +0       0       0       0
 13807 ;;Total ram usage:        8 bytes
 13808 ;; Hardware stack levels used: 1
 13809 ;; Hardware stack levels required when called: 2
 13810 ;; This function calls:
 13811 ;;		Nothing
 13812 ;; This function is called by:
 13813 ;;		_atanf
 13814 ;; This function uses a non-reentrant model
 13815 ;;
 13816                           
 13817                           	psect	text43
 13818   0144E2                     __ptext43:
 13819                           	callstack 0
 13820   0144E2                     _fabsf:
 13821                           	callstack 21
 13822   0144E2  C193  F01B         	movff	fabsf@F465,fabsf@u
 13823   0144E6  C194  F01C         	movff	fabsf@F465+1,fabsf@u+1
 13824   0144EA  C195  F01D         	movff	fabsf@F465+2,fabsf@u+2
 13825   0144EE  C196  F01E         	movff	fabsf@F465+3,fabsf@u+3
 13826   0144F2  C017  F01B         	movff	fabsf@x,fabsf@u
 13827   0144F6  C018  F01C         	movff	fabsf@x+1,fabsf@u+1
 13828   0144FA  C019  F01D         	movff	fabsf@x+2,fabsf@u+2
 13829   0144FE  C01A  F01E         	movff	fabsf@x+3,fabsf@u+3
 13830   014502  9E1E               	bcf	(fabsf@u+3)^0,7,c
 13831   014504  C01B  F017         	movff	fabsf@u,?_fabsf
 13832   014508  C01C  F018         	movff	fabsf@u+1,?_fabsf+1
 13833   01450C  C01D  F019         	movff	fabsf@u+2,?_fabsf+2
 13834   014510  C01E  F01A         	movff	fabsf@u+3,?_fabsf+3
 13835   014514  0012               	return		;funcret
 13836   014516                     __end_of_fabsf:
 13837                           	callstack 0
 13838                           
 13839 ;; *************** function ___fpclassifyf *****************
 13840 ;; Defined at:
 13841 ;;		line 4 in file "C:\Program Files\Microchip\xc8\v2.46\pic\sources\c99\common\__fpclassifyf.c"
 13842 ;; Parameters:    Size  Location     Type
 13843 ;;  x               4   22[COMRAM] float 
 13844 ;; Auto vars:     Size  Location     Type
 13845 ;;  u               4   32[COMRAM] struct .
 13846 ;;  e               2   30[COMRAM] int 
 13847 ;; Return value:  Size  Location     Type
 13848 ;;                  2   22[COMRAM] int 
 13849 ;; Registers used:
 13850 ;;		wreg, status,2, status,0
 13851 ;; Tracked objects:
 13852 ;;		On entry : 0/0
 13853 ;;		On exit  : 0/0
 13854 ;;		Unchanged: 0/0
 13855 ;; Data sizes:     COMRAM   BANK0   BANK1   BANK2   BANK3   BANK4   BANK5   BANK6   BANK7   BANK8   BANK9  BANK10  BANK1
      +1  BANK12  BANK13  BANK14
 13856 ;;      Params:         4       0       0       0       0       0       0       0       0       0       0       0       
      +0       0       0       0
 13857 ;;      Locals:         6       0       0       0       0       0       0       0       0       0       0       0       
      +0       0       0       0
 13858 ;;      Temps:          4       0       0       0       0       0       0       0       0       0       0       0       
      +0       0       0       0
 13859 ;;      Totals:        14       0       0       0       0       0       0       0       0       0       0       0       
      +0       0       0       0
 13860 ;;Total ram usage:       14 bytes
 13861 ;; Hardware stack levels used: 1
 13862 ;; Hardware stack levels required when called: 2
 13863 ;; This function calls:
 13864 ;;		Nothing
 13865 ;; This function is called by:
 13866 ;;		_atanf
 13867 ;; This function uses a non-reentrant model
 13868 ;;
 13869                           
 13870                           	psect	text44
 13871   013D80                     __ptext44:
 13872                           	callstack 0
 13873   013D80                     ___fpclassifyf:
 13874                           	callstack 21
 13875   013D80  C0AB  F021         	movff	___fpclassifyf@F465,___fpclassifyf@u
 13876   013D84  C0AC  F022         	movff	___fpclassifyf@F465+1,___fpclassifyf@u+1
 13877   013D88  C0AD  F023         	movff	___fpclassifyf@F465+2,___fpclassifyf@u+2
 13878   013D8C  C0AE  F024         	movff	___fpclassifyf@F465+3,___fpclassifyf@u+3
 13879   013D90  C017  F021         	movff	___fpclassifyf@x,___fpclassifyf@u
 13880   013D94  C018  F022         	movff	___fpclassifyf@x+1,___fpclassifyf@u+1
 13881   013D98  C019  F023         	movff	___fpclassifyf@x+2,___fpclassifyf@u+2
 13882   013D9C  C01A  F024         	movff	___fpclassifyf@x+3,___fpclassifyf@u+3
 13883   013DA0  C021  F01B         	movff	___fpclassifyf@u,??___fpclassifyf
 13884   013DA4  C022  F01C         	movff	___fpclassifyf@u+1,??___fpclassifyf+1
 13885   013DA8  C023  F01D         	movff	___fpclassifyf@u+2,??___fpclassifyf+2
 13886   013DAC  C024  F01E         	movff	___fpclassifyf@u+3,??___fpclassifyf+3
 13887   013DB0  0E18               	movlw	24
 13888   013DB2  EFE0  F09E         	goto	i1u959_20
 13889   013DB6                     i1u959_25:
 13890   013DB6  90D8               	bcf	status,0,c
 13891   013DB8  321E               	rrcf	(??___fpclassifyf+3)^0,f,c
 13892   013DBA  321D               	rrcf	(??___fpclassifyf+2)^0,f,c
 13893   013DBC  321C               	rrcf	(??___fpclassifyf+1)^0,f,c
 13894   013DBE  321B               	rrcf	??___fpclassifyf^0,f,c
 13895   013DC0                     i1u959_20:
 13896   013DC0  2EE8               	decfsz	wreg,f,c
 13897   013DC2  EFDB  F09E         	goto	i1u959_25
 13898   013DC6  501B               	movf	??___fpclassifyf^0,w,c
 13899   013DC8  6E1F               	movwf	___fpclassifyf@e^0,c
 13900   013DCA  6A20               	clrf	(___fpclassifyf@e+1)^0,c
 13901   013DCC  501F               	movf	___fpclassifyf@e^0,w,c
 13902   013DCE  1020               	iorwf	(___fpclassifyf@e+1)^0,w,c
 13903   013DD0  A4D8               	btfss	status,2,c
 13904   013DD2  EFED  F09E         	goto	i1u960_21
 13905   013DD6  EFEF  F09E         	goto	i1u960_20
 13906   013DDA                     i1u960_21:
 13907   013DDA  EF0F  F09F         	goto	i1l8297
 13908   013DDE                     i1u960_20:
 13909   013DDE  90D8               	bcf	status,0,c
 13910   013DE0  3421               	rlcf	___fpclassifyf@u^0,w,c
 13911   013DE2  6E1B               	movwf	??___fpclassifyf^0,c
 13912   013DE4  3422               	rlcf	(___fpclassifyf@u+1)^0,w,c
 13913   013DE6  6E1C               	movwf	(??___fpclassifyf+1)^0,c
 13914   013DE8  3423               	rlcf	(___fpclassifyf@u+2)^0,w,c
 13915   013DEA  6E1D               	movwf	(??___fpclassifyf+2)^0,c
 13916   013DEC  3424               	rlcf	(___fpclassifyf@u+3)^0,w,c
 13917   013DEE  6E1E               	movwf	(??___fpclassifyf+3)^0,c
 13918   013DF0  501B               	movf	??___fpclassifyf^0,w,c
 13919   013DF2  101C               	iorwf	(??___fpclassifyf+1)^0,w,c
 13920   013DF4  101D               	iorwf	(??___fpclassifyf+2)^0,w,c
 13921   013DF6  101E               	iorwf	(??___fpclassifyf+3)^0,w,c
 13922   013DF8  A4D8               	btfss	status,2,c
 13923   013DFA  EF01  F09F         	goto	i1u961_21
 13924   013DFE  EF03  F09F         	goto	i1u961_20
 13925   013E02                     i1u961_21:
 13926   013E02  EF09  F09F         	goto	i1l8293
 13927   013E06                     i1u961_20:
 13928   013E06  0E00               	movlw	0
 13929   013E08  6E18               	movwf	(?___fpclassifyf+1)^0,c
 13930   013E0A  0E02               	movlw	2
 13931   013E0C  6E17               	movwf	?___fpclassifyf^0,c
 13932   013E0E  EF3E  F09F         	goto	i1l1779
 13933   013E12                     i1l8293:
 13934   013E12  0E00               	movlw	0
 13935   013E14  6E18               	movwf	(?___fpclassifyf+1)^0,c
 13936   013E16  0E03               	movlw	3
 13937   013E18  6E17               	movwf	?___fpclassifyf^0,c
 13938   013E1A  EF3E  F09F         	goto	i1l1779
 13939   013E1E                     i1l8297:
 13940   013E1E  281F               	incf	___fpclassifyf@e^0,w,c
 13941   013E20  1020               	iorwf	(___fpclassifyf@e+1)^0,w,c
 13942   013E22  A4D8               	btfss	status,2,c
 13943   013E24  EF16  F09F         	goto	i1u962_21
 13944   013E28  EF18  F09F         	goto	i1u962_20
 13945   013E2C                     i1u962_21:
 13946   013E2C  EF3A  F09F         	goto	i1l8303
 13947   013E30                     i1u962_20:
 13948   013E30  C021  F01B         	movff	___fpclassifyf@u,??___fpclassifyf
 13949   013E34  C022  F01C         	movff	___fpclassifyf@u+1,??___fpclassifyf+1
 13950   013E38  C023  F01D         	movff	___fpclassifyf@u+2,??___fpclassifyf+2
 13951   013E3C  C024  F01E         	movff	___fpclassifyf@u+3,??___fpclassifyf+3
 13952   013E40  0E09               	movlw	9
 13953   013E42                     i1u963_25:
 13954   013E42  90D8               	bcf	status,0,c
 13955   013E44  361B               	rlcf	??___fpclassifyf^0,f,c
 13956   013E46  361C               	rlcf	(??___fpclassifyf+1)^0,f,c
 13957   013E48  361D               	rlcf	(??___fpclassifyf+2)^0,f,c
 13958   013E4A  361E               	rlcf	(??___fpclassifyf+3)^0,f,c
 13959   013E4C  2EE8               	decfsz	wreg,f,c
 13960   013E4E  EF21  F09F         	goto	i1u963_25
 13961   013E52  501B               	movf	??___fpclassifyf^0,w,c
 13962   013E54  101C               	iorwf	(??___fpclassifyf+1)^0,w,c
 13963   013E56  101D               	iorwf	(??___fpclassifyf+2)^0,w,c
 13964   013E58  101E               	iorwf	(??___fpclassifyf+3)^0,w,c
 13965   013E5A  B4D8               	btfsc	status,2,c
 13966   013E5C  EF32  F09F         	goto	i1u964_21
 13967   013E60  EF35  F09F         	goto	i1u964_20
 13968   013E64                     i1u964_21:
 13969   013E64  0E01               	movlw	1
 13970   013E66  EF36  F09F         	goto	i1u965_20
 13971   013E6A                     i1u964_20:
 13972   013E6A  0E00               	movlw	0
 13973   013E6C                     i1u965_20:
 13974   013E6C  6E17               	movwf	?___fpclassifyf^0,c
 13975   013E6E  6A18               	clrf	(?___fpclassifyf+1)^0,c
 13976   013E70  EF3E  F09F         	goto	i1l1779
 13977   013E74                     i1l8303:
 13978   013E74  0E00               	movlw	0
 13979   013E76  6E18               	movwf	(?___fpclassifyf+1)^0,c
 13980   013E78  0E04               	movlw	4
 13981   013E7A  6E17               	movwf	?___fpclassifyf^0,c
 13982   013E7C                     i1l1779:
 13983   013E7C  0012               	return		;funcret
 13984   013E7E                     __end_of___fpclassifyf:
 13985                           	callstack 0
 13986                           
 13987 ;; *************** function ___fleq *****************
 13988 ;; Defined at:
 13989 ;;		line 4 in file "C:\Program Files\Microchip\xc8\v2.46\pic\sources\c99\common\fleq.c"
 13990 ;; Parameters:    Size  Location     Type
 13991 ;;  ff1             4   22[COMRAM] int 
 13992 ;;  ff2             4   26[COMRAM] int 
 13993 ;; Auto vars:     Size  Location     Type
 13994 ;;		None
 13995 ;; Return value:  Size  Location     Type
 13996 ;;		None               void
 13997 ;; Registers used:
 13998 ;;		wreg, status,2, status,0
 13999 ;; Tracked objects:
 14000 ;;		On entry : 0/0
 14001 ;;		On exit  : 0/0
 14002 ;;		Unchanged: 0/0
 14003 ;; Data sizes:     COMRAM   BANK0   BANK1   BANK2   BANK3   BANK4   BANK5   BANK6   BANK7   BANK8   BANK9  BANK10  BANK1
      +1  BANK12  BANK13  BANK14
 14004 ;;      Params:         8       0       0       0       0       0       0       0       0       0       0       0       
      +0       0       0       0
 14005 ;;      Locals:         0       0       0       0       0       0       0       0       0       0       0       0       
      +0       0       0       0
 14006 ;;      Temps:          4       0       0       0       0       0       0       0       0       0       0       0       
      +0       0       0       0
 14007 ;;      Totals:        12       0       0       0       0       0       0       0       0       0       0       0       
      +0       0       0       0
 14008 ;;Total ram usage:       12 bytes
 14009 ;; Hardware stack levels used: 1
 14010 ;; Hardware stack levels required when called: 2
 14011 ;; This function calls:
 14012 ;;		Nothing
 14013 ;; This function is called by:
 14014 ;;		_myLowIsr
 14015 ;; This function uses a non-reentrant model
 14016 ;;
 14017                           
 14018                           	psect	text45
 14019   0141B2                     __ptext45:
 14020                           	callstack 0
 14021   0141B2                     ___fleq:
 14022                           	callstack 22
 14023   0141B2  0E00               	movlw	0
 14024   0141B4  1417               	andwf	___fleq@ff1^0,w,c
 14025   0141B6  6E1F               	movwf	??___fleq^0,c
 14026   0141B8  0E00               	movlw	0
 14027   0141BA  1418               	andwf	(___fleq@ff1+1)^0,w,c
 14028   0141BC  6E20               	movwf	(??___fleq+1)^0,c
 14029   0141BE  0E80               	movlw	128
 14030   0141C0  1419               	andwf	(___fleq@ff1+2)^0,w,c
 14031   0141C2  6E21               	movwf	(??___fleq+2)^0,c
 14032   0141C4  0E7F               	movlw	127
 14033   0141C6  141A               	andwf	(___fleq@ff1+3)^0,w,c
 14034   0141C8  6E22               	movwf	(??___fleq+3)^0,c
 14035   0141CA  501F               	movf	??___fleq^0,w,c
 14036   0141CC  1020               	iorwf	(??___fleq+1)^0,w,c
 14037   0141CE  1021               	iorwf	(??___fleq+2)^0,w,c
 14038   0141D0  1022               	iorwf	(??___fleq+3)^0,w,c
 14039   0141D2  A4D8               	btfss	status,2,c
 14040   0141D4  EFEE  F0A0         	goto	i1u750_21
 14041   0141D8  EFF0  F0A0         	goto	i1u750_20
 14042   0141DC                     i1u750_21:
 14043   0141DC  EFF8  F0A0         	goto	i1l6967
 14044   0141E0                     i1u750_20:
 14045   0141E0  0E00               	movlw	0
 14046   0141E2  6E17               	movwf	___fleq@ff1^0,c
 14047   0141E4  0E00               	movlw	0
 14048   0141E6  6E18               	movwf	(___fleq@ff1+1)^0,c
 14049   0141E8  0E00               	movlw	0
 14050   0141EA  6E19               	movwf	(___fleq@ff1+2)^0,c
 14051   0141EC  0E00               	movlw	0
 14052   0141EE  6E1A               	movwf	(___fleq@ff1+3)^0,c
 14053   0141F0                     i1l6967:
 14054   0141F0  0E00               	movlw	0
 14055   0141F2  141B               	andwf	___fleq@ff2^0,w,c
 14056   0141F4  6E1F               	movwf	??___fleq^0,c
 14057   0141F6  0E00               	movlw	0
 14058   0141F8  141C               	andwf	(___fleq@ff2+1)^0,w,c
 14059   0141FA  6E20               	movwf	(??___fleq+1)^0,c
 14060   0141FC  0E80               	movlw	128
 14061   0141FE  141D               	andwf	(___fleq@ff2+2)^0,w,c
 14062   014200  6E21               	movwf	(??___fleq+2)^0,c
 14063   014202  0E7F               	movlw	127
 14064   014204  141E               	andwf	(___fleq@ff2+3)^0,w,c
 14065   014206  6E22               	movwf	(??___fleq+3)^0,c
 14066   014208  501F               	movf	??___fleq^0,w,c
 14067   01420A  1020               	iorwf	(??___fleq+1)^0,w,c
 14068   01420C  1021               	iorwf	(??___fleq+2)^0,w,c
 14069   01420E  1022               	iorwf	(??___fleq+3)^0,w,c
 14070   014210  A4D8               	btfss	status,2,c
 14071   014212  EF0D  F0A1         	goto	i1u751_21
 14072   014216  EF0F  F0A1         	goto	i1u751_20
 14073   01421A                     i1u751_21:
 14074   01421A  EF17  F0A1         	goto	i1l6971
 14075   01421E                     i1u751_20:
 14076   01421E  0E00               	movlw	0
 14077   014220  6E1B               	movwf	___fleq@ff2^0,c
 14078   014222  0E00               	movlw	0
 14079   014224  6E1C               	movwf	(___fleq@ff2+1)^0,c
 14080   014226  0E00               	movlw	0
 14081   014228  6E1D               	movwf	(___fleq@ff2+2)^0,c
 14082   01422A  0E00               	movlw	0
 14083   01422C  6E1E               	movwf	(___fleq@ff2+3)^0,c
 14084   01422E                     i1l6971:
 14085   01422E  501B               	movf	___fleq@ff2^0,w,c
 14086   014230  1817               	xorwf	___fleq@ff1^0,w,c
 14087   014232  E10F               	bnz	i1u752_20
 14088   014234  501C               	movf	(___fleq@ff2+1)^0,w,c
 14089   014236  1818               	xorwf	(___fleq@ff1+1)^0,w,c
 14090   014238  E10C               	bnz	i1u752_20
 14091   01423A  501D               	movf	(___fleq@ff2+2)^0,w,c
 14092   01423C  1819               	xorwf	(___fleq@ff1+2)^0,w,c
 14093   01423E  E109               	bnz	i1u752_20
 14094   014240  501E               	movf	(___fleq@ff2+3)^0,w,c
 14095   014242  181A               	xorwf	(___fleq@ff1+3)^0,w,c
 14096   014244  B4D8               	btfsc	status,2,c
 14097   014246  EF27  F0A1         	goto	i1u752_21
 14098   01424A  EF29  F0A1         	goto	i1u752_20
 14099   01424E                     i1u752_21:
 14100   01424E  EF2C  F0A1         	goto	i1l6975
 14101   014252                     i1u752_20:
 14102   014252  90D8               	bcf	status,0,c
 14103   014254  EF2D  F0A1         	goto	i1l1308
 14104   014258                     i1l6975:
 14105   014258  80D8               	bsf	status,0,c
 14106   01425A                     i1l1308:
 14107   01425A  0012               	return		;funcret
 14108   01425C                     __end_of___fleq:
 14109                           	callstack 0
 14110                           
 14111 ;; *************** function _myHighIsr *****************
 14112 ;; Defined at:
 14113 ;;		line 73 in file "./Isr.c"
 14114 ;; Parameters:    Size  Location     Type
 14115 ;;		None
 14116 ;; Auto vars:     Size  Location     Type
 14117 ;;		None
 14118 ;; Return value:  Size  Location     Type
 14119 ;;                  1    wreg      void 
 14120 ;; Registers used:
 14121 ;;		wreg, status,2, status,0, prodl, prodh, cstack
 14122 ;; Tracked objects:
 14123 ;;		On entry : 0/0
 14124 ;;		On exit  : 0/0
 14125 ;;		Unchanged: 0/0
 14126 ;; Data sizes:     COMRAM   BANK0   BANK1   BANK2   BANK3   BANK4   BANK5   BANK6   BANK7   BANK8   BANK9  BANK10  BANK1
      +1  BANK12  BANK13  BANK14
 14127 ;;      Params:         0       0       0       0       0       0       0       0       0       0       0       0       
      +0       0       0       0
 14128 ;;      Locals:         2       0       0       0       0       0       0       0       0       0       0       0       
      +0       0       0       0
 14129 ;;      Temps:          6       0       0       0       0       0       0       0       0       0       0       0       
      +0       0       0       0
 14130 ;;      Totals:         8       0       0       0       0       0       0       0       0       0       0       0       
      +0       0       0       0
 14131 ;;Total ram usage:        8 bytes
 14132 ;; Hardware stack levels used: 1
 14133 ;; Hardware stack levels required when called: 1
 14134 ;; This function calls:
 14135 ;;		___awdiv
 14136 ;;		___wmul
 14137 ;; This function is called by:
 14138 ;;		Interrupt level 2
 14139 ;; This function uses a non-reentrant model
 14140 ;;
 14141                           
 14142                           	psect	intcode
 14143   000008                     __pintcode:
 14144                           	callstack 0
 14145   000008                     _myHighIsr:
 14146                           	callstack 20
 14147                           
 14148                           ;incstack = 0
 14149   000008  8249               	bsf	int$flags,1,c	;set compiler interrupt flag (level 2)
 14150   00000A  EFC9  F083         	goto	int_func
 14151                           
 14152                           	psect	intcode_body
 14153   010792                     __pintcode_body:
 14154                           	callstack 20
 14155   010792                     int_func:
 14156                           	callstack 20
 14157   010792  CFF3 F013          	movff	prodl,??_myHighIsr+4
 14158   010796  CFF4 F014          	movff	prodh,??_myHighIsr+5
 14159   01079A                     
 14160                           ;./Isr.c: 75:     if (IOCIF&&IOCIE)
 14161   01079A  010E               	movlb	14	; () banked
 14162   01079C  A9CA               	btfss	202,4,b	;volatile
 14163   01079E  EFD3  F083         	goto	i2u879_41
 14164   0107A2  EFD5  F083         	goto	i2u879_40
 14165   0107A6                     i2u879_41:
 14166   0107A6  EF87  F084         	goto	i2l7801
 14167   0107AA                     i2u879_40:
 14168   0107AA                     
 14169                           ; BSR set to: 14
 14170   0107AA  A9C2               	btfss	194,4,b	;volatile
 14171   0107AC  EFDA  F083         	goto	i2u880_41
 14172   0107B0  EFDC  F083         	goto	i2u880_40
 14173   0107B4                     i2u880_41:
 14174   0107B4  EF87  F084         	goto	i2l7801
 14175   0107B8                     i2u880_40:
 14176   0107B8                     
 14177                           ; BSR set to: 14
 14178                           ;./Isr.c: 76:     {;./Isr.c: 77:         if (IOCBF0==1) {tempsg=TMR1; TMR1=0; if ((!PORT
      +                          Dbits.RD6&&PORTBbits.RB0)||(PORTDbits.RD6&&!PORTBbits.RB0)) {tempsg=-tempsg; CPT_ENCG++;
      +                          } else {CPT_ENCG--;} IOCBF0=0;}
 14179   0107B8  010F               	movlb	15	; () banked
 14180   0107BA  A112               	btfss	18,0,b	;volatile
 14181   0107BC  EFE2  F083         	goto	i2u881_41
 14182   0107C0  EFE4  F083         	goto	i2u881_40
 14183   0107C4                     i2u881_41:
 14184   0107C4  EF27  F084         	goto	i2l7769
 14185   0107C8                     i2u881_40:
 14186   0107C8                     
 14187                           ; BSR set to: 15
 14188   0107C8  CFCD F0E4          	movff	4045,_tempsg	;volatile
 14189   0107CC  CFCE F0E5          	movff	4046,_tempsg+1	;volatile
 14190   0107D0  0100               	movlb	0	; () banked
 14191   0107D2  6BE6               	clrf	(_tempsg+2)& (0+255),b
 14192   0107D4  6BE7               	clrf	(_tempsg+3)& (0+255),b
 14193   0107D6                     
 14194                           ; BSR set to: 0
 14195   0107D6  0E00               	movlw	0
 14196   0107D8  6ECE               	movwf	206,c	;volatile
 14197   0107DA  0E00               	movlw	0
 14198   0107DC  6ECD               	movwf	205,c	;volatile
 14199   0107DE                     
 14200                           ; BSR set to: 0
 14201   0107DE  BC90               	btfsc	144,6,c	;volatile
 14202   0107E0  EFF4  F083         	goto	i2u882_41
 14203   0107E4  EFF6  F083         	goto	i2u882_40
 14204   0107E8                     i2u882_41:
 14205   0107E8  EFFD  F083         	goto	i2l955
 14206   0107EC                     i2u882_40:
 14207   0107EC                     
 14208                           ; BSR set to: 0
 14209   0107EC  B08E               	btfsc	142,0,c	;volatile
 14210   0107EE  EFFB  F083         	goto	i2u883_41
 14211   0107F2  EFFD  F083         	goto	i2u883_40
 14212   0107F6                     i2u883_41:
 14213   0107F6  EF0B  F084         	goto	i2l7761
 14214   0107FA                     i2u883_40:
 14215   0107FA                     i2l955:
 14216                           
 14217                           ; BSR set to: 0
 14218   0107FA  AC90               	btfss	144,6,c	;volatile
 14219   0107FC  EF02  F084         	goto	i2u884_41
 14220   010800  EF04  F084         	goto	i2u884_40
 14221   010804                     i2u884_41:
 14222   010804  EF1C  F084         	goto	i2l7765
 14223   010808                     i2u884_40:
 14224   010808                     
 14225                           ; BSR set to: 0
 14226   010808  B08E               	btfsc	142,0,c	;volatile
 14227   01080A  EF09  F084         	goto	i2u885_41
 14228   01080E  EF0B  F084         	goto	i2u885_40
 14229   010812                     i2u885_41:
 14230   010812  EF1C  F084         	goto	i2l7765
 14231   010816                     i2u885_40:
 14232   010816                     i2l7761:
 14233                           
 14234                           ; BSR set to: 0
 14235   010816  1FE7               	comf	(_tempsg+3)& (0+255),f,b
 14236   010818  1FE6               	comf	(_tempsg+2)& (0+255),f,b
 14237   01081A  1FE5               	comf	(_tempsg+1)& (0+255),f,b
 14238   01081C  6DE4               	negf	_tempsg& (0+255),b
 14239   01081E  0E00               	movlw	0
 14240   010820  23E5               	addwfc	(_tempsg+1)& (0+255),f,b
 14241   010822  23E6               	addwfc	(_tempsg+2)& (0+255),f,b
 14242   010824  23E7               	addwfc	(_tempsg+3)& (0+255),f,b
 14243   010826                     
 14244                           ; BSR set to: 0
 14245   010826  0E01               	movlw	1
 14246   010828  0101               	movlb	1	; () banked
 14247   01082A  27A3               	addwf	_CPT_ENCG& (0+255),f,b
 14248   01082C  0E00               	movlw	0
 14249   01082E  23A4               	addwfc	(_CPT_ENCG+1)& (0+255),f,b
 14250   010830  23A5               	addwfc	(_CPT_ENCG+2)& (0+255),f,b
 14251   010832  23A6               	addwfc	(_CPT_ENCG+3)& (0+255),f,b
 14252   010834  EF25  F084         	goto	i2l7767
 14253   010838                     i2l7765:
 14254                           
 14255                           ; BSR set to: 0
 14256   010838  0EFF               	movlw	255
 14257   01083A  0101               	movlb	1	; () banked
 14258   01083C  27A3               	addwf	_CPT_ENCG& (0+255),f,b
 14259   01083E  0EFF               	movlw	255
 14260   010840  23A4               	addwfc	(_CPT_ENCG+1)& (0+255),f,b
 14261   010842  0EFF               	movlw	255
 14262   010844  23A5               	addwfc	(_CPT_ENCG+2)& (0+255),f,b
 14263   010846  0EFF               	movlw	255
 14264   010848  23A6               	addwfc	(_CPT_ENCG+3)& (0+255),f,b
 14265   01084A                     i2l7767:
 14266                           
 14267                           ; BSR set to: 1
 14268   01084A  010F               	movlb	15	; () banked
 14269   01084C  9112               	bcf	18,0,b	;volatile
 14270   01084E                     i2l7769:
 14271                           
 14272                           ; BSR set to: 15
 14273                           ;./Isr.c: 78:         if (IOCCF5==1) {tempsd=TMR5; TMR5=0; if ((PORTCbits.RC5&&!PORTCbit
      +                          s.RC4)||(!PORTCbits.RC5&&PORTCbits.RC4)) {tempsd=-tempsd; CPT_ENCD++;} else {CPT_ENCD--;
      +                          } IOCCF5=0;}
 14274   01084E  AB1A               	btfss	26,5,b	;volatile
 14275   010850  EF2C  F084         	goto	i2u886_41
 14276   010854  EF2E  F084         	goto	i2u886_40
 14277   010858                     i2u886_41:
 14278   010858  EF71  F084         	goto	i2l7789
 14279   01085C                     i2u886_40:
 14280   01085C                     
 14281                           ; BSR set to: 15
 14282   01085C  CFC1 F0E0          	movff	4033,_tempsd	;volatile
 14283   010860  CFC2 F0E1          	movff	4034,_tempsd+1	;volatile
 14284   010864  0100               	movlb	0	; () banked
 14285   010866  6BE2               	clrf	(_tempsd+2)& (0+255),b
 14286   010868  6BE3               	clrf	(_tempsd+3)& (0+255),b
 14287   01086A                     
 14288                           ; BSR set to: 0
 14289   01086A  0E00               	movlw	0
 14290   01086C  6EC2               	movwf	194,c	;volatile
 14291   01086E  0E00               	movlw	0
 14292   010870  6EC1               	movwf	193,c	;volatile
 14293   010872                     
 14294                           ; BSR set to: 0
 14295   010872  AA8F               	btfss	143,5,c	;volatile
 14296   010874  EF3E  F084         	goto	i2u887_41
 14297   010878  EF40  F084         	goto	i2u887_40
 14298   01087C                     i2u887_41:
 14299   01087C  EF47  F084         	goto	i2l962
 14300   010880                     i2u887_40:
 14301   010880                     
 14302                           ; BSR set to: 0
 14303   010880  A88F               	btfss	143,4,c	;volatile
 14304   010882  EF45  F084         	goto	i2u888_41
 14305   010886  EF47  F084         	goto	i2u888_40
 14306   01088A                     i2u888_41:
 14307   01088A  EF55  F084         	goto	i2l7781
 14308   01088E                     i2u888_40:
 14309   01088E                     i2l962:
 14310                           
 14311                           ; BSR set to: 0
 14312   01088E  BA8F               	btfsc	143,5,c	;volatile
 14313   010890  EF4C  F084         	goto	i2u889_41
 14314   010894  EF4E  F084         	goto	i2u889_40
 14315   010898                     i2u889_41:
 14316   010898  EF66  F084         	goto	i2l7785
 14317   01089C                     i2u889_40:
 14318   01089C                     
 14319                           ; BSR set to: 0
 14320   01089C  A88F               	btfss	143,4,c	;volatile
 14321   01089E  EF53  F084         	goto	i2u890_41
 14322   0108A2  EF55  F084         	goto	i2u890_40
 14323   0108A6                     i2u890_41:
 14324   0108A6  EF66  F084         	goto	i2l7785
 14325   0108AA                     i2u890_40:
 14326   0108AA                     i2l7781:
 14327                           
 14328                           ; BSR set to: 0
 14329   0108AA  1FE3               	comf	(_tempsd+3)& (0+255),f,b
 14330   0108AC  1FE2               	comf	(_tempsd+2)& (0+255),f,b
 14331   0108AE  1FE1               	comf	(_tempsd+1)& (0+255),f,b
 14332   0108B0  6DE0               	negf	_tempsd& (0+255),b
 14333   0108B2  0E00               	movlw	0
 14334   0108B4  23E1               	addwfc	(_tempsd+1)& (0+255),f,b
 14335   0108B6  23E2               	addwfc	(_tempsd+2)& (0+255),f,b
 14336   0108B8  23E3               	addwfc	(_tempsd+3)& (0+255),f,b
 14337   0108BA                     
 14338                           ; BSR set to: 0
 14339   0108BA  0E01               	movlw	1
 14340   0108BC  0101               	movlb	1	; () banked
 14341   0108BE  279F               	addwf	_CPT_ENCD& (0+255),f,b
 14342   0108C0  0E00               	movlw	0
 14343   0108C2  23A0               	addwfc	(_CPT_ENCD+1)& (0+255),f,b
 14344   0108C4  23A1               	addwfc	(_CPT_ENCD+2)& (0+255),f,b
 14345   0108C6  23A2               	addwfc	(_CPT_ENCD+3)& (0+255),f,b
 14346   0108C8  EF6F  F084         	goto	i2l7787
 14347   0108CC                     i2l7785:
 14348                           
 14349                           ; BSR set to: 0
 14350   0108CC  0EFF               	movlw	255
 14351   0108CE  0101               	movlb	1	; () banked
 14352   0108D0  279F               	addwf	_CPT_ENCD& (0+255),f,b
 14353   0108D2  0EFF               	movlw	255
 14354   0108D4  23A0               	addwfc	(_CPT_ENCD+1)& (0+255),f,b
 14355   0108D6  0EFF               	movlw	255
 14356   0108D8  23A1               	addwfc	(_CPT_ENCD+2)& (0+255),f,b
 14357   0108DA  0EFF               	movlw	255
 14358   0108DC  23A2               	addwfc	(_CPT_ENCD+3)& (0+255),f,b
 14359   0108DE                     i2l7787:
 14360                           
 14361                           ; BSR set to: 1
 14362   0108DE  010F               	movlb	15	; () banked
 14363   0108E0  9B1A               	bcf	26,5,b	;volatile
 14364   0108E2                     i2l7789:
 14365                           
 14366                           ; BSR set to: 15
 14367                           ;./Isr.c: 79:         if (IOCAF6||IOCCF2)
 14368   0108E2  BD0A               	btfsc	10,6,b	;volatile
 14369   0108E4  EF76  F084         	goto	i2u891_41
 14370   0108E8  EF78  F084         	goto	i2u891_40
 14371   0108EC                     i2u891_41:
 14372   0108EC  EF7F  F084         	goto	i2l7793
 14373   0108F0                     i2u891_40:
 14374   0108F0                     
 14375                           ; BSR set to: 15
 14376   0108F0  A51A               	btfss	26,2,b	;volatile
 14377   0108F2  EF7D  F084         	goto	i2u892_41
 14378   0108F6  EF7F  F084         	goto	i2u892_40
 14379   0108FA                     i2u892_41:
 14380   0108FA  EF85  F084         	goto	i2l7799
 14381   0108FE                     i2u892_40:
 14382   0108FE                     i2l7793:
 14383                           
 14384                           ; BSR set to: 15
 14385                           ;./Isr.c: 80:         {;./Isr.c: 81:             CPT_ENC=1;
 14386   0108FE  0E01               	movlw	1
 14387   010900  0100               	movlb	0	; () banked
 14388   010902  6FD1               	movwf	_CPT_ENC& (0+255),b
 14389   010904                     
 14390                           ; BSR set to: 0
 14391                           ;./Isr.c: 82:             IOCAF6=0; IOCCF2=0;
 14392   010904  010F               	movlb	15	; () banked
 14393   010906  9D0A               	bcf	10,6,b	;volatile
 14394   010908                     
 14395                           ; BSR set to: 15
 14396   010908  951A               	bcf	26,2,b	;volatile
 14397   01090A                     i2l7799:
 14398                           
 14399                           ; BSR set to: 15
 14400                           ;./Isr.c: 84:         IOCIF=0;
 14401   01090A  010E               	movlb	14	; () banked
 14402   01090C  99CA               	bcf	202,4,b	;volatile
 14403   01090E                     i2l7801:
 14404                           
 14405                           ; BSR set to: 14
 14406                           ;./Isr.c: 86:     if (TMR1IF&&TMR1IE) {tempsg=87001; TMR1IF=0; TMR1=0;}
 14407   01090E  A1CE               	btfss	206,0,b	;volatile
 14408   010910  EF8C  F084         	goto	i2u893_41
 14409   010914  EF8E  F084         	goto	i2u893_40
 14410   010918                     i2u893_41:
 14411   010918  EFA4  F084         	goto	i2l7809
 14412   01091C                     i2u893_40:
 14413   01091C                     
 14414                           ; BSR set to: 14
 14415   01091C  A1C6               	btfss	198,0,b	;volatile
 14416   01091E  EF93  F084         	goto	i2u894_41
 14417   010922  EF95  F084         	goto	i2u894_40
 14418   010926                     i2u894_41:
 14419   010926  EFA4  F084         	goto	i2l7809
 14420   01092A                     i2u894_40:
 14421   01092A                     
 14422                           ; BSR set to: 14
 14423   01092A  0ED9               	movlw	217
 14424   01092C  0100               	movlb	0	; () banked
 14425   01092E  6FE4               	movwf	_tempsg& (0+255),b
 14426   010930  0E53               	movlw	83
 14427   010932  6FE5               	movwf	(_tempsg+1)& (0+255),b
 14428   010934  0E01               	movlw	1
 14429   010936  6FE6               	movwf	(_tempsg+2)& (0+255),b
 14430   010938  0E00               	movlw	0
 14431   01093A  6FE7               	movwf	(_tempsg+3)& (0+255),b
 14432   01093C                     
 14433                           ; BSR set to: 0
 14434   01093C  010E               	movlb	14	; () banked
 14435   01093E  91CE               	bcf	206,0,b	;volatile
 14436   010940  0E00               	movlw	0
 14437   010942  6ECE               	movwf	206,c	;volatile
 14438   010944  0E00               	movlw	0
 14439   010946  6ECD               	movwf	205,c	;volatile
 14440   010948                     i2l7809:
 14441                           
 14442                           ; BSR set to: 14
 14443                           ;./Isr.c: 87:     if (TMR5IF&&TMR5IE) {tempsd=87001; TMR5IF=0; TMR5=0;}
 14444   010948  A9CE               	btfss	206,4,b	;volatile
 14445   01094A  EFA9  F084         	goto	i2u895_41
 14446   01094E  EFAB  F084         	goto	i2u895_40
 14447   010952                     i2u895_41:
 14448   010952  EFC1  F084         	goto	i2l7817
 14449   010956                     i2u895_40:
 14450   010956                     
 14451                           ; BSR set to: 14
 14452   010956  A9C6               	btfss	198,4,b	;volatile
 14453   010958  EFB0  F084         	goto	i2u896_41
 14454   01095C  EFB2  F084         	goto	i2u896_40
 14455   010960                     i2u896_41:
 14456   010960  EFC1  F084         	goto	i2l7817
 14457   010964                     i2u896_40:
 14458   010964                     
 14459                           ; BSR set to: 14
 14460   010964  0ED9               	movlw	217
 14461   010966  0100               	movlb	0	; () banked
 14462   010968  6FE0               	movwf	_tempsd& (0+255),b
 14463   01096A  0E53               	movlw	83
 14464   01096C  6FE1               	movwf	(_tempsd+1)& (0+255),b
 14465   01096E  0E01               	movlw	1
 14466   010970  6FE2               	movwf	(_tempsd+2)& (0+255),b
 14467   010972  0E00               	movlw	0
 14468   010974  6FE3               	movwf	(_tempsd+3)& (0+255),b
 14469   010976                     
 14470                           ; BSR set to: 0
 14471   010976  010E               	movlb	14	; () banked
 14472   010978  99CE               	bcf	206,4,b	;volatile
 14473   01097A  0E00               	movlw	0
 14474   01097C  6EC2               	movwf	194,c	;volatile
 14475   01097E  0E00               	movlw	0
 14476   010980  6EC1               	movwf	193,c	;volatile
 14477   010982                     i2l7817:
 14478                           
 14479                           ; BSR set to: 14
 14480                           ;./Isr.c: 88:     if (SSP2IE&&SSP2IF)
 14481   010982  A5C5               	btfss	197,2,b	;volatile
 14482   010984  EFC6  F084         	goto	i2u897_41
 14483   010988  EFC8  F084         	goto	i2u897_40
 14484   01098C                     i2u897_41:
 14485   01098C  EF60  F085         	goto	i2l969
 14486   010990                     i2u897_40:
 14487   010990                     
 14488                           ; BSR set to: 14
 14489   010990  A5CD               	btfss	205,2,b	;volatile
 14490   010992  EFCD  F084         	goto	i2u898_41
 14491   010996  EFCF  F084         	goto	i2u898_40
 14492   01099A                     i2u898_41:
 14493   01099A  EF60  F085         	goto	i2l969
 14494   01099E                     i2u898_40:
 14495   01099E                     
 14496                           ; BSR set to: 14
 14497                           ;./Isr.c: 89:     {;./Isr.c: 90:         if (WRITE&&!READ)
 14498   01099E  5044               	movf	_WRITE^0,w,c
 14499   0109A0  B4D8               	btfsc	status,2,c
 14500   0109A2  EFD5  F084         	goto	i2u899_41
 14501   0109A6  EFD7  F084         	goto	i2u899_40
 14502   0109AA                     i2u899_41:
 14503   0109AA  EF0C  F085         	goto	i2l7841
 14504   0109AE                     i2u899_40:
 14505   0109AE                     
 14506                           ; BSR set to: 14
 14507   0109AE  5045               	movf	_READ^0,w,c
 14508   0109B0  A4D8               	btfss	status,2,c
 14509   0109B2  EFDD  F084         	goto	i2u900_41
 14510   0109B6  EFDF  F084         	goto	i2u900_40
 14511   0109BA                     i2u900_41:
 14512   0109BA  EF0C  F085         	goto	i2l7841
 14513   0109BE                     i2u900_40:
 14514   0109BE  EFF9  F084         	goto	i2l7839
 14515   0109C2                     i2l7827:
 14516                           
 14517                           ; BSR set to: 14
 14518   0109C2  5043               	movf	_SSP2_ADD_ISR^0,w,c
 14519   0109C4  2443               	addwf	_SSP2_ADD_ISR^0,w,c
 14520   0109C6  6F92               	movwf	146,b	;volatile
 14521   0109C8                     
 14522                           ; BSR set to: 14
 14523   0109C8  0E01               	movlw	1
 14524   0109CA  6E46               	movwf	_CSSP2^0,c
 14525   0109CC  EF0C  F085         	goto	i2l7841
 14526   0109D0                     i2l974:
 14527                           
 14528                           ; BSR set to: 14
 14529   0109D0  C042  FE92         	movff	_SSP2_REG_ISR,3730	;volatile
 14530   0109D4                     
 14531                           ; BSR set to: 14
 14532   0109D4  0E02               	movlw	2
 14533   0109D6  6E46               	movwf	_CSSP2^0,c
 14534   0109D8  EF0C  F085         	goto	i2l7841
 14535   0109DC                     i2l975:
 14536                           
 14537                           ; BSR set to: 14
 14538   0109DC  C1C1  FE92         	movff	_SSP2_DATA_ISR,3730	;volatile
 14539   0109E0                     
 14540                           ; BSR set to: 14
 14541   0109E0  0E03               	movlw	3
 14542   0109E2  6E46               	movwf	_CSSP2^0,c
 14543   0109E4  EF0C  F085         	goto	i2l7841
 14544   0109E8                     i2l976:
 14545                           
 14546                           ; BSR set to: 14
 14547   0109E8  8597               	bsf	151,2,b	;volatile
 14548   0109EA                     
 14549                           ; BSR set to: 14
 14550   0109EA  0E00               	movlw	0
 14551   0109EC  6E46               	movwf	_CSSP2^0,c
 14552   0109EE  EF0C  F085         	goto	i2l7841
 14553   0109F2                     i2l7839:
 14554                           
 14555                           ; BSR set to: 14
 14556   0109F2  5046               	movf	_CSSP2^0,w,c
 14557                           
 14558                           ; Switch size 1, requested type "simple"
 14559                           ; Number of cases is 4, Range of values is 0 to 3
 14560                           ; switch strategies available:
 14561                           ; Name         Instructions Cycles
 14562                           ; simple_byte           13     7 (average)
 14563                           ;	Chosen strategy is simple_byte
 14564   0109F4  0A00               	xorlw	0	; case 0
 14565   0109F6  B4D8               	btfsc	status,2,c
 14566   0109F8  EFE1  F084         	goto	i2l7827
 14567   0109FC  0A01               	xorlw	1	; case 1
 14568   0109FE  B4D8               	btfsc	status,2,c
 14569   010A00  EFE8  F084         	goto	i2l974
 14570   010A04  0A03               	xorlw	3	; case 2
 14571   010A06  B4D8               	btfsc	status,2,c
 14572   010A08  EFEE  F084         	goto	i2l975
 14573   010A0C  0A01               	xorlw	1	; case 3
 14574   010A0E  B4D8               	btfsc	status,2,c
 14575   010A10  EFF4  F084         	goto	i2l976
 14576   010A14  EF0C  F085         	goto	i2l7841
 14577   010A18                     i2l7841:
 14578                           
 14579                           ; BSR set to: 14
 14580                           ;./Isr.c: 100:         if (!WRITE&&READ)
 14581   010A18  5044               	movf	_WRITE^0,w,c
 14582   010A1A  A4D8               	btfss	status,2,c
 14583   010A1C  EF12  F085         	goto	i2u901_41
 14584   010A20  EF14  F085         	goto	i2u901_40
 14585   010A24                     i2u901_41:
 14586   010A24  EF5F  F085         	goto	i2l977
 14587   010A28                     i2u901_40:
 14588   010A28                     
 14589                           ; BSR set to: 14
 14590   010A28  5045               	movf	_READ^0,w,c
 14591   010A2A  B4D8               	btfsc	status,2,c
 14592   010A2C  EF1A  F085         	goto	i2u902_41
 14593   010A30  EF1C  F085         	goto	i2u902_40
 14594   010A34                     i2u902_41:
 14595   010A34  EF5F  F085         	goto	i2l977
 14596   010A38                     i2u902_40:
 14597   010A38  EF44  F085         	goto	i2l7865
 14598   010A3C                     i2l7847:
 14599                           
 14600                           ; BSR set to: 14
 14601   010A3C  5043               	movf	_SSP2_ADD_ISR^0,w,c
 14602   010A3E  2443               	addwf	_SSP2_ADD_ISR^0,w,c
 14603   010A40  6F92               	movwf	146,b	;volatile
 14604   010A42                     
 14605                           ; BSR set to: 14
 14606   010A42  0E01               	movlw	1
 14607   010A44  6E46               	movwf	_CSSP2^0,c
 14608   010A46  EF5F  F085         	goto	i2l977
 14609   010A4A                     i2l981:
 14610                           
 14611                           ; BSR set to: 14
 14612   010A4A  C042  FE92         	movff	_SSP2_REG_ISR,3730	;volatile
 14613   010A4E                     
 14614                           ; BSR set to: 14
 14615   010A4E  0E02               	movlw	2
 14616   010A50  6E46               	movwf	_CSSP2^0,c
 14617   010A52  EF5F  F085         	goto	i2l977
 14618   010A56                     i2l982:
 14619                           
 14620                           ; BSR set to: 14
 14621   010A56  8197               	bsf	151,0,b	;volatile
 14622   010A58                     
 14623                           ; BSR set to: 14
 14624   010A58  0E03               	movlw	3
 14625   010A5A  6E46               	movwf	_CSSP2^0,c
 14626   010A5C  EF5F  F085         	goto	i2l977
 14627   010A60                     i2l7855:
 14628                           
 14629                           ; BSR set to: 14
 14630   010A60  5043               	movf	_SSP2_ADD_ISR^0,w,c
 14631   010A62  0D02               	mullw	2
 14632   010A64  28F3               	incf	243,w,c
 14633   010A66  6F92               	movwf	146,b	;volatile
 14634   010A68                     
 14635                           ; BSR set to: 14
 14636   010A68  0E04               	movlw	4
 14637   010A6A  6E46               	movwf	_CSSP2^0,c
 14638   010A6C  EF5F  F085         	goto	i2l977
 14639   010A70                     i2l984:
 14640                           
 14641                           ; BSR set to: 14
 14642   010A70  8797               	bsf	151,3,b	;volatile
 14643   010A72                     
 14644                           ; BSR set to: 14
 14645   010A72  0E05               	movlw	5
 14646   010A74  6E46               	movwf	_CSSP2^0,c
 14647   010A76  EF5F  F085         	goto	i2l977
 14648   010A7A                     i2l985:
 14649                           
 14650                           ; BSR set to: 14
 14651   010A7A  8597               	bsf	151,2,b	;volatile
 14652   010A7C  CE92 F1C1          	movff	3730,_SSP2_DATA_ISR	;volatile
 14653   010A80                     
 14654                           ; BSR set to: 14
 14655   010A80  0E00               	movlw	0
 14656   010A82  6E46               	movwf	_CSSP2^0,c
 14657   010A84  EF5F  F085         	goto	i2l977
 14658   010A88                     i2l7865:
 14659                           
 14660                           ; BSR set to: 14
 14661   010A88  5046               	movf	_CSSP2^0,w,c
 14662                           
 14663                           ; Switch size 1, requested type "simple"
 14664                           ; Number of cases is 6, Range of values is 0 to 5
 14665                           ; switch strategies available:
 14666                           ; Name         Instructions Cycles
 14667                           ; simple_byte           19    10 (average)
 14668                           ;	Chosen strategy is simple_byte
 14669   010A8A  0A00               	xorlw	0	; case 0
 14670   010A8C  B4D8               	btfsc	status,2,c
 14671   010A8E  EF1E  F085         	goto	i2l7847
 14672   010A92  0A01               	xorlw	1	; case 1
 14673   010A94  B4D8               	btfsc	status,2,c
 14674   010A96  EF25  F085         	goto	i2l981
 14675   010A9A  0A03               	xorlw	3	; case 2
 14676   010A9C  B4D8               	btfsc	status,2,c
 14677   010A9E  EF2B  F085         	goto	i2l982
 14678   010AA2  0A01               	xorlw	1	; case 3
 14679   010AA4  B4D8               	btfsc	status,2,c
 14680   010AA6  EF30  F085         	goto	i2l7855
 14681   010AAA  0A07               	xorlw	7	; case 4
 14682   010AAC  B4D8               	btfsc	status,2,c
 14683   010AAE  EF38  F085         	goto	i2l984
 14684   010AB2  0A01               	xorlw	1	; case 5
 14685   010AB4  B4D8               	btfsc	status,2,c
 14686   010AB6  EF3D  F085         	goto	i2l985
 14687   010ABA  EF5F  F085         	goto	i2l977
 14688   010ABE                     i2l977:
 14689                           
 14690                           ; BSR set to: 14
 14691                           ;./Isr.c: 112:         SSP2IF=0;
 14692   010ABE  95CD               	bcf	205,2,b	;volatile
 14693   010AC0                     i2l969:
 14694                           
 14695                           ; BSR set to: 14
 14696                           ;./Isr.c: 114:     if (RC1IE&&RC1IF)
 14697   010AC0  ABC5               	btfss	197,5,b	;volatile
 14698   010AC2  EF65  F085         	goto	i2u903_41
 14699   010AC6  EF67  F085         	goto	i2u903_40
 14700   010ACA                     i2u903_41:
 14701   010ACA  EF29  F086         	goto	i2l7927
 14702   010ACE                     i2u903_40:
 14703   010ACE                     
 14704                           ; BSR set to: 14
 14705   010ACE  ABCD               	btfss	205,5,b	;volatile
 14706   010AD0  EF6C  F085         	goto	i2u904_41
 14707   010AD4  EF6E  F085         	goto	i2u904_40
 14708   010AD8                     i2u904_41:
 14709   010AD8  EF29  F086         	goto	i2l7927
 14710   010ADC                     i2u904_40:
 14711   010ADC                     
 14712                           ; BSR set to: 14
 14713                           ;./Isr.c: 115:     {;./Isr.c: 116:         if (!RC1STAbits.FERR&&!RC1STAbits.OERR)
 14714   010ADC  B49D               	btfsc	157,2,c	;volatile
 14715   010ADE  EF73  F085         	goto	i2u905_41
 14716   010AE2  EF75  F085         	goto	i2u905_40
 14717   010AE6                     i2u905_41:
 14718   010AE6  EF24  F086         	goto	i2l987
 14719   010AEA                     i2u905_40:
 14720   010AEA                     
 14721                           ; BSR set to: 14
 14722   010AEA  B29D               	btfsc	157,1,c	;volatile
 14723   010AEC  EF7A  F085         	goto	i2u906_41
 14724   010AF0  EF7C  F085         	goto	i2u906_40
 14725   010AF4                     i2u906_41:
 14726   010AF4  EF24  F086         	goto	i2l987
 14727   010AF8                     i2u906_40:
 14728   010AF8  EFF9  F085         	goto	i2l7921
 14729   010AFC                     i2l7875:
 14730                           
 14731                           ; BSR set to: 14
 14732   010AFC  2899               	incf	153,w,c	;volatile
 14733   010AFE  A4D8               	btfss	status,2,c
 14734   010B00  EF84  F085         	goto	i2u907_41
 14735   010B04  EF86  F085         	goto	i2u907_40
 14736   010B08                     i2u907_41:
 14737   010B08  EF8A  F085         	goto	i2l7879
 14738   010B0C                     i2u907_40:
 14739   010B0C                     
 14740                           ; BSR set to: 14
 14741   010B0C  0E01               	movlw	1
 14742   010B0E  6E3E               	movwf	_CPT_RC1^0,c
 14743   010B10  EF28  F086         	goto	i2l7925
 14744   010B14                     i2l7879:
 14745                           
 14746                           ; BSR set to: 14
 14747   010B14  0E00               	movlw	0
 14748   010B16  6E3E               	movwf	_CPT_RC1^0,c
 14749   010B18  EF28  F086         	goto	i2l7925
 14750   010B1C                     i2l7881:
 14751                           
 14752                           ; BSR set to: 14
 14753   010B1C  0EFE               	movlw	254
 14754   010B1E  1899               	xorwf	153,w,c	;volatile
 14755   010B20  A4D8               	btfss	status,2,c
 14756   010B22  EF95  F085         	goto	i2u908_41
 14757   010B26  EF97  F085         	goto	i2u908_40
 14758   010B2A                     i2u908_41:
 14759   010B2A  EF8A  F085         	goto	i2l7879
 14760   010B2E                     i2u908_40:
 14761   010B2E                     
 14762                           ; BSR set to: 14
 14763   010B2E  0E02               	movlw	2
 14764   010B30  6E3E               	movwf	_CPT_RC1^0,c
 14765   010B32  EF28  F086         	goto	i2l7925
 14766   010B36                     i2l996:
 14767                           
 14768                           ; BSR set to: 14
 14769   010B36  CF99 F037          	movff	3993,_angle_min	;volatile
 14770   010B3A  6A38               	clrf	(_angle_min+1)^0,c
 14771   010B3C                     
 14772                           ; BSR set to: 14
 14773   010B3C  5037               	movf	_angle_min^0,w,c
 14774   010B3E  6E38               	movwf	(_angle_min+1)^0,c
 14775   010B40  6A37               	clrf	_angle_min^0,c
 14776   010B42  0E03               	movlw	3
 14777   010B44  6E3E               	movwf	_CPT_RC1^0,c
 14778   010B46  EF28  F086         	goto	i2l7925
 14779   010B4A                     i2l7889:
 14780                           
 14781                           ; BSR set to: 14
 14782   010B4A  5099               	movf	153,w,c	;volatile
 14783   010B4C  2437               	addwf	_angle_min^0,w,c
 14784   010B4E  6E37               	movwf	_angle_min^0,c
 14785   010B50  0E00               	movlw	0
 14786   010B52  2038               	addwfc	(_angle_min+1)^0,w,c
 14787   010B54  6E38               	movwf	(_angle_min+1)^0,c
 14788   010B56                     
 14789                           ; BSR set to: 14
 14790   010B56  C037  F0B5         	movff	_angle_min,_angle_min_r
 14791   010B5A  C038  F0B6         	movff	_angle_min+1,_angle_min_r+1
 14792   010B5E                     
 14793                           ; BSR set to: 14
 14794   010B5E  0E04               	movlw	4
 14795   010B60  6E3E               	movwf	_CPT_RC1^0,c
 14796   010B62  EF28  F086         	goto	i2l7925
 14797   010B66                     i2l998:
 14798                           
 14799                           ; BSR set to: 14
 14800   010B66  CF99 F033          	movff	3993,_distance_min	;volatile
 14801   010B6A  6A34               	clrf	(_distance_min+1)^0,c
 14802   010B6C                     
 14803                           ; BSR set to: 14
 14804   010B6C  5033               	movf	_distance_min^0,w,c
 14805   010B6E  6E34               	movwf	(_distance_min+1)^0,c
 14806   010B70  6A33               	clrf	_distance_min^0,c
 14807   010B72  0E05               	movlw	5
 14808   010B74  6E3E               	movwf	_CPT_RC1^0,c
 14809   010B76  EF28  F086         	goto	i2l7925
 14810   010B7A                     i2l7897:
 14811                           
 14812                           ; BSR set to: 14
 14813   010B7A  5099               	movf	153,w,c	;volatile
 14814   010B7C  2433               	addwf	_distance_min^0,w,c
 14815   010B7E  6E33               	movwf	_distance_min^0,c
 14816   010B80  0E00               	movlw	0
 14817   010B82  2034               	addwfc	(_distance_min+1)^0,w,c
 14818   010B84  6E34               	movwf	(_distance_min+1)^0,c
 14819   010B86                     
 14820                           ; BSR set to: 14
 14821   010B86  C033  F0B1         	movff	_distance_min,_distance_min_r
 14822   010B8A  C034  F0B2         	movff	_distance_min+1,_distance_min_r+1
 14823   010B8E                     
 14824                           ; BSR set to: 14
 14825   010B8E  0E06               	movlw	6
 14826   010B90  6E3E               	movwf	_CPT_RC1^0,c
 14827   010B92  EF28  F086         	goto	i2l7925
 14828   010B96                     i2l1000:
 14829                           
 14830                           ; BSR set to: 14
 14831   010B96  CF99 F039          	movff	3993,_angle_max	;volatile
 14832   010B9A  6A3A               	clrf	(_angle_max+1)^0,c
 14833   010B9C                     
 14834                           ; BSR set to: 14
 14835   010B9C  5039               	movf	_angle_max^0,w,c
 14836   010B9E  6E3A               	movwf	(_angle_max+1)^0,c
 14837   010BA0  6A39               	clrf	_angle_max^0,c
 14838   010BA2  0E07               	movlw	7
 14839   010BA4  6E3E               	movwf	_CPT_RC1^0,c
 14840   010BA6  EF28  F086         	goto	i2l7925
 14841   010BAA                     i2l7905:
 14842                           
 14843                           ; BSR set to: 14
 14844   010BAA  5099               	movf	153,w,c	;volatile
 14845   010BAC  2439               	addwf	_angle_max^0,w,c
 14846   010BAE  6E39               	movwf	_angle_max^0,c
 14847   010BB0  0E00               	movlw	0
 14848   010BB2  203A               	addwfc	(_angle_max+1)^0,w,c
 14849   010BB4  6E3A               	movwf	(_angle_max+1)^0,c
 14850   010BB6                     
 14851                           ; BSR set to: 14
 14852   010BB6  C039  F0B7         	movff	_angle_max,_angle_max_r
 14853   010BBA  C03A  F0B8         	movff	_angle_max+1,_angle_max_r+1
 14854   010BBE                     
 14855                           ; BSR set to: 14
 14856   010BBE  0E08               	movlw	8
 14857   010BC0  6E3E               	movwf	_CPT_RC1^0,c
 14858   010BC2  EF28  F086         	goto	i2l7925
 14859   010BC6                     i2l1002:
 14860                           
 14861                           ; BSR set to: 14
 14862   010BC6  CF99 F035          	movff	3993,_distance_max	;volatile
 14863   010BCA  6A36               	clrf	(_distance_max+1)^0,c
 14864   010BCC                     
 14865                           ; BSR set to: 14
 14866   010BCC  5035               	movf	_distance_max^0,w,c
 14867   010BCE  6E36               	movwf	(_distance_max+1)^0,c
 14868   010BD0  6A35               	clrf	_distance_max^0,c
 14869   010BD2  0E09               	movlw	9
 14870   010BD4  6E3E               	movwf	_CPT_RC1^0,c
 14871   010BD6  EF28  F086         	goto	i2l7925
 14872   010BDA                     i2l7913:
 14873                           
 14874                           ; BSR set to: 14
 14875   010BDA  5099               	movf	153,w,c	;volatile
 14876   010BDC  2435               	addwf	_distance_max^0,w,c
 14877   010BDE  6E35               	movwf	_distance_max^0,c
 14878   010BE0  0E00               	movlw	0
 14879   010BE2  2036               	addwfc	(_distance_max+1)^0,w,c
 14880   010BE4  6E36               	movwf	(_distance_max+1)^0,c
 14881   010BE6                     
 14882                           ; BSR set to: 14
 14883   010BE6  C035  F0B3         	movff	_distance_max,_distance_max_r
 14884   010BEA  C036  F0B4         	movff	_distance_max+1,_distance_max_r+1
 14885   010BEE  EF8A  F085         	goto	i2l7879
 14886   010BF2                     i2l7921:
 14887                           
 14888                           ; BSR set to: 14
 14889   010BF2  503E               	movf	_CPT_RC1^0,w,c
 14890                           
 14891                           ; Switch size 1, requested type "simple"
 14892                           ; Number of cases is 10, Range of values is 0 to 9
 14893                           ; switch strategies available:
 14894                           ; Name         Instructions Cycles
 14895                           ; simple_byte           31    16 (average)
 14896                           ;	Chosen strategy is simple_byte
 14897   010BF4  0A00               	xorlw	0	; case 0
 14898   010BF6  B4D8               	btfsc	status,2,c
 14899   010BF8  EF7E  F085         	goto	i2l7875
 14900   010BFC  0A01               	xorlw	1	; case 1
 14901   010BFE  B4D8               	btfsc	status,2,c
 14902   010C00  EF8E  F085         	goto	i2l7881
 14903   010C04  0A03               	xorlw	3	; case 2
 14904   010C06  B4D8               	btfsc	status,2,c
 14905   010C08  EF9B  F085         	goto	i2l996
 14906   010C0C  0A01               	xorlw	1	; case 3
 14907   010C0E  B4D8               	btfsc	status,2,c
 14908   010C10  EFA5  F085         	goto	i2l7889
 14909   010C14  0A07               	xorlw	7	; case 4
 14910   010C16  B4D8               	btfsc	status,2,c
 14911   010C18  EFB3  F085         	goto	i2l998
 14912   010C1C  0A01               	xorlw	1	; case 5
 14913   010C1E  B4D8               	btfsc	status,2,c
 14914   010C20  EFBD  F085         	goto	i2l7897
 14915   010C24  0A03               	xorlw	3	; case 6
 14916   010C26  B4D8               	btfsc	status,2,c
 14917   010C28  EFCB  F085         	goto	i2l1000
 14918   010C2C  0A01               	xorlw	1	; case 7
 14919   010C2E  B4D8               	btfsc	status,2,c
 14920   010C30  EFD5  F085         	goto	i2l7905
 14921   010C34  0A0F               	xorlw	15	; case 8
 14922   010C36  B4D8               	btfsc	status,2,c
 14923   010C38  EFE3  F085         	goto	i2l1002
 14924   010C3C  0A01               	xorlw	1	; case 9
 14925   010C3E  B4D8               	btfsc	status,2,c
 14926   010C40  EFED  F085         	goto	i2l7913
 14927   010C44  EF28  F086         	goto	i2l7925
 14928   010C48                     i2l987:
 14929                           
 14930                           ; BSR set to: 14
 14931                           ;./Isr.c: 133:         {;./Isr.c: 134:             RC1STAbits.CREN=0; RC1STAbits.CREN=1;
      +                           RC1REG; RC1REG;
 14932   010C48  989D               	bcf	157,4,c	;volatile
 14933   010C4A  889D               	bsf	157,4,c	;volatile
 14934   010C4C                     
 14935                           ; BSR set to: 14
 14936   010C4C  5099               	movf	153,w,c	;volatile
 14937   010C4E  5099               	movf	153,w,c	;volatile
 14938   010C50                     i2l7925:
 14939                           
 14940                           ; BSR set to: 14
 14941                           ;./Isr.c: 136:         RC1IF=0;
 14942   010C50  9BCD               	bcf	205,5,b	;volatile
 14943   010C52                     i2l7927:
 14944                           
 14945                           ; BSR set to: 14
 14946                           ;./Isr.c: 138:     if (RC2IE&&RC2IF)
 14947   010C52  AFC5               	btfss	197,7,b	;volatile
 14948   010C54  EF2E  F086         	goto	i2u909_41
 14949   010C58  EF30  F086         	goto	i2u909_40
 14950   010C5C                     i2u909_41:
 14951   010C5C  EF4F  F087         	goto	i2l1038
 14952   010C60                     i2u909_40:
 14953   010C60                     
 14954                           ; BSR set to: 14
 14955   010C60  AFCD               	btfss	205,7,b	;volatile
 14956   010C62  EF35  F086         	goto	i2u910_41
 14957   010C66  EF37  F086         	goto	i2u910_40
 14958   010C6A                     i2u910_41:
 14959   010C6A  EF4F  F087         	goto	i2l1038
 14960   010C6E                     i2u910_40:
 14961   010C6E                     
 14962                           ; BSR set to: 14
 14963                           ;./Isr.c: 139:     {;./Isr.c: 140:         if (!RC2STAbits.FERR&&!RC2STAbits.OERR)
 14964   010C6E  B59D               	btfsc	157,2,b	;volatile
 14965   010C70  EF3C  F086         	goto	i2u911_41
 14966   010C74  EF3E  F086         	goto	i2u911_40
 14967   010C78                     i2u911_41:
 14968   010C78  EF49  F087         	goto	i2l1006
 14969   010C7C                     i2u911_40:
 14970   010C7C                     
 14971                           ; BSR set to: 14
 14972   010C7C  B39D               	btfsc	157,1,b	;volatile
 14973   010C7E  EF43  F086         	goto	i2u912_41
 14974   010C82  EF45  F086         	goto	i2u912_40
 14975   010C86                     i2u912_41:
 14976   010C86  EF49  F087         	goto	i2l1006
 14977   010C8A                     i2u912_40:
 14978   010C8A                     
 14979                           ; BSR set to: 14
 14980                           ;./Isr.c: 141:         {;./Isr.c: 142:             RC2REG_DATA=RC2REG;
 14981   010C8A  CE99 F03F          	movff	3737,_RC2REG_DATA	;volatile
 14982                           
 14983                           ;./Isr.c: 143:             switch (CPT_RC2)
 14984   010C8E  EF36  F087         	goto	i2l7985
 14985   010C92                     i2l7937:
 14986                           
 14987                           ; BSR set to: 14
 14988                           ;./Isr.c: 146:                     if (RC2REG_DATA==241) {sens=1; CPT_RC2=1;}
 14989   010C92  0EF1               	movlw	241
 14990   010C94  183F               	xorwf	_RC2REG_DATA^0,w,c
 14991   010C96  A4D8               	btfss	status,2,c
 14992   010C98  EF50  F086         	goto	i2u913_41
 14993   010C9C  EF52  F086         	goto	i2u913_40
 14994   010CA0                     i2u913_41:
 14995   010CA0  EF58  F086         	goto	i2l7941
 14996   010CA4                     i2u913_40:
 14997   010CA4                     
 14998                           ; BSR set to: 14
 14999   010CA4  0E01               	movlw	1
 15000   010CA6  6E3C               	movwf	_sens^0,c
 15001   010CA8  0E01               	movlw	1
 15002   010CAA  6E3D               	movwf	_CPT_RC2^0,c
 15003   010CAC  EF4D  F087         	goto	i2l7989
 15004   010CB0                     i2l7941:
 15005                           
 15006                           ; BSR set to: 14
 15007   010CB0  0EF2               	movlw	242
 15008   010CB2  183F               	xorwf	_RC2REG_DATA^0,w,c
 15009   010CB4  A4D8               	btfss	status,2,c
 15010   010CB6  EF5F  F086         	goto	i2u914_41
 15011   010CBA  EF61  F086         	goto	i2u914_40
 15012   010CBE                     i2u914_41:
 15013   010CBE  EF66  F086         	goto	i2l7947
 15014   010CC2                     i2u914_40:
 15015   010CC2                     
 15016                           ; BSR set to: 14
 15017   010CC2  683C               	setf	_sens^0,c
 15018   010CC4                     
 15019                           ; BSR set to: 14
 15020   010CC4  0E01               	movlw	1
 15021   010CC6  6E3D               	movwf	_CPT_RC2^0,c
 15022   010CC8  EF4D  F087         	goto	i2l7989
 15023   010CCC                     i2l7947:
 15024                           
 15025                           ; BSR set to: 14
 15026   010CCC  0EF3               	movlw	243
 15027   010CCE  183F               	xorwf	_RC2REG_DATA^0,w,c
 15028   010CD0  A4D8               	btfss	status,2,c
 15029   010CD2  EF6D  F086         	goto	i2u915_41
 15030   010CD6  EF6F  F086         	goto	i2u915_40
 15031   010CDA                     i2u915_41:
 15032   010CDA  EF75  F086         	goto	i2l7951
 15033   010CDE                     i2u915_40:
 15034   010CDE                     
 15035                           ; BSR set to: 14
 15036   010CDE  0E00               	movlw	0
 15037   010CE0  6E3B               	movwf	_consignevitrc^0,c
 15038   010CE2  0E01               	movlw	1
 15039   010CE4  6E3D               	movwf	_CPT_RC2^0,c
 15040   010CE6  EF4D  F087         	goto	i2l7989
 15041   010CEA                     i2l7951:
 15042                           
 15043                           ; BSR set to: 14
 15044   010CEA  0EF4               	movlw	244
 15045   010CEC  183F               	xorwf	_RC2REG_DATA^0,w,c
 15046   010CEE  A4D8               	btfss	status,2,c
 15047   010CF0  EF7C  F086         	goto	i2u916_41
 15048   010CF4  EF7E  F086         	goto	i2u916_40
 15049   010CF8                     i2u916_41:
 15050   010CF8  EF84  F086         	goto	i2l7955
 15051   010CFC                     i2u916_40:
 15052   010CFC                     i2l7953:
 15053                           
 15054                           ; BSR set to: 14
 15055   010CFC  0E00               	movlw	0
 15056   010CFE  6E3B               	movwf	_consignevitrc^0,c
 15057   010D00  0E00               	movlw	0
 15058   010D02  6E3D               	movwf	_CPT_RC2^0,c
 15059   010D04  EF4D  F087         	goto	i2l7989
 15060   010D08                     i2l7955:
 15061                           
 15062                           ; BSR set to: 14
 15063   010D08  EF7E  F086         	goto	i2l7953
 15064   010D0C                     i2l7961:
 15065                           
 15066                           ; BSR set to: 14
 15067                           ;./Isr.c: 154:                     if (RC2REG_DATA<=90) {consignevitrc=RC2REG_DATA; CPT_
      +                          RC2=2;}
 15068   010D0C  0E5B               	movlw	91
 15069   010D0E  603F               	cpfslt	_RC2REG_DATA^0,c
 15070   010D10  EF8C  F086         	goto	i2u917_41
 15071   010D14  EF8E  F086         	goto	i2u917_40
 15072   010D18                     i2u917_41:
 15073   010D18  EF94  F086         	goto	i2l7967
 15074   010D1C                     i2u917_40:
 15075   010D1C                     
 15076                           ; BSR set to: 14
 15077   010D1C  C03F  F03B         	movff	_RC2REG_DATA,_consignevitrc
 15078   010D20                     
 15079                           ; BSR set to: 14
 15080   010D20  0E02               	movlw	2
 15081   010D22  6E3D               	movwf	_CPT_RC2^0,c
 15082   010D24  EF4D  F087         	goto	i2l7989
 15083   010D28                     i2l7967:
 15084                           
 15085                           ; BSR set to: 14
 15086   010D28  0E00               	movlw	0
 15087   010D2A  6E3D               	movwf	_CPT_RC2^0,c
 15088   010D2C  EF4D  F087         	goto	i2l7989
 15089   010D30                     i2l7969:
 15090                           
 15091                           ; BSR set to: 14
 15092                           ;./Isr.c: 158:                     if (RC2REG_DATA<=180)
 15093   010D30  0EB5               	movlw	181
 15094   010D32  603F               	cpfslt	_RC2REG_DATA^0,c
 15095   010D34  EF9E  F086         	goto	i2u918_41
 15096   010D38  EFA0  F086         	goto	i2u918_40
 15097   010D3C                     i2u918_41:
 15098   010D3C  EF94  F086         	goto	i2l7967
 15099   010D40                     i2u918_40:
 15100   010D40                     
 15101                           ; BSR set to: 14
 15102                           ;./Isr.c: 159:                     {;./Isr.c: 160:                         if (consignev
      +                          itrc!=0) {consigneg=sens*(consignevitrc-((RC2REG_DATA-90)>>1)*consignevitrc/90); consign
      +                          ed=sens*(consignevitrc+((RC2REG_DATA-90)>>1)*consignevitrc/90);}
 15103   010D40  503B               	movf	_consignevitrc^0,w,c
 15104   010D42  B4D8               	btfsc	status,2,c
 15105   010D44  EFA6  F086         	goto	i2u919_41
 15106   010D48  EFA8  F086         	goto	i2u919_40
 15107   010D4C                     i2u919_41:
 15108   010D4C  EF0E  F087         	goto	i2l7975
 15109   010D50                     i2u919_40:
 15110   010D50                     
 15111                           ; BSR set to: 14
 15112   010D50  0E00               	movlw	0
 15113   010D52  6E0A               	movwf	(___awdiv@divisor+1)^0,c
 15114   010D54  0E5A               	movlw	90
 15115   010D56  6E09               	movwf	___awdiv@divisor^0,c
 15116   010D58  0EA6               	movlw	166
 15117   010D5A  243F               	addwf	_RC2REG_DATA^0,w,c
 15118   010D5C  6E0F               	movwf	??_myHighIsr^0,c
 15119   010D5E  6A10               	clrf	(??_myHighIsr+1)^0,c
 15120   010D60  0EFF               	movlw	255
 15121   010D62  2210               	addwfc	(??_myHighIsr+1)^0,f,c
 15122   010D64  3410               	rlcf	(??_myHighIsr+1)^0,w,c
 15123   010D66  3010               	rrcf	(??_myHighIsr+1)^0,w,c
 15124   010D68  6E11               	movwf	(??_myHighIsr+2)^0,c
 15125   010D6A  300F               	rrcf	??_myHighIsr^0,w,c
 15126   010D6C  6E01               	movwf	___wmul@multiplier^0,c
 15127   010D6E  C011  F002         	movff	??_myHighIsr+2,___wmul@multiplier+1
 15128   010D72  C03B  F003         	movff	_consignevitrc,___wmul@multiplicand
 15129   010D76  6A04               	clrf	(___wmul@multiplicand+1)^0,c
 15130   010D78  EC8B  F0A2         	call	___wmul	;wreg free
 15131   010D7C  C001  F007         	movff	?___wmul,___awdiv@dividend
 15132   010D80  C002  F008         	movff	?___wmul+1,___awdiv@dividend+1
 15133   010D84  ECBA  F09F         	call	___awdiv	;wreg free
 15134   010D88  5007               	movf	?___awdiv^0,w,c
 15135   010D8A  5C3B               	subwf	_consignevitrc^0,w,c
 15136   010D8C  6E15               	movwf	_myHighIsr$2537^0,c
 15137   010D8E  5008               	movf	(?___awdiv+1)^0,w,c
 15138   010D90  A0D8               	btfss	status,0,c
 15139   010D92  2808               	incf	(?___awdiv+1)^0,w,c
 15140   010D94  6A16               	clrf	(_myHighIsr$2537+1)^0,c
 15141   010D96  5E16               	subwf	(_myHighIsr$2537+1)^0,f,c
 15142   010D98  503C               	movf	_sens^0,w,c
 15143   010D9A  6E01               	movwf	___wmul@multiplier^0,c
 15144   010D9C  6A02               	clrf	(___wmul@multiplier+1)^0,c
 15145   010D9E  BE01               	btfsc	___wmul@multiplier^0,7,c
 15146   010DA0  0602               	decf	(___wmul@multiplier+1)^0,f,c
 15147   010DA2  C015  F003         	movff	_myHighIsr$2537,___wmul@multiplicand
 15148   010DA6  C016  F004         	movff	_myHighIsr$2537+1,___wmul@multiplicand+1
 15149   010DAA  EC8B  F0A2         	call	___wmul	;wreg free
 15150   010DAE  C001  F0BF         	movff	?___wmul,_consigneg
 15151   010DB2  C002  F0C0         	movff	?___wmul+1,_consigneg+1
 15152   010DB6  0E00               	movlw	0
 15153   010DB8  6E0A               	movwf	(___awdiv@divisor+1)^0,c
 15154   010DBA  0E5A               	movlw	90
 15155   010DBC  6E09               	movwf	___awdiv@divisor^0,c
 15156   010DBE  0EA6               	movlw	166
 15157   010DC0  243F               	addwf	_RC2REG_DATA^0,w,c
 15158   010DC2  6E0F               	movwf	??_myHighIsr^0,c
 15159   010DC4  6A10               	clrf	(??_myHighIsr+1)^0,c
 15160   010DC6  0EFF               	movlw	255
 15161   010DC8  2210               	addwfc	(??_myHighIsr+1)^0,f,c
 15162   010DCA  3410               	rlcf	(??_myHighIsr+1)^0,w,c
 15163   010DCC  3010               	rrcf	(??_myHighIsr+1)^0,w,c
 15164   010DCE  6E11               	movwf	(??_myHighIsr+2)^0,c
 15165   010DD0  300F               	rrcf	??_myHighIsr^0,w,c
 15166   010DD2  6E01               	movwf	___wmul@multiplier^0,c
 15167   010DD4  C011  F002         	movff	??_myHighIsr+2,___wmul@multiplier+1
 15168   010DD8  C03B  F003         	movff	_consignevitrc,___wmul@multiplicand
 15169   010DDC  6A04               	clrf	(___wmul@multiplicand+1)^0,c
 15170   010DDE  EC8B  F0A2         	call	___wmul	;wreg free
 15171   010DE2  C001  F007         	movff	?___wmul,___awdiv@dividend
 15172   010DE6  C002  F008         	movff	?___wmul+1,___awdiv@dividend+1
 15173   010DEA  ECBA  F09F         	call	___awdiv	;wreg free
 15174   010DEE  503B               	movf	_consignevitrc^0,w,c
 15175   010DF0  2407               	addwf	?___awdiv^0,w,c
 15176   010DF2  6E15               	movwf	_myHighIsr$2537^0,c
 15177   010DF4  0E00               	movlw	0
 15178   010DF6  2008               	addwfc	(?___awdiv+1)^0,w,c
 15179   010DF8  6E16               	movwf	(_myHighIsr$2537+1)^0,c
 15180   010DFA  C015  F001         	movff	_myHighIsr$2537,___wmul@multiplier
 15181   010DFE  C016  F002         	movff	_myHighIsr$2537+1,___wmul@multiplier+1
 15182   010E02  503C               	movf	_sens^0,w,c
 15183   010E04  6E03               	movwf	___wmul@multiplicand^0,c
 15184   010E06  6A04               	clrf	(___wmul@multiplicand+1)^0,c
 15185   010E08  BE03               	btfsc	___wmul@multiplicand^0,7,c
 15186   010E0A  0604               	decf	(___wmul@multiplicand+1)^0,f,c
 15187   010E0C  EC8B  F0A2         	call	___wmul	;wreg free
 15188   010E10  C001  F0BD         	movff	?___wmul,_consigned
 15189   010E14  C002  F0BE         	movff	?___wmul+1,_consigned+1
 15190   010E18  EF2B  F087         	goto	i2l7977
 15191   010E1C                     i2l7975:
 15192                           
 15193                           ; BSR set to: 14
 15194   010E1C  0E5A               	movlw	90
 15195   010E1E  6E0F               	movwf	??_myHighIsr^0,c
 15196   010E20  0E00               	movlw	0
 15197   010E22  6E10               	movwf	(??_myHighIsr+1)^0,c
 15198   010E24  503F               	movf	_RC2REG_DATA^0,w,c
 15199   010E26  5E0F               	subwf	??_myHighIsr^0,f,c
 15200   010E28  0E00               	movlw	0
 15201   010E2A  5A10               	subwfb	(??_myHighIsr+1)^0,f,c
 15202   010E2C  3410               	rlcf	(??_myHighIsr+1)^0,w,c
 15203   010E2E  3010               	rrcf	(??_myHighIsr+1)^0,w,c
 15204   010E30  6E11               	movwf	(??_myHighIsr+2)^0,c
 15205   010E32  300F               	rrcf	??_myHighIsr^0,w,c
 15206   010E34  0100               	movlb	0	; () banked
 15207   010E36  6FBF               	movwf	_consigneg& (0+255),b
 15208   010E38  C011  F0C0         	movff	??_myHighIsr+2,_consigneg+1
 15209   010E3C  0EA6               	movlw	166
 15210   010E3E  243F               	addwf	_RC2REG_DATA^0,w,c
 15211   010E40  6E0F               	movwf	??_myHighIsr^0,c
 15212   010E42  6A10               	clrf	(??_myHighIsr+1)^0,c
 15213   010E44  0EFF               	movlw	255
 15214   010E46  2210               	addwfc	(??_myHighIsr+1)^0,f,c
 15215   010E48  3410               	rlcf	(??_myHighIsr+1)^0,w,c
 15216   010E4A  3010               	rrcf	(??_myHighIsr+1)^0,w,c
 15217   010E4C  6E11               	movwf	(??_myHighIsr+2)^0,c
 15218   010E4E  300F               	rrcf	??_myHighIsr^0,w,c
 15219   010E50  6FBD               	movwf	_consigned& (0+255),b
 15220   010E52  C011  F0BE         	movff	??_myHighIsr+2,_consigned+1
 15221   010E56                     i2l7977:
 15222                           
 15223                           ;./Isr.c: 162:                         CPT_RC2=3;
 15224   010E56  0E03               	movlw	3
 15225   010E58  6E3D               	movwf	_CPT_RC2^0,c
 15226                           
 15227                           ;./Isr.c: 163:                     }
 15228   010E5A  EF4D  F087         	goto	i2l7989
 15229   010E5E                     i2l1031:
 15230   010E5E                     
 15231                           ; BSR set to: 14
 15232                           ;./Isr.c: 175:                     CPT_RC2=0;
 15233   010E5E  0E00               	movlw	0
 15234   010E60  6E3D               	movwf	_CPT_RC2^0,c
 15235                           
 15236                           ;./Isr.c: 176:                     CPT_BT=0;
 15237   010E62  0E00               	movlw	0
 15238   010E64  0100               	movlb	0	; () banked
 15239   010E66  6FCE               	movwf	_CPT_BT& (0+255),b
 15240                           
 15241                           ;./Isr.c: 177:                     break;
 15242   010E68  EF4D  F087         	goto	i2l7989
 15243   010E6C                     i2l7985:
 15244                           
 15245                           ; BSR set to: 14
 15246   010E6C  503D               	movf	_CPT_RC2^0,w,c
 15247                           
 15248                           ; Switch size 1, requested type "simple"
 15249                           ; Number of cases is 4, Range of values is 0 to 3
 15250                           ; switch strategies available:
 15251                           ; Name         Instructions Cycles
 15252                           ; simple_byte           13     7 (average)
 15253                           ;	Chosen strategy is simple_byte
 15254   010E6E  0A00               	xorlw	0	; case 0
 15255   010E70  B4D8               	btfsc	status,2,c
 15256   010E72  EF49  F086         	goto	i2l7937
 15257   010E76  0A01               	xorlw	1	; case 1
 15258   010E78  B4D8               	btfsc	status,2,c
 15259   010E7A  EF86  F086         	goto	i2l7961
 15260   010E7E  0A03               	xorlw	3	; case 2
 15261   010E80  B4D8               	btfsc	status,2,c
 15262   010E82  EF98  F086         	goto	i2l7969
 15263   010E86  0A01               	xorlw	1	; case 3
 15264   010E88  B4D8               	btfsc	status,2,c
 15265   010E8A  EF2F  F087         	goto	i2l1031
 15266   010E8E  EF4D  F087         	goto	i2l7989
 15267   010E92                     i2l1006:
 15268                           
 15269                           ; BSR set to: 14
 15270                           ;./Isr.c: 181:         {;./Isr.c: 182:             RC2STAbits.CREN=0; RC2STAbits.CREN=1;
      +                           RC2REG; RC2REG;
 15271   010E92  999D               	bcf	157,4,b	;volatile
 15272   010E94  899D               	bsf	157,4,b	;volatile
 15273   010E96                     
 15274                           ; BSR set to: 14
 15275   010E96  5199               	movf	153,w,b	;volatile
 15276   010E98  5199               	movf	153,w,b	;volatile
 15277   010E9A                     i2l7989:
 15278                           
 15279                           ;./Isr.c: 184:         RC2IF=0;
 15280   010E9A  010E               	movlb	14	; () banked
 15281   010E9C  9FCD               	bcf	205,7,b	;volatile
 15282   010E9E                     i2l1038:
 15283                           
 15284                           ; BSR set to: 14
 15285   010E9E  C014  FFF4         	movff	??_myHighIsr+5,prodh
 15286   010EA2  C013  FFF3         	movff	??_myHighIsr+4,prodl
 15287   010EA6  9249               	bcf	int$flags,1,c	;clear compiler interrupt flag (level 2)
 15288   010EA8  0011               	retfie		f
 15289   010EAA                     __end_of_myHighIsr:
 15290                           	callstack 0
 15291                           
 15292 ;; *************** function ___wmul *****************
 15293 ;; Defined at:
 15294 ;;		line 15 in file "C:\Program Files\Microchip\xc8\v2.46\pic\sources\c99\common\Umul16.c"
 15295 ;; Parameters:    Size  Location     Type
 15296 ;;  multiplier      2    0[COMRAM] unsigned int 
 15297 ;;  multiplicand    2    2[COMRAM] unsigned int 
 15298 ;; Auto vars:     Size  Location     Type
 15299 ;;  product         2    4[COMRAM] unsigned int 
 15300 ;; Return value:  Size  Location     Type
 15301 ;;                  2    0[COMRAM] unsigned int 
 15302 ;; Registers used:
 15303 ;;		wreg, status,2, status,0, prodl, prodh
 15304 ;; Tracked objects:
 15305 ;;		On entry : 0/0
 15306 ;;		On exit  : 0/0
 15307 ;;		Unchanged: 0/0
 15308 ;; Data sizes:     COMRAM   BANK0   BANK1   BANK2   BANK3   BANK4   BANK5   BANK6   BANK7   BANK8   BANK9  BANK10  BANK1
      +1  BANK12  BANK13  BANK14
 15309 ;;      Params:         4       0       0       0       0       0       0       0       0       0       0       0       
      +0       0       0       0
 15310 ;;      Locals:         2       0       0       0       0       0       0       0       0       0       0       0       
      +0       0       0       0
 15311 ;;      Temps:          0       0       0       0       0       0       0       0       0       0       0       0       
      +0       0       0       0
 15312 ;;      Totals:         6       0       0       0       0       0       0       0       0       0       0       0       
      +0       0       0       0
 15313 ;;Total ram usage:        6 bytes
 15314 ;; Hardware stack levels used: 1
 15315 ;; This function calls:
 15316 ;;		Nothing
 15317 ;; This function is called by:
 15318 ;;		_myHighIsr
 15319 ;; This function uses a non-reentrant model
 15320 ;;
 15321                           
 15322                           	psect	text47
 15323   014516                     __ptext47:
 15324                           	callstack 0
 15325   014516                     ___wmul:
 15326                           	callstack 20
 15327   014516  5001               	movf	___wmul@multiplier^0,w,c
 15328   014518  0203               	mulwf	___wmul@multiplicand^0,c
 15329   01451A  CFF3 F005          	movff	prodl,___wmul@product
 15330   01451E  CFF4 F006          	movff	prodh,___wmul@product+1
 15331   014522  5001               	movf	___wmul@multiplier^0,w,c
 15332   014524  0204               	mulwf	(___wmul@multiplicand+1)^0,c
 15333   014526  50F3               	movf	243,w,c
 15334   014528  2606               	addwf	(___wmul@product+1)^0,f,c
 15335   01452A  5002               	movf	(___wmul@multiplier+1)^0,w,c
 15336   01452C  0203               	mulwf	___wmul@multiplicand^0,c
 15337   01452E  50F3               	movf	243,w,c
 15338   014530  2606               	addwf	(___wmul@product+1)^0,f,c
 15339   014532  C005  F001         	movff	___wmul@product,?___wmul
 15340   014536  C006  F002         	movff	___wmul@product+1,?___wmul+1
 15341   01453A  0012               	return		;funcret
 15342   01453C                     __end_of___wmul:
 15343                           	callstack 0
 15344                           
 15345 ;; *************** function ___awdiv *****************
 15346 ;; Defined at:
 15347 ;;		line 7 in file "C:\Program Files\Microchip\xc8\v2.46\pic\sources\c99\common\awdiv.c"
 15348 ;; Parameters:    Size  Location     Type
 15349 ;;  dividend        2    6[COMRAM] int 
 15350 ;;  divisor         2    8[COMRAM] int 
 15351 ;; Auto vars:     Size  Location     Type
 15352 ;;  quotient        2   12[COMRAM] int 
 15353 ;;  sign            1   11[COMRAM] unsigned char 
 15354 ;;  counter         1   10[COMRAM] unsigned char 
 15355 ;; Return value:  Size  Location     Type
 15356 ;;                  2    6[COMRAM] int 
 15357 ;; Registers used:
 15358 ;;		wreg, status,2, status,0
 15359 ;; Tracked objects:
 15360 ;;		On entry : 0/0
 15361 ;;		On exit  : 0/0
 15362 ;;		Unchanged: 0/0
 15363 ;; Data sizes:     COMRAM   BANK0   BANK1   BANK2   BANK3   BANK4   BANK5   BANK6   BANK7   BANK8   BANK9  BANK10  BANK1
      +1  BANK12  BANK13  BANK14
 15364 ;;      Params:         4       0       0       0       0       0       0       0       0       0       0       0       
      +0       0       0       0
 15365 ;;      Locals:         4       0       0       0       0       0       0       0       0       0       0       0       
      +0       0       0       0
 15366 ;;      Temps:          0       0       0       0       0       0       0       0       0       0       0       0       
      +0       0       0       0
 15367 ;;      Totals:         8       0       0       0       0       0       0       0       0       0       0       0       
      +0       0       0       0
 15368 ;;Total ram usage:        8 bytes
 15369 ;; Hardware stack levels used: 1
 15370 ;; This function calls:
 15371 ;;		Nothing
 15372 ;; This function is called by:
 15373 ;;		_myHighIsr
 15374 ;;		_LCD_Write_u8bits
 15375 ;; This function uses a non-reentrant model
 15376 ;;
 15377                           
 15378                           	psect	text48
 15379   013F74                     __ptext48:
 15380                           	callstack 0
 15381   013F74                     ___awdiv:
 15382                           	callstack 20
 15383   013F74  0E00               	movlw	0
 15384   013F76  6E0C               	movwf	___awdiv@sign^0,c
 15385   013F78  BE0A               	btfsc	(___awdiv@divisor+1)^0,7,c
 15386   013F7A  EFC3  F09F         	goto	i2u744_40
 15387   013F7E  EFC1  F09F         	goto	i2u744_41
 15388   013F82                     i2u744_41:
 15389   013F82  EFC9  F09F         	goto	i2l6927
 15390   013F86                     i2u744_40:
 15391   013F86  6C09               	negf	___awdiv@divisor^0,c
 15392   013F88  1E0A               	comf	(___awdiv@divisor+1)^0,f,c
 15393   013F8A  B0D8               	btfsc	status,0,c
 15394   013F8C  2A0A               	incf	(___awdiv@divisor+1)^0,f,c
 15395   013F8E  0E01               	movlw	1
 15396   013F90  6E0C               	movwf	___awdiv@sign^0,c
 15397   013F92                     i2l6927:
 15398   013F92  BE08               	btfsc	(___awdiv@dividend+1)^0,7,c
 15399   013F94  EFD0  F09F         	goto	i2u745_40
 15400   013F98  EFCE  F09F         	goto	i2u745_41
 15401   013F9C                     i2u745_41:
 15402   013F9C  EFD6  F09F         	goto	i2l6933
 15403   013FA0                     i2u745_40:
 15404   013FA0  6C07               	negf	___awdiv@dividend^0,c
 15405   013FA2  1E08               	comf	(___awdiv@dividend+1)^0,f,c
 15406   013FA4  B0D8               	btfsc	status,0,c
 15407   013FA6  2A08               	incf	(___awdiv@dividend+1)^0,f,c
 15408   013FA8  0E01               	movlw	1
 15409   013FAA  1A0C               	xorwf	___awdiv@sign^0,f,c
 15410   013FAC                     i2l6933:
 15411   013FAC  0E00               	movlw	0
 15412   013FAE  6E0E               	movwf	(___awdiv@quotient+1)^0,c
 15413   013FB0  0E00               	movlw	0
 15414   013FB2  6E0D               	movwf	___awdiv@quotient^0,c
 15415   013FB4  5009               	movf	___awdiv@divisor^0,w,c
 15416   013FB6  100A               	iorwf	(___awdiv@divisor+1)^0,w,c
 15417   013FB8  B4D8               	btfsc	status,2,c
 15418   013FBA  EFE1  F09F         	goto	i2u746_41
 15419   013FBE  EFE3  F09F         	goto	i2u746_40
 15420   013FC2                     i2u746_41:
 15421   013FC2  EF0B  F0A0         	goto	i2l6955
 15422   013FC6                     i2u746_40:
 15423   013FC6  0E01               	movlw	1
 15424   013FC8  6E0B               	movwf	___awdiv@counter^0,c
 15425   013FCA  EFEB  F09F         	goto	i2l6941
 15426   013FCE                     i2l6939:
 15427   013FCE  90D8               	bcf	status,0,c
 15428   013FD0  3609               	rlcf	___awdiv@divisor^0,f,c
 15429   013FD2  360A               	rlcf	(___awdiv@divisor+1)^0,f,c
 15430   013FD4  2A0B               	incf	___awdiv@counter^0,f,c
 15431   013FD6                     i2l6941:
 15432   013FD6  AE0A               	btfss	(___awdiv@divisor+1)^0,7,c
 15433   013FD8  EFF0  F09F         	goto	i2u747_41
 15434   013FDC  EFF2  F09F         	goto	i2u747_40
 15435   013FE0                     i2u747_41:
 15436   013FE0  EFE7  F09F         	goto	i2l6939
 15437   013FE4                     i2u747_40:
 15438   013FE4                     i2l6943:
 15439   013FE4  90D8               	bcf	status,0,c
 15440   013FE6  360D               	rlcf	___awdiv@quotient^0,f,c
 15441   013FE8  360E               	rlcf	(___awdiv@quotient+1)^0,f,c
 15442   013FEA  5009               	movf	___awdiv@divisor^0,w,c
 15443   013FEC  5C07               	subwf	___awdiv@dividend^0,w,c
 15444   013FEE  500A               	movf	(___awdiv@divisor+1)^0,w,c
 15445   013FF0  5808               	subwfb	(___awdiv@dividend+1)^0,w,c
 15446   013FF2  A0D8               	btfss	status,0,c
 15447   013FF4  EFFE  F09F         	goto	i2u748_41
 15448   013FF8  EF00  F0A0         	goto	i2u748_40
 15449   013FFC                     i2u748_41:
 15450   013FFC  EF05  F0A0         	goto	i2l6951
 15451   014000                     i2u748_40:
 15452   014000  5009               	movf	___awdiv@divisor^0,w,c
 15453   014002  5E07               	subwf	___awdiv@dividend^0,f,c
 15454   014004  500A               	movf	(___awdiv@divisor+1)^0,w,c
 15455   014006  5A08               	subwfb	(___awdiv@dividend+1)^0,f,c
 15456   014008  800D               	bsf	___awdiv@quotient^0,0,c
 15457   01400A                     i2l6951:
 15458   01400A  90D8               	bcf	status,0,c
 15459   01400C  320A               	rrcf	(___awdiv@divisor+1)^0,f,c
 15460   01400E  3209               	rrcf	___awdiv@divisor^0,f,c
 15461   014010  2E0B               	decfsz	___awdiv@counter^0,f,c
 15462   014012  EFF2  F09F         	goto	i2l6943
 15463   014016                     i2l6955:
 15464   014016  500C               	movf	___awdiv@sign^0,w,c
 15465   014018  B4D8               	btfsc	status,2,c
 15466   01401A  EF11  F0A0         	goto	i2u749_41
 15467   01401E  EF13  F0A0         	goto	i2u749_40
 15468   014022                     i2u749_41:
 15469   014022  EF17  F0A0         	goto	i2l6959
 15470   014026                     i2u749_40:
 15471   014026  6C0D               	negf	___awdiv@quotient^0,c
 15472   014028  1E0E               	comf	(___awdiv@quotient+1)^0,f,c
 15473   01402A  B0D8               	btfsc	status,0,c
 15474   01402C  2A0E               	incf	(___awdiv@quotient+1)^0,f,c
 15475   01402E                     i2l6959:
 15476   01402E  C00D  F007         	movff	___awdiv@quotient,?___awdiv
 15477   014032  C00E  F008         	movff	___awdiv@quotient+1,?___awdiv+1
 15478   014036  0012               	return		;funcret
 15479   014038                     __end_of___awdiv:
 15480                           	callstack 0
 15481                           
 15482                           	psect	rparam
 15483   000000                     
 15484                           	psect	temp
 15485   000049                     btemp:
 15486                           	callstack 0
 15487   000049                     	ds	1
 15488   000000                     int$flags	set	btemp
 15489   000000                     wtemp8	set	btemp+1
 15490   000000                     ttemp5	set	btemp+1
 15491   000000                     ttemp6	set	btemp+4
 15492   000000                     ttemp7	set	btemp+8
 15493                           
 15494                           	psect	config
 15495                           
 15496                           ;Config register CONFIG1L @ 0x300000
 15497                           ;	External Oscillator mode Selection bits
 15498                           ;	FEXTOSC = OFF, Oscillator not enabled
 15499                           ;	Power-up default value for COSC bits
 15500                           ;	RSTOSC = HFINTOSC_64MHZ, HFINTOSC with HFFRQ = 64 MHz and CDIV = 1:1
 15501   300000                     	org	3145728
 15502   300000  8C                 	db	140
 15503                           
 15504                           ;Config register CONFIG1H @ 0x300001
 15505                           ;	Clock Out Enable bit
 15506                           ;	CLKOUTEN = OFF, CLKOUT function is disabled
 15507                           ;	Clock Switch Enable bit
 15508                           ;	CSWEN = OFF, The NOSC and NDIV bits cannot be changed by user software
 15509                           ;	Fail-Safe Clock Monitor Enable bit
 15510                           ;	FCMEN = OFF, Fail-Safe Clock Monitor disabled
 15511   300001                     	org	3145729
 15512   300001  D7                 	db	215
 15513                           
 15514                           ;Config register CONFIG2L @ 0x300002
 15515                           ;	Master Clear Enable bit
 15516                           ;	MCLRE = INTMCLR, If LVP = 0, MCLR pin function is port defined function; If LVP =1, RE
      +                          3 pin fuction is MCLR
 15517                           ;	Power-up Timer Enable bit
 15518                           ;	PWRTE = OFF, Power up timer disabled
 15519                           ;	Low-power BOR enable bit
 15520                           ;	LPBOREN = OFF, ULPBOR disabled
 15521                           ;	Brown-out Reset Enable bits
 15522                           ;	BOREN = OFF, Brown-out Reset disabled
 15523   300002                     	org	3145730
 15524   300002  3E                 	db	62
 15525                           
 15526                           ;Config register CONFIG2H @ 0x300003
 15527                           ;	Brown Out Reset Voltage selection bits
 15528                           ;	BORV = VBOR_2P45, Brown-out Reset Voltage (VBOR) set to 2.45V
 15529                           ;	ZCD Disable bit
 15530                           ;	ZCD = OFF, ZCD disabled. ZCD can be enabled by setting the ZCDSEN bit of ZCDCON
 15531                           ;	PPSLOCK bit One-Way Set Enable bit
 15532                           ;	PPS1WAY = OFF, PPSLOCK bit can be set and cleared repeatedly (subject to the unlock se
      +                          quence)
 15533                           ;	Stack Full/Underflow Reset Enable bit
 15534                           ;	STVREN = OFF, Stack full/underflow will not cause Reset
 15535                           ;	Debugger Enable bit
 15536                           ;	DEBUG = OFF, Background debugger disabled
 15537                           ;	Extended Instruction Set Enable bit
 15538                           ;	XINST = OFF, Extended Instruction Set and Indexed Addressing Mode disabled
 15539   300003                     	org	3145731
 15540   300003  E7                 	db	231
 15541                           
 15542                           ;Config register CONFIG3L @ 0x300004
 15543                           ;	WDT Period Select bits
 15544                           ;	WDTCPS = WDTCPS_31, Divider ratio 1:65536; software control of WDTPS
 15545                           ;	WDT operating mode
 15546                           ;	WDTE = OFF, WDT Disabled
 15547   300004                     	org	3145732
 15548   300004  9F                 	db	159
 15549                           
 15550                           ;Config register CONFIG3H @ 0x300005
 15551                           ;	WDT Window Select bits
 15552                           ;	WDTCWS = WDTCWS_7, window always open (100%); software control; keyed access not requi
      +                          red
 15553                           ;	WDT input clock selector
 15554                           ;	WDTCCS = SC, Software Control
 15555   300005                     	org	3145733
 15556   300005  FF                 	db	255
 15557                           
 15558                           ;Config register CONFIG4L @ 0x300006
 15559                           ;	Write Protection Block 0
 15560                           ;	WRT0 = OFF, Block 0 (000800-003FFFh) not write-protected
 15561                           ;	Write Protection Block 1
 15562                           ;	WRT1 = OFF, Block 1 (004000-007FFFh) not write-protected
 15563                           ;	Write Protection Block 2
 15564                           ;	WRT2 = OFF, Block 2 (008000-00BFFFh) not write-protected
 15565                           ;	Write Protection Block 3
 15566                           ;	WRT3 = OFF, Block 3 (00C000-00FFFFh) not write-protected
 15567                           ;	Write Protection Block 3
 15568                           ;	WRT4 = OFF, Block 4 (010000-013FFFh) not write-protected
 15569                           ;	Write Protection Block 3
 15570                           ;	WRT5 = OFF, Block 5 (014000-017FFFh) not write-protected
 15571                           ;	Write Protection Block 3
 15572                           ;	WRT6 = OFF, Block 6 (018000-01BFFFh) not write-protected
 15573                           ;	Write Protection Block 3
 15574                           ;	WRT7 = OFF, Block 7 (01C000-01FFFFh) not write-protected
 15575   300006                     	org	3145734
 15576   300006  FF                 	db	255
 15577                           
 15578                           ;Config register CONFIG4H @ 0x300007
 15579                           ;	Configuration Register Write Protection bit
 15580                           ;	WRTC = OFF, Configuration registers (300000-30000Bh) not write-protected
 15581                           ;	Boot Block Write Protection bit
 15582                           ;	WRTB = OFF, Boot Block (000000-0007FFh) not write-protected
 15583                           ;	Data EEPROM Write Protection bit
 15584                           ;	WRTD = OFF, Data EEPROM not write-protected
 15585                           ;	Scanner Enable bit
 15586                           ;	SCANE = OFF, Scanner module is NOT available for use, SCANMD bit is ignored
 15587                           ;	Low Voltage Programming Enable bit
 15588                           ;	LVP = OFF, HV on MCLR/VPP must be used for programming
 15589   300007                     	org	3145735
 15590   300007  CF                 	db	207
 15591                           
 15592                           ;Config register CONFIG5L @ 0x300008
 15593                           ;	UserNVM Program Memory Code Protection bit
 15594                           ;	CP = OFF, UserNVM code protection disabled
 15595                           ;	DataNVM Memory Code Protection bit
 15596                           ;	CPD = OFF, DataNVM code protection disabled
 15597   300008                     	org	3145736
 15598   300008  FF                 	db	255
 15599                           
 15600                           ;Config register CONFIG5H @ 0x300009
 15601                           ;	unspecified, using default values
 15602   300009                     	org	3145737
 15603   300009  FF                 	db	255
 15604                           
 15605                           ;Config register CONFIG6L @ 0x30000A
 15606                           ;	Table Read Protection Block 0
 15607                           ;	EBTR0 = OFF, Block 0 (000800-003FFFh) not protected from table reads executed in other
      +                           blocks
 15608                           ;	Table Read Protection Block 1
 15609                           ;	EBTR1 = OFF, Block 1 (004000-007FFFh) not protected from table reads executed in other
      +                           blocks
 15610                           ;	Table Read Protection Block 2
 15611                           ;	EBTR2 = OFF, Block 2 (008000-00BFFFh) not protected from table reads executed in other
      +                           blocks
 15612                           ;	Table Read Protection Block 3
 15613                           ;	EBTR3 = OFF, Block 3 (00C000-00FFFFh) not protected from table reads executed in other
      +                           blocks
 15614                           ;	Table Read Protection Block 4
 15615                           ;	EBTR4 = OFF, Block 4 (010000-013FFFh) not protected from table reads executed in other
      +                           blocks
 15616                           ;	Table Read Protection Block 5
 15617                           ;	EBTR5 = OFF, Block 5 (014000-017FFFh) not protected from table reads executed in other
      +                           blocks
 15618                           ;	Table Read Protection Block 6
 15619                           ;	EBTR6 = OFF, Block 6 (018000-01BFFFh) not protected from table reads executed in other
      +                           blocks
 15620                           ;	Table Read Protection Block 7
 15621                           ;	EBTR7 = OFF, Block 7 (01C000-01FFFFh) not protected from table reads executed in other
      +                           blocks
 15622   30000A                     	org	3145738
 15623   30000A  FF                 	db	255
 15624                           
 15625                           ;Config register CONFIG6H @ 0x30000B
 15626                           ;	Boot Block Table Read Protection bit
 15627                           ;	EBTRB = OFF, Boot Block (000000-0007FFh) not protected from table reads executed in ot
      +                          her blocks
 15628   30000B                     	org	3145739
 15629   30000B  FF                 	db	255
 15630                           tosu	equ	0xFFF
 15631                           tosh	equ	0xFFE
 15632                           tosl	equ	0xFFD
 15633                           stkptr	equ	0xFFC
 15634                           pclatu	equ	0xFFB
 15635                           pclath	equ	0xFFA
 15636                           pcl	equ	0xFF9
 15637                           tblptru	equ	0xFF8
 15638                           tblptrh	equ	0xFF7
 15639                           tblptrl	equ	0xFF6
 15640                           tablat	equ	0xFF5
 15641                           prodh	equ	0xFF4
 15642                           prodl	equ	0xFF3
 15643                           indf0	equ	0xFEF
 15644                           postinc0	equ	0xFEE
 15645                           postdec0	equ	0xFED
 15646                           preinc0	equ	0xFEC
 15647                           plusw0	equ	0xFEB
 15648                           fsr0h	equ	0xFEA
 15649                           fsr0l	equ	0xFE9
 15650                           wreg	equ	0xFE8
 15651                           indf1	equ	0xFE7
 15652                           postinc1	equ	0xFE6
 15653                           postdec1	equ	0xFE5
 15654                           preinc1	equ	0xFE4
 15655                           plusw1	equ	0xFE3
 15656                           fsr1h	equ	0xFE2
 15657                           fsr1l	equ	0xFE1
 15658                           bsr	equ	0xFE0
 15659                           indf2	equ	0xFDF
 15660                           postinc2	equ	0xFDE
 15661                           postdec2	equ	0xFDD
 15662                           preinc2	equ	0xFDC
 15663                           plusw2	equ	0xFDB
 15664                           fsr2h	equ	0xFDA
 15665                           fsr2l	equ	0xFD9
 15666                           status	equ	0xFD8

Data Sizes:
    Strings     344
    Constant    52
    Data        28
    BSS         112
    Persistent  0
    Stack       0

Auto Spaces:
    Space          Size  Autos    Used
    COMRAM           94     50      72
    BANK0           160     75     138
    BANK1           256    147     202
    BANK2           256      0       0
    BANK3           256      0       0
    BANK4           256      0       0
    BANK5           256      0       0
    BANK6           256      0       0
    BANK7           256      0       0
    BANK8           256      0       0
    BANK9           256      0       0
    BANK10          256      0       0
    BANK11          256      0       0
    BANK12          256      0       0
    BANK13          256      0       0
    BANK14          136      0       0

Pointer List with Targets:

    LCD_Print@t	PTR unsigned char  size(2) Largest target is 17
		 -> STR_1(CODE[17]), STR_10(CODE[17]), STR_11(CODE[2]), STR_12(CODE[2]), 
		 -> STR_13(CODE[2]), STR_14(CODE[2]), STR_15(CODE[2]), STR_16(CODE[2]), 
		 -> STR_17(CODE[17]), STR_18(CODE[17]), STR_19(CODE[17]), STR_2(CODE[17]), 
		 -> STR_20(CODE[17]), STR_21(CODE[17]), STR_22(CODE[17]), STR_23(CODE[17]), 
		 -> STR_24(CODE[17]), STR_25(CODE[17]), STR_26(CODE[17]), STR_27(CODE[17]), 
		 -> STR_28(CODE[17]), STR_29(CODE[17]), STR_3(CODE[17]), STR_30(CODE[17]), 
		 -> STR_31(CODE[17]), STR_4(CODE[17]), STR_5(CODE[17]), STR_6(CODE[17]), 
		 -> STR_7(CODE[17]), STR_8(CODE[17]), STR_9(CODE[17]), 


Critical Paths under _main in COMRAM

    None.

Critical Paths under _myLowIsr in COMRAM

    _myLowIsr->i1___fltol
    i1___fltol->i1___flmul
    _atanf->i1___flmul
    i1___flsub->i1___flmul
    i1___fladd->i1___flmul
    i1___flmul->i1___xxtofl
    i1___fldiv->i1___flmul

Critical Paths under _myHighIsr in COMRAM

    _myHighIsr->___awdiv
    ___awdiv->___wmul

Critical Paths under _main in BANK0

    None.

Critical Paths under _myLowIsr in BANK0

    _myLowIsr->_atanf
    i1___fltol->i1___flmul
    _atanf->i1___fldiv
    i1___flsub->i1___fladd
    i1___fladd->i1___flmul
    i1___fldiv->i1___fladd

Critical Paths under _myHighIsr in BANK0

    None.

Critical Paths under _main in BANK1

    _main->_Initialisation
    _Initialisation->_Compass_Calibre
    _LCD_Init->_LCD_Clear
    _Compass_Init->_LCD_Goto
    _Compass_Init->_LCD_Print
    _LCD_Clear->_LCD_Write
    _Compass_Calibre->_Motors_Turn_Angle
    ___fldiv->___xxtofl
    _Motors_Turn_Angle->___flsub
    ___flsub->___fladd
    ___fladd->___flmul
    ___flmul->___xxtofl
    _LCD_Print->_LCD_Write
    _LCD_Goto->_LCD_Write
    _LCD_Write->_lcdNibble

Critical Paths under _myLowIsr in BANK1

    _myLowIsr->_atanf

Critical Paths under _myHighIsr in BANK1

    None.

Critical Paths under _main in BANK2

    None.

Critical Paths under _myLowIsr in BANK2

    None.

Critical Paths under _myHighIsr in BANK2

    None.

Critical Paths under _main in BANK3

    None.

Critical Paths under _myLowIsr in BANK3

    None.

Critical Paths under _myHighIsr in BANK3

    None.

Critical Paths under _main in BANK4

    None.

Critical Paths under _myLowIsr in BANK4

    None.

Critical Paths under _myHighIsr in BANK4

    None.

Critical Paths under _main in BANK5

    None.

Critical Paths under _myLowIsr in BANK5

    None.

Critical Paths under _myHighIsr in BANK5

    None.

Critical Paths under _main in BANK6

    None.

Critical Paths under _myLowIsr in BANK6

    None.

Critical Paths under _myHighIsr in BANK6

    None.

Critical Paths under _main in BANK7

    None.

Critical Paths under _myLowIsr in BANK7

    None.

Critical Paths under _myHighIsr in BANK7

    None.

Critical Paths under _main in BANK8

    None.

Critical Paths under _myLowIsr in BANK8

    None.

Critical Paths under _myHighIsr in BANK8

    None.

Critical Paths under _main in BANK9

    None.

Critical Paths under _myLowIsr in BANK9

    None.

Critical Paths under _myHighIsr in BANK9

    None.

Critical Paths under _main in BANK10

    None.

Critical Paths under _myLowIsr in BANK10

    None.

Critical Paths under _myHighIsr in BANK10

    None.

Critical Paths under _main in BANK11

    None.

Critical Paths under _myLowIsr in BANK11

    None.

Critical Paths under _myHighIsr in BANK11

    None.

Critical Paths under _main in BANK12

    None.

Critical Paths under _myLowIsr in BANK12

    None.

Critical Paths under _myHighIsr in BANK12

    None.

Critical Paths under _main in BANK13

    None.

Critical Paths under _myLowIsr in BANK13

    None.

Critical Paths under _myHighIsr in BANK13

    None.

Critical Paths under _main in BANK14

    None.

Critical Paths under _myLowIsr in BANK14

    None.

Critical Paths under _myHighIsr in BANK14

    None.

Call Graph Tables:

 ---------------------------------------------------------------------------------
 (Depth) Function   	        Calls       Base Space   Used Autos Params    Refs
 ---------------------------------------------------------------------------------
 (0) _main                                                 0     0      0   59439
                     _Initialisation
 ---------------------------------------------------------------------------------
 (1) _Initialisation                                       2     2      0   59439
                                            145 BANK1      2     2      0
                _BP_Get_Falling_Edge
                          _BT_Enable
                    _Compass_Calibre
                       _Compass_Init
                      _ENC_Get_Value
                      _ENC_Set_Value
                          _LCD_Clear
                           _LCD_Goto
                           _LCD_Init
                          _LCD_Print
                          _LCD_Retro
                 _LIDAR_Motor_Enable
 ---------------------------------------------------------------------------------
 (2) _LIDAR_Motor_Enable                                   1     1      0      44
                                             42 BANK1      1     1      0
 ---------------------------------------------------------------------------------
 (2) _LCD_Retro                                            1     1      0      22
                                             42 BANK1      1     1      0
 ---------------------------------------------------------------------------------
 (2) _LCD_Init                                             2     2      0    4196
                                             47 BANK1      2     2      0
                          _LCD_Clear
                          _LCD_Write
                          _lcdNibble
 ---------------------------------------------------------------------------------
 (2) _ENC_Get_Value                                        2     0      2       0
                                             42 BANK1      2     0      2
 ---------------------------------------------------------------------------------
 (2) _Compass_Init                                         2     2      0   12509
                                             48 BANK1      2     2      0
                          _LCD_Clear
                           _LCD_Goto
                          _LCD_Print
                          _SSP2_Read
                         _SSP2_Write
 ---------------------------------------------------------------------------------
 (3) _LCD_Clear                                            1     1      0    2054
                                             46 BANK1      1     1      0
                          _LCD_Write
 ---------------------------------------------------------------------------------
 (2) _Compass_Calibre                                      6     6      0   30651
                                            139 BANK1      6     6      0
                      _ENC_Set_Value
                           _LCD_Goto
                          _LCD_Print
                      _Motors_Enable
                       _Motors_Speed
                  _Motors_Turn_Angle
                          _SSP2_Read
                         _SSP2_Write
                            ___aldiv
                            ___fldiv
                            ___flneg
                           ___xxtofl
 ---------------------------------------------------------------------------------
 (3) ___flneg                                              4     0      4     221
                                             42 BANK1      4     0      4
 ---------------------------------------------------------------------------------
 (3) ___fldiv                                             25    17      8    1899
                                             56 BANK1     25    17      8
                           ___xxtofl (ARG)
 ---------------------------------------------------------------------------------
 (3) ___aldiv                                             14     6      8     804
                                             42 BANK1     14     6      8
 ---------------------------------------------------------------------------------
 (3) _SSP2_Write                                           3     1      2     774
                                             42 BANK1      3     1      2
 ---------------------------------------------------------------------------------
 (3) _SSP2_Read                                            2     1      1     750
                                             42 BANK1      2     1      1
 ---------------------------------------------------------------------------------
 (3) _Motors_Turn_Angle                                   34    32      2   14822
                                            105 BANK1     34    32      2
                _Motors_Get_Enc_Left
               _Motors_Get_Enc_Right
                       _Motors_Speed
                            ___fladd
                            ___flmul
                            ___flsub
                            ___fltol
                           ___xxtofl
 ---------------------------------------------------------------------------------
 (3) ___xxtofl                                            14    10      4    1128
                                             42 BANK1     14    10      4
 ---------------------------------------------------------------------------------
 (4) ___fltol                                             10     6      4     935
                                             42 BANK1     10     6      4
 ---------------------------------------------------------------------------------
 (4) ___flsub                                              8     0      8    4537
                                             97 BANK1      8     0      8
                            ___fladd
                           ___xxtofl (ARG)
 ---------------------------------------------------------------------------------
 (5) ___fladd                                             16     8      8    3814
                                             81 BANK1     16     8      8
                            ___flmul (ARG)
                           ___xxtofl (ARG)
 ---------------------------------------------------------------------------------
 (4) ___flmul                                             25    17      8    3748
                                             56 BANK1     25    17      8
                           ___xxtofl (ARG)
 ---------------------------------------------------------------------------------
 (4) _Motors_Speed                                         2     1      1     196
                                             42 BANK1      2     1      1
 ---------------------------------------------------------------------------------
 (4) _Motors_Get_Enc_Right                                 4     0      4       0
                                             42 BANK1      4     0      4
 ---------------------------------------------------------------------------------
 (4) _Motors_Get_Enc_Left                                  4     0      4       0
                                             42 BANK1      4     0      4
 ---------------------------------------------------------------------------------
 (3) _Motors_Enable                                        1     1      0      22
                                             42 BANK1      1     1      0
 ---------------------------------------------------------------------------------
 (2) _LCD_Print                                            2     0      2    4455
                                             46 BANK1      2     0      2
                          _LCD_Write
 ---------------------------------------------------------------------------------
 (2) _LCD_Goto                                             2     1      1    4476
                                             46 BANK1      2     1      1
                          _LCD_Write
 ---------------------------------------------------------------------------------
 (3) _LCD_Write                                            2     1      1    2054
                                             44 BANK1      2     1      1
                          _lcdNibble
 ---------------------------------------------------------------------------------
 (4) _lcdNibble                                            2     2      0      88
                                             42 BANK1      2     2      0
 ---------------------------------------------------------------------------------
 (2) _ENC_Set_Value                                        2     0      2    1010
                                             42 BANK1      2     0      2
 ---------------------------------------------------------------------------------
 (2) _BT_Enable                                            1     1      0      22
                                             42 BANK1      1     1      0
 ---------------------------------------------------------------------------------
 (2) _BP_Get_Falling_Edge                                  1     1      0       0
                                             42 BANK1      1     1      0
 ---------------------------------------------------------------------------------
 Estimated maximum stack depth 5
 ---------------------------------------------------------------------------------
 (Depth) Function   	        Calls       Base Space   Used Autos Params    Refs
 ---------------------------------------------------------------------------------
 (6) _myLowIsr                                            17    17      0   27785
                                             58 BANK0     17    17      0
                             ___fleq
                              _atanf
                        i1_SSP2_Read
                       i1_SSP2_Write
                          i1___aldiv
                          i1___fladd
                          i1___fldiv
                          i1___flmul
                          i1___fltol
                         i1___xxtofl
 ---------------------------------------------------------------------------------
 (7) i1___xxtofl                                          14    10      4     504
                                             22 COMRAM    14    10      4
 ---------------------------------------------------------------------------------
 (7) i1___fltol                                           10     6      4     512
                                             48 COMRAM     2     2      0
                                             13 BANK0      8     4      4
                          i1___flmul (ARG)
                         i1___xxtofl (ARG)
 ---------------------------------------------------------------------------------
 (7) i1___aldiv                                           14     6      8     404
                                             22 COMRAM    14     6      8
 ---------------------------------------------------------------------------------
 (7) i1_SSP2_Write                                         3     1      2     118
                                             22 COMRAM     3     1      2
 ---------------------------------------------------------------------------------
 (7) i1_SSP2_Read                                          2     1      1     174
                                             22 COMRAM     2     1      1
 ---------------------------------------------------------------------------------
 (7) _atanf                                               46    42      4   16137
                                             54 BANK0      4     0      4
                                              0 BANK1     42    42      0
                      ___fpclassifyf
                              _fabsf
                          i1___fladd
                          i1___fldiv
                          i1___flmul
                          i1___flneg
                          i1___flsub
                         i1___xxtofl (ARG)
 ---------------------------------------------------------------------------------
 (8) i1___flsub                                            8     0      8    4337
                                             29 BANK0      8     0      8
                          i1___fladd
                          i1___flmul (ARG)
 ---------------------------------------------------------------------------------
 (7) i1___fladd                                           16     8      8    3992
                                             13 BANK0     16     8      8
                          i1___flmul (ARG)
 ---------------------------------------------------------------------------------
 (8) i1___flneg                                            4     0      4     135
                                             22 COMRAM     4     0      4
 ---------------------------------------------------------------------------------
 (7) i1___flmul                                           25    17      8    3383
                                             36 COMRAM    12     4      8
                                              0 BANK0     13    13      0
                         i1___xxtofl (ARG)
 ---------------------------------------------------------------------------------
 (7) i1___fldiv                                           25    17      8    2033
                                             29 BANK0     25    17      8
                          i1___fladd (ARG)
                          i1___flmul (ARG)
                         i1___xxtofl (ARG)
 ---------------------------------------------------------------------------------
 (8) _fabsf                                                8     4      4     161
                                             22 COMRAM     8     4      4
 ---------------------------------------------------------------------------------
 (8) ___fpclassifyf                                       14    10      4     285
                                             22 COMRAM    14    10      4
 ---------------------------------------------------------------------------------
 (7) ___fleq                                              12     4      8     494
                                             22 COMRAM    12     4      8
 ---------------------------------------------------------------------------------
 Estimated maximum stack depth 8
 ---------------------------------------------------------------------------------
 (Depth) Function   	        Calls       Base Space   Used Autos Params    Refs
 ---------------------------------------------------------------------------------
 (10) _myHighIsr                                           8     8      0    1721
                                             14 COMRAM     8     8      0
                            ___awdiv
                             ___wmul
 ---------------------------------------------------------------------------------
 (11) ___wmul                                              6     2      4     767
                                              0 COMRAM     6     2      4
 ---------------------------------------------------------------------------------
 (11) ___awdiv                                             8     4      4     908
                                              6 COMRAM     8     4      4
                             ___wmul (ARG)
 ---------------------------------------------------------------------------------
 Estimated maximum stack depth 11
 ---------------------------------------------------------------------------------

 Call Graph Graphs:

 _main (ROOT)
   _Initialisation
     _BP_Get_Falling_Edge
     _BT_Enable
     _Compass_Calibre
       _ENC_Set_Value
       _LCD_Goto
         _LCD_Write
           _lcdNibble
       _LCD_Print
         _LCD_Write
       _Motors_Enable
       _Motors_Speed
       _Motors_Turn_Angle
         _Motors_Get_Enc_Left
         _Motors_Get_Enc_Right
         _Motors_Speed
         ___fladd
           ___flmul (ARG)
             ___xxtofl (ARG)
           ___xxtofl (ARG)
         ___flmul
         ___flsub
           ___fladd
           ___xxtofl (ARG)
         ___fltol
         ___xxtofl
       _SSP2_Read
       _SSP2_Write
       ___aldiv
       ___fldiv
         ___xxtofl (ARG)
       ___flneg
       ___xxtofl
     _Compass_Init
       _LCD_Clear
         _LCD_Write
       _LCD_Goto
       _LCD_Print
       _SSP2_Read
       _SSP2_Write
     _ENC_Get_Value
     _ENC_Set_Value
     _LCD_Clear
     _LCD_Goto
     _LCD_Init
       _LCD_Clear
       _LCD_Write
       _lcdNibble
     _LCD_Print
     _LCD_Retro
     _LIDAR_Motor_Enable

 _myLowIsr (ROOT)
   ___fleq
   _atanf
     ___fpclassifyf
     _fabsf
     i1___fladd
       i1___flmul (ARG)
         i1___xxtofl (ARG)
     i1___fldiv
       i1___fladd (ARG)
       i1___flmul (ARG)
       i1___xxtofl (ARG)
     i1___flmul
     i1___flneg
     i1___flsub
       i1___fladd
       i1___flmul (ARG)
     i1___xxtofl (ARG)
   i1_SSP2_Read
   i1_SSP2_Write
   i1___aldiv
   i1___fladd
   i1___fldiv
   i1___flmul
   i1___fltol
     i1___flmul (ARG)
     i1___xxtofl (ARG)
   i1___xxtofl

 _myHighIsr (ROOT)
   ___awdiv
     ___wmul (ARG)
   ___wmul

 Address spaces:
Name               Size   Autos  Total    Cost      Usage
BIGRAM             E87      0       0      79        0.0%
EEDATA             400      0       0       0        0.0%
BITBANK13          100      0       0      30        0.0%
BANK13             100      0       0      31        0.0%
BITBANK12          100      0       0      28        0.0%
BANK12             100      0       0      29        0.0%
BITBANK11          100      0       0      26        0.0%
BANK11             100      0       0      27        0.0%
BITBANK10          100      0       0      24        0.0%
BANK10             100      0       0      25        0.0%
BITBANK9           100      0       0      22        0.0%
BANK9              100      0       0      23        0.0%
BITBANK8           100      0       0      20        0.0%
BANK8              100      0       0      21        0.0%
BITBANK7           100      0       0      18        0.0%
BANK7              100      0       0      19        0.0%
BITBANK6           100      0       0      16        0.0%
BANK6              100      0       0      17        0.0%
BITBANK5           100      0       0      14        0.0%
BANK5              100      0       0      15        0.0%
BITBANK4           100      0       0      12        0.0%
BANK4              100      0       0      13        0.0%
BITBANK3           100      0       0      10        0.0%
BANK3              100      0       0      11        0.0%
BITBANK2           100      0       0       8        0.0%
BANK2              100      0       0       9        0.0%
BITBANK1           100      0       0       6        0.0%
BANK1              100     93      CA       7       78.9%
BITBANK0            A0      0       0       4        0.0%
BANK0               A0     4B      8A       5       86.2%
BITBANK14           88      0       0      32        0.0%
BANK14              88      0       0      33        0.0%
BITCOMRAM           5E      0       0       0        0.0%
COMRAM              5E     32      48       1       76.6%
BITBIGSFRlhlhlh     28      0       0      55        0.0%
BITBIGSFRhhhhlh     1F      0       0      35        0.0%
BITBIGSFRlhlhhh     19      0       0      52        0.0%
BITBIGSFRlhlllh     15      0       0      73        0.0%
BITBIGSFRlhllhl     12      0       0      66        0.0%
BITBIGSFRlhlhll     10      0       0      64        0.0%
BITBIGSFRhhhhh       D      0       0      34        0.0%
BITBIGSFRhhhlll      8      0       0      50        0.0%
BITBIGSFRlhlhll      7      0       0      61        0.0%
BITBIGSFRlhlhlh      6      0       0      56        0.0%
BITBIGSFRlhlhll      4      0       0      63        0.0%
BITBIGSFRlhlllh      4      0       0      72        0.0%
BITBIGSFRhhhlll      4      0       0      48        0.0%
BITBIGSFRlhlhlh      3      0       0      59        0.0%
BITBIGSFRlhlhll      3      0       0      60        0.0%
BITBIGSFRlhlhlh      3      0       0      58        0.0%
BITBIGSFRlhlllh      3      0       0      70        0.0%
BITBIGSFRlhlhlh      3      0       0      54        0.0%
BITBIGSFRlhlhlh      3      0       0      57        0.0%
BITBIGSFRlhllhl      3      0       0      68        0.0%
BITBIGSFRlhlhhl      3      0       0      53        0.0%
BITBIGSFRlhllhl      2      0       0      67        0.0%
BITBIGSFRlhlllh      2      0       0      71        0.0%
BITBIGSFRlhlllh      2      0       0      69        0.0%
BITBIGSFRhhhlll      2      0       0      43        0.0%
BITBIGSFRhhhlhh      2      0       0      38        0.0%
BITBIGSFRhhhhlh      2      0       0      36        0.0%
BITBIGSFRhhhlhl      2      0       0      41        0.0%
BITBIGSFRhhhhll      2      0       0      37        0.0%
BITBIGSFRhhhlll      1      0       0      44        0.0%
BITBIGSFRhhhlhh      1      0       0      39        0.0%
BITBIGSFRllllh       1      0       0      76        0.0%
BITBIGSFRlhlhll      1      0       0      62        0.0%
BITBIGSFRhhhlll      1      0       0      47        0.0%
BITBIGSFRhhhlll      1      0       0      46        0.0%
BITBIGSFRhhhlll      1      0       0      45        0.0%
BITBIGSFRlllh        1      0       0      75        0.0%
BITBIGSFRlhllhh      1      0       0      65        0.0%
BITBIGSFRlhlllh      1      0       0      74        0.0%
BITBIGSFRhhhlll      1      0       0      49        0.0%
BITBIGSFRhhhlhh      1      0       0      40        0.0%
BITBIGSFRhhhllh      1      0       0      42        0.0%
BITBIGSFRhl          1      0       0      51        0.0%
BITBIGSFRlllll       1      0       0      77        0.0%
BIGSFR               0      0       0     200        0.0%
BITSFR_2             0      0       0     200        0.0%
SFR_2                0      0       0     200        0.0%
BITSFR_1             0      0       0     200        0.0%
SFR_1                0      0       0     200        0.0%
BITSFR               0      0       0     200        0.0%
SFR                  0      0       0     200        0.0%
STACK                0      0       0       2        0.0%
NULL                 0      0       0       0        0.0%
ABS                  0      0     19C      78        0.0%
DATA                 0      0     19C       3        0.0%
CODE                 0      0       0       0        0.0%


Microchip Technology PIC18 Macro Assembler V2.46 build 20240104201356 
Symbol Table                                                                                   Mon May 12 16:29:47 2025

                ___fldiv@aexp 0150                  ___fldiv@bexp 014F                   i1___fladd@a 0071  
                 i1___fladd@b 006D                ??_Compass_Init 0130                  ___fldiv@sign 0148  
                 i1___fldiv@a 0081                   i1___fldiv@b 007D                  ___awdiv@sign 000C  
                 i1___flmul@a 0029                   i1___flmul@b 0025                            bsr 0FE0  
                 i1___flsub@a 0081                   i1___flsub@b 007D           ___wmul@multiplicand 0003  
               _Old_BP_Status 0047                    i1___xxtofl 3632                  i1___flneg@f1 0017  
                         l330 44E0                           l501 4682                           l333 45C2  
                         l325 3F72                           l336 43D4                           l344 43B6  
                         l338 43F8                           l522 3478                           l347 41B0  
                         l507 4670                           l541 4600                           l535 4438  
                         l561 2A5A                           l538 4580                           l714 465E  
                         l492 46A2                           l549 3954                           l750 4064  
                         _ADR 00AF                           l495 45A2                           l751 4062  
                         l760 40C0                           l489 4698                           l753 4084  
                         l498 455E                           l762 40E2                           l754 4082  
                         l763 40E0                           l747 4044                           l780 461E  
                         l756 40A2                           l748 4042                           l765 40F8  
                         l757 40A0                           l759 40C2                           l866 148C  
                         _GIE 7F97                           _BTC 00CD                           _PR2 0FBC  
                         _PR4 0FB6                           _aT0 FEA3                           _aT1 FE9F  
                         _aT2 FE9B                           _aT3 FE97                           _aT4 FE93  
                         _kim 00D8                           _kpm 00DC                  i1___fltol@f1 006D  
                         wreg 0FE8                 i1___fladd@grs 007C                    _TXSTA1bits 0F9E  
                  _TXSTA2bits 0E9E               lcdNibble@nibble 012B                  ___flmul@aexp 0149  
                ___flmul@bexp 014A                  ___flmul@sign 0144                  ___flmul@temp 014F  
                ___flmul@prod 014B                i1___aldiv@sign 0020                 i1___fldiv@grs 0090  
               i1___fldiv@rem 0089                  ___fltol@exp1 0133               ??_ENC_Get_Value 012C  
                        l1043 4688                          l1044 4688                          l1128 3A62  
                        l1323 4472                          l1346 3C76                          l1603 1868  
                        l1604 1856                          l1711 356C                          l1631 2DF6  
                        l1704 34D4                          l5001 40FE                          l1633 2C56  
                        l1642 2C9C                          l5003 4190                          l5011 148E  
                        l1619 4328                          l1707 3630                          l1644 2D14  
                        l1636 2C1A                          l5005 4192                          l5101 164C  
                        l5021 14CC                          l5013 149C                          l1645 2D02  
                        l1670 20CE                          l1718 35C8                          l5007 41A0  
                        l1663 1ED8                          l5111 168C                          l5103 1650  
                        l5031 14FC                          l5023 14DC                          l5015 14AA  
                        l1680 21FE                          l1672 2146                          l5009 41A2  
                        l1673 2134                          l5201 1926                          l5121 16CE  
                        l5113 169C                          l5105 165E                          l1577 167E  
                        l5041 1526                          l5033 150E                          l5025 14DE  
                        l5017 14AC                          l6001 3898                          l1594 1798  
                        l1586 194E                          l1578 166C                          l1667 223C  
                        l5203 1928                          l5131 16FC                          l5123 16DC  
                        l5107 1660                          l1579 1632                          l5043 1536  
                        l5051 1560                          l5035 1510                          l5019 14BC  
                        l5027 14E6                          l6003 38AC                          l6011 38FA  
                        l5221 43EE                          l5213 43BC                          l5301 2000  
                        l5205 192E                          l5141 1768                          l5133 1706  
                        l5125 16E8                          l5117 16B0                          l5109 166A  
                        l5061 1598                          l5053 1570                          l5045 1546  
                        l5037 1516                          l5029 14F6                          l6101 28AC  
                        l6021 3942                          l6013 3904                          l6005 38B6  
                        l5215 43CE                          l5223 4586                          l5311 2096  
                        l5303 200C                          l5231 1E12                          l5207 193C  
                        l5143 1778                          l5127 16EC                          l5119 16C0  
                        l5135 170C                          l5071 15AC                          l5063 159C  
                        l5055 1582                          l5047 1556                          l5039 1524  
                        l6111 28F6                          l6103 28BC                          l6031 2694  
                        l6023 266A                          l6015 3912                          l6007 38C4  
                        l5217 43D6                          l5225 4594                          l5321 20EC  
                        l5313 20B4                          l5305 2028                          l5241 1E50  
                        l5233 1E20                          l5209 193E                          l5161 17FA  
                        l5153 17D2                          l5137 1732                          l5145 1788  
                        l5129 16FA                          l5081 15C0                          l5073 15B0  
                        l5065 15A0                          l5057 1590                          l5049 1558  
                        l5401 3C36                          l6121 2A16                          l6113 29D0  
                        l6105 28C8                          l6033 26A2                          l6025 2670  
                        l6017 392C                          l6009 38DE                          l5219 43E4  
                        l5227 4672                          l5331 2156                          l5323 20F0  
                        l5315 20BE                          l5307 2052                          l5251 1E82  
                        l5243 1E60                          l5235 1E2E                          l5163 1802  
                        l5155 17DC                          l5147 17AE                          l5139 1766  
                        l5171 1826                          l5091 15D4                          l5083 15C4  
                        l5075 15B4                          l5067 15A4                          l5059 1594  
                        l5403 3C46                          l5411 347E                          l6123 2A24  
                        l6115 29E0                          l6107 28E2                          l6051 26D8  
                        l6043 26C6                          l6035 26A8                          l6027 267A  
                        l6019 3932                          l6131 403C                          l5229 4660  
                        l5341 21B8                          l5333 2162                          l5325 20FE  
                        l5317 20CC                          l5309 2088                          l5261 1EC2  
                        l5253 1E90                          l5245 1E66                          l5237 1E30  
                        l5181 1878                          l5173 182A                          l5165 1806  
                        l5157 17EA                          l5149 17BE                          l5093 15FE  
                        l5085 15C8                          l5077 15B8                          l5069 15A8  
                        l5405 3C56                          l5413 3490                          l5501 335C  
                        l6125 2A32                          l6117 2A04                          l6109 28E6  
                        l6061 272C                          l6053 26EA                          l6037 26C0  
                        l6029 2688                          l6141 4092                          l6133 4052  
                        l5351 2220                          l5343 21CC                          l5335 2170  
                        l5327 212C                          l5319 20DE                          l5271 1F0C  
                        l5263 1EC8                          l5255 1E92                          l5247 1E76  
                        l5239 1E40                          l5191 18DE                          l5183 1884  
                        l5175 1838                          l5167 1816                          l5159 17EC  
                        l5095 161A                          l5087 15CC                          l5079 15BC  
                        l5407 3C66                          l5431 3556                          l5423 350E  
                        l5415 349E                          l5511 33E4                          l5503 337C  
                        l6127 2A4C                          l6119 2A10                          l6071 2794  
                        l6063 2734                          l6055 2708                          l6151 40D8  
                        l6143 409A                          l6135 405A                          l5353 2222  
                        l5345 21E6                          l5337 219A                          l5281 1F5C  
                        l5273 1F18                          l5265 1EE8                          l5257 1EA2  
                        l5249 1E7C                          l5193 18EE                          l5185 1892  
                        l5177 184E                          l5169 1818                          l5097 162A  
                        l5089 15D0                          l5361 42E2                          l5441 35D6  
                        l5433 3562                          l5425 3516                          l5417 34E4  
                        l5513 33F8                          l5505 3390                          l5521 344A  
                        l5601 2AAC                          l6081 27FE                          l6073 27B0  
                        l6065 2746                          l6057 2710                          l6049 26CA  
                        l6129 4652                          l6153 40F0                          l6145 40B0  
                        l6137 4072                          l6155 4606                          l5347 2202  
                        l5355 2228                          l5339 219E                          l5291 1F9E  
                        l5283 1F68                          l5275 1F22                          l5267 1EF8  
                        l5259 1EB2                          l5195 190E                          l5187 18CC  
                        l5099 1640                          l5363 42F4                          l5451 361E  
                        l5443 35D8                          l5435 359E                          l5427 3522  
                        l5419 34FA                          l5523 3462                          l5515 341C  
                        l5507 33B4                          l5531 4578                          l5611 2ADE  
                        l5603 2AB4                          l6091 285E                          l6083 2810  
                        l6075 27B8                          l6067 277A                          l6059 271A  
                        l6147 40B8                          l6139 407A                          l5461 44B0  
                        l5357 222C                          l5349 2212                          l5293 1FAA  
                        l5285 1F74                          l5277 1F38                          l5197 1912  
                        l5189 18CE                          l5381 3BDC                          l5373 3B9C  
                        l5453 3620                          l5445 35DC                          l5437 35AA  
                        l5429 3554                          l5517 342C                          l5509 33C4  
                        l5541 45FC                          l5533 457C                          l5525 4564  
                        l5701 2D6C                          l5621 2B12                          l5613 2AE0  
                        l5605 2AC4                          l6093 287C                          l6085 2830  
                        l6077 27CA                          l6069 278C                          l6149 40D0  
                        l5463 44B2                          l5471 4376                          l5295 1FBA  
                        l5287 1F82                          l5279 1F44                          l5199 1920  
                        l5391 3C0C                          l5383 3BEA                          l5375 3BC6  
                        l5367 3B70                          l5447 3600                          l5439 35B8  
                        l5519 3438                          l5535 45E8                          l5527 4570  
                        l5551 397E                          l5543 3956                          l5711 2DD6  
                        l5703 2D86                          l5631 2B58                          l5615 2AF0  
                        l5623 2B1A                          l5607 2ACA                          l6095 2884  
                        l6087 2838                          l6079 27F4                          l5465 44C4  
                        l5473 4390                          l5481 4552                          l5297 1FD4  
                        l5289 1F8E                          l5393 3C16                          l5377 3BC8  
                        l5369 3B88                          l5449 3610                          l5537 45F4  
                        l5529 4574                          l5561 39C6                          l5553 398C  
                        l5545 395C                          l5713 2DE4                          l5705 2D9C  
                        l5641 2B80                          l5633 2B5C                          l5625 2B2A  
                        l5617 2B00                          l5609 2AD0                          l6097 28A2  
                        l6089 2856                          l5457 45A4                          l6601 0FE6  
                        l5467 44D4                          l5475 4396                          l5299 1FE4  
                        l5379 3BD8                          l5491 31DE                          l5483 3194  
                        l5539 45F8                          l5571 3A10                          l5563 39CE  
                        l5555 399C                          l5547 396A                          l5715 2DEA  
                        l5707 2DB6                          l5651 2BCE                          l5627 2B40  
                        l5619 2B10                          l6099 28AA                          l5459 45B0  
                        l6611 0FF0                          l6603 0FE8                          l5477 469A  
                        l5469 4372                          l5389 3C02                          l5493 31EE  
                        l5485 31BC                          l5581 3A42                          l5573 3A20  
                        l5565 39DA                          l5557 39A0                          l5549 397A  
                        l5717 2DEC                          l5709 2DD2                          l5661 2C18  
                        l5653 2BDE                          l5645 2B94                          l5629 2B50  
                        l5637 2B70                          l5725 443A                          l6701 10F8  
                        l6621 0FFA                          l6613 0FF2                          l6605 0FEA  
                        l5479 4540                          l5399 3C2A                          l5495 325E  
                        l5487 31CE                          l5583 3A52                          l5575 3A22  
                        l5567 39E8                          l5559 39B0                          l5671 2C66  
                        l5663 2C24                          l5655 2BE6                          l5647 2BAE  
                        l5639 2B80                          l5591 2A78                          l5727 4452  
                        l6711 115E                          l6703 110A                          l6631 1004  
                        l6623 0FFC                          l6615 0FF4                          l6607 0FEC  
                        l5497 327A                          l5489 31DE                          l5577 3A2C  
                        l5569 39F2                          l5673 2C7C                          l5681 2CAC  
                        l5665 2C42                          l5657 2BF6                          l5649 2BBE  
                        l5593 2A7A                          l5729 4462                          l6801 1470  
                        l6713 1168                          l6721 1196                          l6705 1126  
                        l6641 100E                          l6633 1006                          l6625 0FFE  
                        l6617 0FF6                          l6609 0FEE                          l6561 0F36  
                        l5499 32CC                          l5579 3A32                          l5683 2CBA  
                        l5675 2C82                          l5667 2C44                          l5659 2C0A  
                        l5595 2A8A                          l5587 2A5C                          l6803 1488  
                        l6731 120A                          l6715 117A                          l6707 1132  
                        l6723 11C0                          l6651 1018                          l6643 1010  
                        l6635 1008                          l6627 1000                          l6619 0FF8  
                        l6571 0F40                          l6563 0F38                          l5693 2D24  
                        l5685 2CBE                          l5677 2C8C                          l5669 2C54  
                        l5597 2A9A                          l5589 2A6A                          l5941 3EA2  
                        l6741 125E                          l6733 1216                          l6725 11D4  
                        l6717 1184                          l6709 114E                          l6661 1024  
                        l6653 101C                          l6645 1012                          l6637 100A  
                        l6629 1002                          l6581 0F4E                          l6573 0F42  
                        l6565 0F3A                          l6557 0EAA                          _ADGO 7B00  
                        l5695 2D30                          l5687 2CCC                          l5679 2C9A  
                        l5599 2AAA                          l5951 3F08                          l5943 3EBA  
                        l5935 3E7E                          l6751 12B0                          l6743 127A  
                        l6735 1224                          l6727 11EC                          l6671 1036  
                        l6663 1026                          l6655 101E                          l6647 1014  
                        l6639 100C                          l6591 0F58                          l6583 0F50  
                        l6575 0F44                          l6567 0F3C                          l6559 0ECE  
                        l5697 2D3E                          l5689 2CFA                          l5961 3F6C  
                        l5953 3F1A                          l5945 3ECC                          l5937 3E82  
                        l6761 1318                          l6745 128A                          l6737 1236  
                        l6729 11F2                          l6681 104E                          l6673 103A  
                        l6665 1028                          l6657 1020                          l6649 1016  
                        l6593 0F5E                          l6585 0F52                          l6577 0F4A  
                        l6569 0F3E                          l5971 4426                          l5699 2D68  
                        l5963 3F70                          l5955 3F38                          l5947 3EE4  
                        l5939 3E9C                          l6771 1368                          l6763 1330  
                        l6747 1294                          l6755 12C2                          l6739 1252  
                        l6691 10A8                          l6683 105C                          l6675 103E  
                        l6667 102A                          l6659 1022                          l6595 0FE0  
                        l6587 0F54                          l6579 0F4C                          l5973 442E  
                        l5981 37F2                          l5965 4690                          l5957 3F3C  
                        l5949 3EEA                          l6781 13CE                          l6773 137A  
                        l6765 1334                          l6749 12A6                          l6757 12EC  
                        l9093 11AA                          l6693 10B4                          l6685 1068  
                        l6677 1040                          l6669 1030                          l6597 0FE2  
                        l6589 0F56                          l5975 4432                          l5967 43FA  
                        l5991 3846                          l5983 3800                          l5959 3F5A  
                        l6783 13D8                          l6791 1406                          l6775 1396  
                        l6767 134E                          l6759 1300                          l9095 12D6  
                        l6695 10DA                          l6687 108E                          l6679 1042  
                        l6599 0FE4                          l5969 4414                          l5993 3858  
                        l5985 381A                          l9097 141A                          l6785 13EA  
                        l6777 13A2                          l6793 1430                          l6769 135A  
                        l6697 10DE                          l6689 109A                          l5995 3868  
                        l5987 3832                          l5979 37E6                          l6795 1444  
                        l6787 13F4                          l6779 13BE                          l6699 10EA  
                        l5997 387A                          l5989 3836                          l6797 145C  
                        l5999 3886                          l6799 1462                          l7991 4684  
                        STR_1 FF51                          STR_2 FEA7                          STR_3 FF51  
                        STR_4 FEC9                          STR_5 FFA6                          STR_6 FF40  
                        STR_7 FF0D                          STR_8 FEDA                          STR_9 FF2F  
                        _GIEH 7F97                          _GIEL 7F96                          u5000 1732  
                        u5001 172E                          u5010 1778                          _T2PR 0FBC  
                        u5011 1774                          u5100 1864                          u5020 17AE  
                        u5101 1860                          u5021 17AA                          u5110 1878  
                        u5030 17BE                          u5111 1874                          u5031 17BA  
                        u5200 1E2E                          u5120 1892                          u5040 17EA  
                        _IPEN 7F95                          u5201 1E2A                          u5121 188E  
                        u5041 17E6                          u5210 1E40                          u5130 18CC  
                        u5050 17FA                          u5211 1E3C                          u5131 18C8  
                        u5051 17F6                          u5300 20EC                          u5220 1E50  
                        u5140 18DE                          u5060 1816                          u5301 20E8  
                        u5221 1E4C                          u5141 18DA                          u5061 1812  
                        u5310 20FE                          u5230 1E90                          u5150 18EE  
                        u5070 1826                          u5311 20FA                          u5231 1E8C  
                        u5151 18EA                          u5071 1822                          u5320 212C  
                        u5240 1EA2                          u5160 190E                          u5080 1838  
                        u5400 3BBC                          u5321 2128                          u5241 1E9E  
                        u5161 190A                          u5081 1834                          u5330 2142  
                        u5250 1EB2                          u5170 1920                          u5090 184E  
                        u5410 3BEA                          _T6PR 0FB0                          _READ 0045  
                        u5331 213E                          u5251 1EAE                          u5171 191C  
                        u5091 184A                          u5411 3BE6                          _PEIE 7F96  
                        u5340 2156                          u5260 1EE8                          u5180 193C  
                        u5420 3BFE                          u5500 359A                          u5341 2152  
                        u5261 1EE4                          u5181 1938                          u5421 3BFA  
                        u5405 3BB2                          u5501 3596                          u5190 43CE  
                        u5350 2170                          u5270 1EF8                          u5430 3C26  
                        u5510 35B8                          u5191 43CA                          u5351 216C  
                        u5271 1EF4                          u5431 3C22                          u5511 35B4  
                        u4720 4112                          u5360 21B8                          u5280 2072  
                        u4800 14AA                          u5440 3C46                          u5520 35C8  
                        u5600 33B4                          u6400 28BC                          u7200 1126  
                        u4721 410A                          u5361 21B4                          u4801 14A6  
                        u5441 3C42                          u5521 35C4                          u5601 33B0  
                        u6401 28B8                          u7201 1122                          u5370 21E6  
                        u5290 20CC                          u4810 14BC                          u5450 3C56  
                        u5530 35D6                          u5610 33E4                          u6410 28F6  
                        u7210 114E                          u5371 21E2                          u5291 20C8  
                        u4811 14B8                          u5451 3C52                          u5531 35D2  
                        u5611 33E0                          u6411 28F2                          u7211 114A  
                        u6340 4426                          u6500 461A                          u4740 4138  
                        u5380 2220                          u4900 1616                          u4820 14CC  
                        u5540 3610                          u5460 3490                          u5620 341C  
                        u5700 3A42                          u6420 29E0                          u7300 1444  
                        u7220 11D4                          u6341 4422                          u6501 4612  
                        u4741 4130                          u5381 221C                          u5285 2068  
                        u4901 1610                          u4821 14C8                          u5541 360C  
                        u5461 348C                          u5621 3418                          u5701 3A3E  
                        u6421 29DC                          u7301 1440                          u7221 11D0  
                        u4910 1618                          u4830 150E                          u5390 3B88  
                        u5550 361E                          u5470 349E                          u5630 3462  
                        u5710 2A78                          u6350 38AC                          u7310 145C  
                        u7230 11EC                          u4831 150A                          u5391 3B84  
                        u5551 361A                          u5471 349A                          u5631 345E  
                        u5711 2A74                          u6351 38A8                          u7311 1458  
                        u7231 11E8                          u4760 415C                          u5560 44C4  
                        u4920 1640                          u4840 1524                          u5480 34FA  
                        u5640 3478                          u5800 2C18                          u5720 2A8A  
                        u6360 2830                          u6440 4052                          u7240 1252  
                        u4761 4154                          u5561 44C0                          u4921 163C  
                        u4841 1520                          u5481 34F6                          u5641 3474  
                        u5801 2C14                          u5721 2A86                          u6361 282C  
                        u6441 404E                          u7241 124E                          u4738 4116  
                        u5570 43B6                          u4930 165E                          u4850 1536  
                        u5490 3550                          u5650 396A                          u5810 2C42  
                        u5730 2A9A                          u6370 2856                          u6450 4072  
                        u7250 127A                          u6515 461E                          u5571 43B2  
                        u4931 165A                          u4851 1532                          u5491 354C  
                        u5651 3966                          u5811 2C3E                          u5731 2A96  
                        u6371 2852                          u6435 465C                          u6451 406E  
                        u7251 1276                          u4780 417E                          u4940 167E  
                        u4860 1546                          u5660 398C                          u5900 2D3E  
                        u5820 2C66                          u5740 2ADE                          u6380 287C  
                        u6436 465E                          u6460 4092                          u7260 1300  
                        u4781 4176                          u4941 167A                          u4861 1542  
                        u5661 3988                          u5901 2D3A                          u5821 2C62  
                        u5741 2ADA                          u6381 2878                          u6461 408E  
                        u7261 12FC                          u4758 413C                          u4950 168C  
                        u4870 1582                          u5590 337C                          u5670 39C6  
                        u5910 2D86                          u5830 2C7C                          u5750 2AF0  
                        u6390 28A2                          u6470 40B0                          u7270 1318  
                        u4951 1688                          u4871 157E                          u5591 3378  
                        u5671 39C2                          u5911 2D82                          u5831 2C78  
                        u5751 2AEC                          u6391 289E                          u6471 40AC  
                        u7271 1314                          u4960 169C                          u4880 1590  
                        u5680 39E8                          u5920 2DB6                          u5840 2C9A  
                        u5760 2B00                          u6480 40D0                          u7280 1396  
                        u5585 455C                          u4961 1698                          u4881 158C  
                        u5681 39E4                          u5921 2DB2                          u5841 2C96  
                        u5761 2AFC                          u6481 40CC                          u7281 1392  
                        u4778 4160                          u5586 455E                          u4970 16CE  
                        u4890 15FE                          u5690 3A10                          u5930 2DE4  
                        u5850 2CBA                          u5770 2B40                          u6490 40F0  
                        u7290 13BE                          u4971 16CA                          u4891 15FA  
                        u5691 3A0C                          u5931 2DE0                          u5851 2CB6  
                        u5771 2B3C                          u6491 40EC                          u7291 13BA  
                        u4980 16DC                          u5860 2CCC                          u5780 2B80  
                        u5940 4452               LCD_Goto@colonne 012E                          u4981 16D8  
                        u5861 2CC8                          u5781 2B7C                          u5941 444E  
                        u4798 4182                          u4990 16FA                          u5870 2CFA  
                        u5790 2BF6                          u4991 16F6                          u5871 2CF6  
                        u5791 2BF2                          u5880 2D10                          u5881 2D0C  
                        u5890 2D24                          u5891 2D20                          _TMR1 0FCD  
                        _TMR3 0FC7                          _TMR5 0FC1             ??_Compass_Calibre 018B  
                        _WPUA 0F10                          _WPUB 0F18                          _WPUC 0F20  
                        _WPUD 0F25                          _WPUE 0F2D                          _main 4684  
               _consignevitrc 003B                 i1___flmul@grs 0062                          _sens 003C  
                        fsr1l 0FE1                          btemp 0049                 ___fpclassifyf 3D80  
                        prodh 0FF4                          prodl 0FF3                i1___fladd@aexp 007A  
              i1___fladd@bexp 007B                          start 0B7A               ___fldiv@new_exp 0149  
                ___param_bank 0000              __end_of_LCD_Init 3F74              __end_of_LCD_Goto 44E2  
              i1___fldiv@aexp 0095                i1___fldiv@bexp 0094           _Motors_Get_Enc_Left 4672  
                _BAUDCON1bits 0F9F                  _BAUDCON2bits 0E9F                i1___fldiv@sign 008D  
               ___fltol@sign1 0132               __end_of___aldiv 3A64               __end_of___fladd 1950  
                       ?_main 0001                         _ADCLK 0F57                         _ADPCH 0F5F  
             __end_of___fldiv 2DF8                         _ADREF 0F58               __end_of___awdiv 4038  
             __end_of___flneg 4474                         _CENCA 00D3                         _CENCB 00D2  
                       STR_10 FEB8                         STR_11 FFFD                         STR_12 FFFB  
                       STR_20 FF73                         STR_21 FFC8                         STR_30 FEEB  
                       STR_22 FFEA                         STR_31 FEFC                         STR_23 FF84  
                       STR_24 FEEB                         STR_17 FFB7                         STR_25 FEFC  
                       STR_26 FF95                         STR_18 FF62                         STR_27 FEEB  
                       STR_19 FFD9                         STR_28 FEFC                         STR_29 FF1E  
             __end_of___flmul 223E               __end_of___flsub 432A               __end_of___fltol 3C78  
                       u11007 40F2                         u11017 3E8E                         u11107 3826  
                       u11027 3EAA                         u11117 384E                         u11037 3EC2  
                       u11207 2722                         u11127 3870                         u11047 3EDA  
                       u11217 2782                         u11137 388E                         u11057 3EF2  
                       u11227 27A6                         u11147 38EA                         u11067 3F10  
             ___awdiv@divisor 0009                         u11237 2806                         u11157 394A  
                       u11077 3F2E                         u11247 28D4                         u11167 45B8  
                       u11087 3F44                         _T1CON 0FCF                         u11257 3440  
                       u11177 26B4                         u11097 3F62                         u11267 43D8  
                       u11187 26E0                         u11277 4194                         u11197 26FE  
                       u11287 41A4                         _T2CON 0FBD                         u11297 4402  
                       u10907 10CE                         u10917 11FE                         u10927 1324  
                       _T3CON 0FC9                         u10937 1340                         u10947 147C  
                       _RC1IE 762D                         _RC1IF 766D                         u10957 4054  
                       u10967 4074                         _RC2IE 762F                         _T4CON 0FB7  
                       _RC2IF 766F                         u10977 4094                         u10897 1082  
                       u10987 40B2                         u10997 40D2                         _RC1IP 75ED  
                       _T5CON 0FC3                         _RC2IP 75EF                         _CSSP2 0046  
                       _T6CON 0FB1                         _IOCIE 7614                         _IOCIF 7654  
                       _IOCIP 75D4                         i1l541 463A                         i1l538 45E2  
                       i1l920 06E0                         i1l923 0706                         i1l940 0B40  
                       i1l925 07C2                         i1l927 07EC                         i1l871 0436  
                       i1l944 0B52                         i1l883 03AC                         i1l875 0432  
                       i1l885 03F0                         i2l962 088E                         i2l955 07FA  
             ___awdiv@counter 000B                         i2l981 0A4A                         i2l982 0A56  
                       i2l974 09D0                         i2l975 09DC                         i2l984 0A70  
                       i2l976 09E8                         i2l985 0A7A                         i2l977 0ABE  
                       i2l969 0AC0                         i2l987 0C48                         i2l996 0B36  
                       i2l998 0B66               ??_ENC_Set_Value 012C                         _TRISA 0F88  
                       _TRISB 0F89                         _TRISC 0F8A                         _TRISD 0F8B  
                       _TRISE 0F8C                         _WRITE 0044                         _fabsf 44E2  
                       _atanf 0000                i1___flmul@aexp 0061                i1___flmul@bexp 0066  
              i1___flmul@sign 0060                i1___flmul@temp 006B                i1___flmul@prod 0067  
                       _pwmdc 00B9                         _pwmgc 00BB          ?_Motors_Get_Enc_Left 012A  
                       tablat 0FF5                i1___fltol@exp1 0032                         ttemp5 004A  
                       ttemp6 004D                         ttemp7 0051                   ?_SSP2_Write 012A  
                       status 0FD8                         wtemp8 004A                ?___fpclassifyf 0017  
             i1___fladd@signs 0079               __initialization 425C                  __end_of_main 4690  
                ?i1_SSP2_Read 0017                        ??_main 0193                   ?i1___xxtofl 0017  
           __end_of_LCD_Clear 45C4                 __activetblptr 0003             __end_of_LCD_Retro 4660  
           __end_of_LCD_Print 43B8             __end_of_LCD_Write 43FA          _Motors_Get_Enc_Right 4660  
                      ?_fabsf 0017                        ?_atanf 0096                        _ADCON0 0F60  
                      _ADCON1 0F59                        _ADCON2 0F5A                        _ADCON3 0F5B  
                      _ADRESH 0F64             __end_of_BT_Enable 4620                        _CCPR1H 0FAB  
                      _CCPR2H 0FA7                        _CCPR1L 0FAA                        _CCPR2L 0FA6  
            ___awdiv@dividend 0007                        _ANSELA 0F11         ??_Motors_Get_Enc_Left 012E  
                      _ANSELB 0F19                        _ANSELC 0F21                        _ANSELD 0F26  
                      _ANSELE 0F2E          __end_of_Compass_Init 3956                        _IOCBF0 7890  
                      _IOCAF6 7856                        _IOCCF2 78D2                        _IOCCF5 78D5  
                      _IOCBN0 7898                        _IOCAN6 785E                        _IOCBP0 78A0  
                      _IOCAP6 7866                        _IOCCN2 78DA                        _RA0PPS 0EE7  
                      _IOCCN5 78DD                        _IOCCP2 78E2                        _IOCCP5 78E5  
                      _RC1REG 0F99                        _RC2REG 0E99                        _RC1PPS 0EF8  
                      _MAGN_X 01BB                        _MAGN_Y 01B5                        _RD1PPS 0F00  
                      _RD2PPS 0F01                        i1l1128 3B6E                        i1l1323 44AA  
                      _RD3PPS 0F02                        i1l1308 425A                        i1l1346 3D7E  
                      i1l1603 1D2A                        _RC6PPS 0EFD                        i1l1604 1D18  
                      _CPT_BT 00CE                        i1l1631 3192                        i1l1711 3720  
                      i2l1000 0B96                        i1l1704 3688                        i1l1633 2FF2  
                      i2l1002 0BC6                        i1l1642 3038                        i1l1619 4370  
                      i1l1707 37E4                        _RC7PPS 0EFE                        i1l1644 30B0  
                      i1l1636 2FB6                        i1l1645 309E                        i2l1006 0E92  
                      i1l1670 24FA                        i1l1750 0790                        i1l1718 377C  
                      i2l1031 0E5E                        i1l1663 2304                        i1l1680 262A  
                      i1l1672 2572                        i1l1673 2560                        i1l1577 1B40  
                      i1l1594 1C5A                        i1l1586 1E10                        i1l1578 1B2E  
                      i1l1667 2668                        i1l1579 1AF4                        i1l1756 0140  
                      i2l1038 0E9E                        i2l1049 453A                        i1l1785 4514  
                      i1l7001 3A76                        i1l1779 3E7C                        i1l7011 3AAC  
                      i1l7003 3A86                        i1l7021 3AF4                        i1l7013 3ABC  
                      i1l7005 3A8A                        i1l7101 36D6                        i1l7031 3B38  
                      i1l7023 3AFE                        i1l7015 3AD2                        i1l7007 3A98  
                      i1l7111 375E                        i1l7103 3708                        i2l1280 4036  
                      i1l7025 3B1C                        i1l7017 3ADA                        i1l7033 3B3E  
                      i1l7009 3AA8                        i1l7121 37B4                        i1l7113 376C  
                      i1l7105 370A                        i1l7035 3B4E                        i1l7027 3B2C  
                      i1l7019 3AE6                        i1l7123 37C4                        i1l7115 378A  
                      i1l7107 3716                        i1l8101 19B8                        i1l7037 3B5E  
                      i1l7029 3B2E                        i1l7125 37D2                        i1l7117 378C  
                      i1l7109 3752                        i1l8111 19E6                        i1l8103 19BE  
                      i1l7127 37D4                        i1l7119 3790                        i1l8201 1BBC  
                      i1l8121 1A1A                        i1l8113 19E8                        i1l8105 19D0  
                      i1l9001 0B4E                        i1l8211 1C28                        i1l8203 1BBE  
                      i1l8131 1A56                        i1l8115 19F8                        i1l8123 1A22  
                      i1l8107 19D2                        i1l7091 3698                        i1l8221 1C80  
                      i1l8213 1C2A                        i1l8205 1BC8                        i1l8141 1A6A  
                      i1l8133 1A5A                        i1l8125 1A32                        i1l8117 1A08  
                      i1l8109 19D8                        i1l7093 36AE                        i1l7085 3634  
                      i1l8303 3E74                        i1l8311 4504                        i1l8231 1CAE  
                      i1l8215 1C3A                        i1l8207 1BCE                        i1l8151 1A7E  
                      i1l8143 1A6E                        i1l8135 1A5E                        i1l8127 1A44  
                      i1l8119 1A18                        i1l7087 3644                        i1l8401 2FA6  
                      i1l8233 1CBC                        i1l8225 1C94                        i1l8241 1CDA  
                      i1l8209 1BF4                        i1l8217 1C4A                        i1l8153 1A82  
                      i1l8145 1A72                        i1l8137 1A62                        i1l8129 1A52  
                      i1l8161 1A92                        i1l7097 36C2                        i1l7089 3652  
                      i1l8307 44E2                        i1l8411 2FF0                        i1l8403 2FB4  
                      i1l8331 2E06                        i1l8315 4474                        i1l8235 1CC4  
                      i1l8227 1C9E                        i1l8219 1C70                        i1l8243 1CE8  
                      i1l8171 1B02                        i1l8163 1A96                        i1l8155 1A86  
                      i1l8147 1A76                        i1l8139 1A66                        i1l8091 197E  
                      i1l8083 1950                        i1l8323 432A                        i1l7099 36CA  
                      i1l8309 4502                        i1l8421 3036                        i1l8413 3002  
                      i1l8405 2FC0                        i1l8341 2E46                        i1l8333 2E14  
                      i1l8501 2314                        i1l8317 448A                        i1l8253 1D3A  
                      i1l8261 1D90                        i1l8245 1CEC                        i1l8237 1CC8  
                      i1l8229 1CAC                        i1l8181 1B2C                        i1l8173 1B0E  
                      i1l8165 1AC0                        i1l8157 1A8A                        i1l8149 1A7A  
                      i1l8093 198E                        i1l8085 195E                        i1l8325 433C  
                      i1l8431 3096                        i1l8415 3018                        i1l8423 3048  
                      i1l8407 2FDE                        i1l8351 2E6C                        i1l8343 2E48  
                      i1l8335 2E16                        i1l8511 234E                        i1l8503 2324  
                      i1l8319 449A                        i1l8271 1DE2                        i1l8263 1DA0  
                      i1l8255 1D46                        i1l8247 1CFA                        i1l8239 1CD8  
                      i1l8191 1B82                        i1l8183 1B4E                        i1l8175 1B12  
                      i1l8167 1ADC                        i1l8159 1A8E                        i1l8095 199E  
                      i1l8087 196C                        i1l8441 3104                        i1l8425 3056  
                      i1l8417 301E                        i1l8409 2FE0                        i1l8361 2EAC  
                      i1l8353 2E7A                        i1l8337 2E26                        i1l8345 2E50  
                      i1l8329 2DF8                        i1l8521 23A0                        i1l8513 2364  
                      i1l8281 1E00                        i1l8273 1DE8                        i1l8265 1DB0  
                      i1l8257 1D54                        i1l8249 1D10                        i1l8193 1B90  
                      i1l8185 1B5E                        i1l8177 1B20                        i1l8169 1AEC  
                      i1l8097 19A0                        i1l8089 196E                        i1l8601 0026  
                      i1l8291 3E06                        i1l8451 316E                        i1l8435 30C0  
                      i1l8443 3108                        i1l8427 305A                        i1l8419 3028  
                      i1l8371 2EEC                        i1l8363 2EAE                        i1l8355 2E7C  
                      i1l8347 2E60                        i1l8339 2E36                        i1l8531 23E6  
                      i1l8523 23AE                        i1l8515 2370                        i1l8507 2338  
                      i1l8275 1DEA                        i1l8267 1DD0                        i1l8259 1D8E  
                      i1l8195 1B9E                        i1l8179 1B22                        i1l8099 19A8  
                      i1l8611 00C2                        i1l8603 0028                        i1l8293 3E12  
                      i1l8285 3D80                        i1l8453 3172                        i1l8445 3122  
                      i1l8437 30CC                        i1l8429 3068                        i1l8381 2F1C  
                      i1l8373 2EF4                        i1l8357 2E8C                        i1l8365 2EB6  
                      i1l8349 2E66                        i1l8541 2454                        i1l8533 2400  
                      i1l8525 23BA                        i1l8517 2388                        i1l8509 2344  
                      i1l8277 1DF0                        i1l8269 1DD4                        i1l8197 1BAA  
                      i1l8189 1B72                        i1l8621 0126                        i1l8613 00D4  
                      i1l8605 003E                        i1l8701 3CE4                        i1l8287 3DA0  
                      i1l8455 3180                        i1l8447 3138                        i1l8439 30DA  
                      i1l8391 2F5A                        i1l8383 2F1C                        i1l8375 2EF8  
                      i1l8367 2EC6                        i1l8359 2E9C                        i1l8551 24EA  
                      i1l8543 247E                        i1l8535 2410                        i1l8527 23CA  
                      i1l8519 2394                        i1l8471 225A                        i1l8279 1DFE  
                      i1l8199 1BAE                        i1l8631 0198                        i1l8615 00E8  
                      i1l8607 0064                        i1l8711 3D14                        i1l8703 3CF2  
                      i1l8289 3DDE                        i1l8297 3E1E                        i1l8457 3186  
                      i1l8449 3152                        i1l8393 2F6A                        i1l8369 2EDC  
                      i1l8561 252A                        i1l8553 24F8                        i1l8545 24B4  
                      i1l8537 242C                        i1l8529 23D6                        i1l8481 2292  
                      i1l8473 225C                        i1l8641 02E2                        i1l8633 019C  
                      i1l8625 0146                        i1l8609 0078                        i1l8721 3D3E  
                      i1l8713 3D1E                        i1l8801 031E                        i1l6971 422E  
                      i1l6963 41B2                        i1l8299 3E30                        i1l8459 3188  
                      i1l8395 2F7A                        i1l8387 2F30                        i1l8379 2F0C  
                      i1l8571 259C                        i1l8563 2558                        i1l8555 250A  
                      i1l8547 24C2                        i1l8539 2438                        i1l8491 22BE  
                      i1l8483 22A2                        i1l8475 226C                        i1l8467 223E  
                      i1l8651 03FC                        i1l8643 02E6                        i1l8635 0244  
                      i1l8627 016A                        i1l8619 0110                        i1l8723 3D4E  
                      i1l8803 032E                        i1l8731 003E                        i1l6973 4252  
                      i1l6965 41E0                        i1l8397 2F82                        i1l8389 2F4A  
                      i1l8581 2612                        i1l8573 25C6                        i1l8557 2518  
                      i1l8549 24E0                        i1l8493 22CE                        i1l8485 22A8  
                      i1l8477 227C                        i1l8469 224C                        i1l8661 0572  
                      i1l8653 0430                        i1l8645 038E                        i1l8637 0248  
                      i1l8629 0182                        i1l6981 45D2                        i1l8725 3D5E  
                      i1l8709 3D0A                        i1l8901 0660                        i1l8821 046C  
                      i1l8805 0368                        i1l8741 008A                        i1l8813 03FA  
                      i1l8733 004E                        i1l6975 4258                        i1l6967 41F0  
                      i1l8399 2F92                        i1l8583 262E                        i1l8591 2654  
                      i1l8567 2582                        i1l8575 25CA                        i1l8559 251C  
                      i1l8495 22DE                        i1l8487 22AE                        i1l8479 228C  
                      i1l8671 0646                        i1l8663 05A6                        i1l8655 048A  
                      i1l8647 0392                        i1l8639 02CC                        i1l6991 462E  
                      i1l6983 45D6                        i1l8727 3D6E                        i1l8719 3D32  
                      i1l8911 0698                        i1l8903 066E                        i1l8831 04BA  
                      i1l8823 047E                        i1l8815 0444                        i1l8807 0376  
                      i1l8751 00B6                        i1l8743 0098                        i1l6969 421E  
                      i1l8593 2658                        i1l8585 263E                        i1l8577 25E4  
                      i1l8569 258E                        i1l8497 22EE                        i1l8489 22BC  
                      i1l8673 069E                        i1l8665 05B6                        i1l8657 04E4  
                      i1l8649 03C8                        i1l6993 4632                        i1l6985 45DA  
                      i1l8913 06A6                        i1l8841 04FA                        i1l8833 04C2  
                      i1l8825 048E                        i1l8921 06C4                        i1l8817 0452  
                      i1l8809 03DE                        i1l8761 00DC                        i1l8753 00BE  
                      i1l8745 00A0                        i1l8737 0060                        i1l8587 264C  
                      i1l8579 25F8                        i1l8499 22F4                        i1l8675 06F2  
                      i1l8667 060E                        i1l8659 0518                        i1l6995 4636  
                      i1l6987 45DE                        i1l6979 45C6                        i1l8931 070A  
                      i1l8923 06D2                        i1l8915 06B4                        i1l8907 0676  
                      i1l8851 0532                        i1l8843 0508                        i1l8827 049E  
                      i1l8835 04CC                        i1l8819 0464                        i1l8771 012A  
                      i1l8763 00E4                        i1l8755 00C6                        i1l8747 00A8  
                      i1l8739 0078                        i1l8589 264E                        i1l8677 0726  
                      i1l8597 0000                        i1l6989 4622                        i1l6997 3A64  
                      i1l8693 3CA4                        i1l8941 07AA                        i1l8933 070E  
                      i1l8925 06E4                        i1l8909 0688                        i1l8861 0568  
                      i1l8853 0540                        i1l8837 04DC                        i1l8829 04AC  
                      i1l8781 0150                        i1l8773 0132                        i1l8765 00EE  
                      i1l8679 077A                        i1l8599 0010                        i1l6999 3A68  
                      i1l8695 3CCE                        i1l8687 3C78                        i1l8951 0816  
                      i1l8943 07B6                        i1l8935 071C                        i1l8927 06E8  
                      i1l8919 06C0                        i1l8863 0578                        i1l8855 054E  
                      i1l8839 04EC                        i1l8847 0510                        i1l8871 059E  
                      i1l8791 01A4                        i1l8783 015A                        i1l8759 00D4  
                      i1l8697 3CD0                        i1l8689 3C90                        i1l8961 08B4  
                      i1l8953 0844                        i1l8945 07D4                        i1l8937 075A  
                      i1l8929 06F8                        i1l8881 05E2                        i1l8873 05AE  
                      i1l8865 0586                        i1l8849 0522                        i1l8793 020A  
                      i1l8785 018A                        i1l8777 0140                        i1l8769 0122  
                      i1l8699 3CE0                        i1l8971 0A8C                        i1l8963 08CC  
                      i1l8955 085C                        i1l8947 07E0                        i1l8939 0798  
                      i1l8891 0628                        i1l8875 05BE                        i1l8883 05EC  
                      i1l8867 0594                        i1l8859 0556                        i1l8795 0262  
                      i1l8787 0190                        i1l8779 0148                        i1l8981 0AE0  
                      i1l8973 0A94                        i1l8965 0A48                        i1l8957 087A  
                      i1l8949 080A                        i1l8885 05FC                        i1l8877 05CC  
                      i1l8797 02C6                        i1l8789 0192                        i1l8991 0B1C  
                      i1l8983 0AEC                        i1l8975 0AB0                        i1l8967 0A64  
                      i1l8959 0886                        i1l8887 060C                        i1l8895 0630  
                      i1l8879 05DA                        i1l8799 02EA                        i2l6921 3F78  
                      i2l6913 4516                        i2l7801 090E                        i1l8993 0B30  
                      i1l8985 0AF8                        i1l8977 0ABC                        i1l8969 0A70  
                      i1l8897 0642                        i1l8889 061A                        i2l6931 3FA8  
                      i2l6923 3F86                        i2l6915 4532                        i2l7811 0956  
                      i2l7803 091C                        i1l8995 0B34                        i1l8987 0B08  
                      i1l8979 0AD8                        i1l8899 0652                        i2l6941 3FD6  
                      i2l6933 3FAC                        i2l6925 3F8E                        i2l7901 0B8E  
                      i2l7821 099E                        i2l7813 0964                        i2l7805 092A  
                      i1l8997 0B38                        i1l8989 0B0C                        i2l6951 400A  
                      i2l6943 3FE4                        i2l6935 3FB4                        i2l6927 3F92  
                      i2l6919 3F74                        i2l7911 0BCC                        i2l7903 0B9C  
                      i2l7831 09D4                        i2l7823 09AE                        i2l7815 0976  
                      i2l7807 093C                        i2l7751 07C8                        i1l8999 0B48  
                      i2l6953 4010                        i2l6945 3FEA                        i2l6937 3FC6  
                      i2l6929 3FA0                        i2l7913 0BDA                        i2l7905 0BAA  
                      i2l7921 0BF2                        i2l7833 09E0                        i2l7841 0A18  
                      i2l7817 0982                        i2l7809 0948                        i2l7761 0816  
                      i2l7753 07D6                        i2l7745 079A                        i2l6947 4000  
                      i2l6939 3FCE                        i2l6955 4016                        i2l7931 0C6E  
                      i2l7923 0C4C                        i2l7915 0BE6                        i2l7907 0BB6  
                      i2l7851 0A4E                        i2l7843 0A28                        i2l7835 09EA  
                      i2l7827 09C2                        i2l7819 0990                        i2l7771 085C  
                      i2l7763 0826                        i2l7755 07DE                        i2l7747 07AA  
                      i2l6957 4026                        i2l6949 4008                        i2l7941 0CB0  
                      i2l7933 0C7C                        i2l7909 0BBE                        i2l7925 0C50  
                      i2l7861 0A80                        i2l7853 0A58                        i2l7829 09C8  
                      i2l7781 08AA                        i2l7773 086A                        i2l7765 0838  
                      i2l7757 07EC                        i2l7749 07B8                        i2l6959 402E  
                      i2l7951 0CEA                        i2l7943 0CC2                        i2l7935 0C8A  
                      i2l7871 0AEA                        i2l7927 0C52                        i2l7855 0A60  
                      i2l7847 0A3C                        i2l7839 09F2                        i2l7791 08F0  
                      i2l7783 08BA                        i2l7775 0872                        i2l7767 084A  
                      i2l7759 0808                        i2l7961 0D0C                        i2l7953 0CFC  
                      i2l7945 0CC4                        i2l7937 0C92                        i2l7929 0C60  
                      i2l7881 0B1C                        i2l7857 0A68                        i2l7849 0A42  
                      i2l7865 0A88                        i2l7793 08FE                        i2l7785 08CC  
                      i2l7777 0880                        i2l7769 084E                        i2l7971 0D40  
                      i2l7963 0D1C                        i2l7955 0D08                        i2l7947 0CCC  
                      i2l7939 0CA4                        i2l7891 0B56                        i2l7883 0B2E  
                      i2l7875 0AFC                        i2l7867 0ACE                        i2l7859 0A72  
                      i2l7795 0904                        i2l7787 08DE                        i2l7779 089C  
                      i2l7981 0E5E                        i2l7973 0D50                        i2l7965 0D20  
                      i2l7949 0CDE                        i2l7893 0B5E                        i2l7877 0B0C  
                      i2l7869 0ADC                        i2l7797 0908                        i2l7789 08E2  
                      i2l7975 0E1C                        i2l7967 0D28                        i2l7895 0B6C  
                      i2l7887 0B3C                        i2l7879 0B14                        i2l7799 090A  
                      i2l7977 0E56                        i2l7969 0D30                        i2l7985 0E6C  
                      i2l7897 0B7A                        i2l7889 0B4A                        i2l7987 0E96  
                      i2l7899 0B86                        i2l7989 0E9A                        _NVMDAT 0F80  
                      _SPBRG1 0F9B                        _TMR0IE 7615                        _SPBRG2 0E9B  
                      _RX1PPS 0EB5                        _TMR1IE 7630                        _TMR1IF 7670  
                      _TMR2IE 7631                        _TMR0IP 75D5                        _RX2PPS 0E8D  
                      _TMR3IE 7632                        _TMR3IF 7672                        _TMR1IP 75F0  
                      _TMR4IE 7633                        _TMR2IP 75F1                        _TMR5IE 7634  
                      _TMR5IF 7674                        _TMR3IP 75F2                        _TMR6IE 7635  
                      _TMR6IF 7675                        _TMR4IP 75F3                        _TMR5IP 75F4  
                      _TMR3ON 7E48                        _TMR6IP 75F5                        _TX1REG 0F9A  
                      _TX2REG 0E9A                        _SSP2IE 762A                        _SSP2IF 766A  
                      _SSP2IP 75EA         __end_of_Motors_Enable 4560              __end_of___xxtofl 3632  
                 BT_Enable@BT 012A                        ___fleq 41B2                     ??___aldiv 0132  
                   ??___fladd 0159                        ___wmul 4516                     ??___fldiv 0140  
                   ??___awdiv 000B                     ??___flneg 012E                     ??___flmul 0140  
                   ??___flsub 0169                     ??___fltol 012E                        _atanhi FE83  
                      _atanlo FE73             __end_of_SSP2_Read 4602                        fabsf@u 001B  
                      fabsf@x 0017                        clear_0 42BA                        clear_1 42C6  
                      clear_2 42D2              ___awdiv@quotient 000D                        atanf@w 011D  
                      atanf@x 0096                        atanf@z 0122          i1SSP2_Write@SSP2_ADD 0019  
                      isa$std 0001                        _tempsd 00E0                        _tempsg 00E4  
        i1SSP2_Write@SSP2_REG 0017              __end_of_myLowIsr 0B7A             __end_ofi1___aldiv 3B70  
           __end_ofi1___fladd 1E12             __end_ofi1___fldiv 3194             __end_ofi1___flneg 44AC  
           __end_ofi1___flmul 266A             __end_ofi1___flsub 4372             __end_ofi1___fltol 3D80  
                __pdataCOMRAM 0047         ?_Motors_Get_Enc_Right 012A               ___fpclassifyf@e 001F  
             ___fpclassifyf@u 0021               ___fpclassifyf@x 0017                  __mediumconst FE72  
                      tblptrh 0FF7                        tblptrl 0FF6                        tblptru 0FF8  
             i1___fltol@sign1 0031               ??___fpclassifyf 001B                  ___xxtofl@arg 0134  
                ___xxtofl@exp 0133                  ___xxtofl@val 012A                    ___fleq@ff1 0017  
                  ___fleq@ff2 001B                    __accesstop 0060       __end_of__initialization 42D8  
                   ?_LCD_Init 0001                     ?_LCD_Goto 012E                    ___flneg@f1 012A  
               ___rparam_used 0001                    ___fltol@f1 012A                 LCD_Goto@ligne 012F  
              __pcstackCOMRAM 0001                  __pidataBANK0 463C                  __pidataBANK1 46A4  
               __end_of_fabsf 4516                 __end_of_atanf 0792                 ?i1_SSP2_Write 0017  
             _Compass_Calibre 266A   Motors_Turn_Angle@anglefloat 017F                       ??_fabsf 001B  
                     ??_atanf 0031             i1___aldiv@divisor 001B             i1___aldiv@counter 001F  
                  __pbssBANK0 00AB                    __pbssBANK1 0193                    ??_LCD_Init 012F  
                  ??_LCD_Goto 012F                    _atanf$2670 0100                    _atanf$2671 0118  
                  _atanf$2672 0104                    _atanf$2673 0108                    _atanf$2669 0114  
              i1___xxtofl@arg 0021                i1___xxtofl@exp 0020                i1___xxtofl@val 0017  
            Compass_Calibre@i 018F              Compass_Calibre@j 0190                       ?___fleq 0017  
              _Initialisation 0EAA                       ?___wmul 0001                       _CCP1CON 0FAC  
                     _CCP2CON 0FA8                ??i1_SSP2_Write 0019                       _CCPTMRS 0FAE  
  LIDAR_Motor_Enable@motor_en 012A        ??_Motors_Get_Enc_Right 012E                       _CPTTMR3 00D0  
                     _CPT_ENC 00D1                       _CPT_RC1 003E                       _CPT_RC2 003D  
                     _BP_Edge 0041                     ?___xxtofl 012A                 ?_Motors_Speed 012A  
                     _NVMADRH 0F7F                       _NVMADRL 0F7E                       _PWM3DCH 0FA4  
                     _NVMCON2 0F82                       _TMR1CLK 0FD2                       _PWM3CON 0FA5  
                     _TMR3CLK 0FCC                       _TMR5CLK 0FC6                       _SSP2ADD 0E93  
                     _SSP2BUF 0E92         __end_of_ENC_Get_Value 469A                  _CPTNBECHTMR3 00CF  
                ??_SSP2_Write 012C                     ?_myLowIsr 0001             __end_of_lcdNibble 41B2  
      __end_of_Initialisation 148E                       __Hparam 0000                       __Lparam 0000  
               LCD_Write@byte 012D           _BP_Get_Falling_Edge 43FA                 LCD_Write@type 012C  
                     ___aldiv 3956                       ___fladd 148E                       ___fldiv 2A5C  
                     ___awdiv 3F74                       ___flneg 443A                       ___flmul 1E12  
                     ___flsub 42E2                       ___fltol 3B70       __end_of_Compass_Calibre 2A5C  
                _Compass_Init 37E6                       __pcinit 425C                       __ramtop 0F00  
                ??i1___xxtofl 001B                       __ptext0 4684                       __ptext1 0EAA  
                     __ptext2 4038                       __ptext3 464E                       __ptext4 3E7E  
                     __ptext5 4690                       __ptext6 37E6                       __ptext7 45A4  
                     __ptext8 266A                       __ptext9 443A                       _erreurd 00C5  
                     _erreurg 00C7             __end_of_myHighIsr 0EAA                ??_Motors_Speed 012B  
          __end_of_SSP2_Write 4582                    ??___xxtofl 012E              ___aldiv@dividend 012A  
               _myLowIsr$2668 00A7                       atanf@s1 010C                       atanf@s2 0110  
                     atanf@id 0121         __end_of_ENC_Set_Value 46A4                       atanf@ix 0126  
       i1SSP2_Write@SSP2_DATA 0018                     _LCD_Clear 45A4          ?_BP_Get_Falling_Edge 0001  
         Motors_Enable@enable 012A                     _LCD_Retro 464E                     _LCD_Print 4372  
                   _LCD_Write 43B8                __pintcode_body 0792          end_of_initialization 42D8  
   Motors_Turn_Angle@erreurad 0187     Motors_Turn_Angle@erreurag 0183                 _millisecondes 019B  
                   i1u1000_20 2518                     i1u1000_21 2514                     i1u1001_20 252A  
                   i1u1001_21 2526                     i1u1002_20 2558                     i1u1010_20 0024  
                   i1u1002_21 2554                     i1u1003_20 256E                     i1u1011_20 003E  
                   i1u1003_21 256A                     i1u1011_21 003A                     i1u1004_20 2582  
                   i1u1020_20 078C                     i1u1012_20 0064                     i1u1004_21 257E  
                   i1u1020_21 0788                     i1u1012_21 0060                     i1u1005_20 259C  
                   i1u1013_20 00D4                     i1u1021_20 3C90                     i1u1005_21 2598  
                   i1u1013_21 00D0                     i1u1021_21 3C8C                     i1u1006_20 25E4  
                   i1u1014_20 0126                     i1u1022_20 3CC4                     i1u1030_20 0078  
                   i1u1006_21 25E0                     i1u1014_21 0122                     i1u1030_21 0074  
                   i1u1022_25 3CBA                     i1u1007_20 2612                     i1u1015_20 013C  
                   i1u1023_20 3CF2                     i1u1031_20 01A4                     i1u1007_21 260E  
                   i1u1015_21 0138                     i1u1023_21 3CEE                     i1u1031_21 01A0  
                   i1u1008_20 264C                     i1u1016_20 0182                     i1u1024_20 3D06  
                   i1u1040_20 047E                     i1u1008_21 2648                     i1u1016_21 017E  
                   i1u1024_21 3D02                     i1u1040_21 047A                     i1u1032_25 01B0  
                   i1u1017_20 0198                     i1u1009_20 0022                     i1u1025_20 3D2E  
                   i1u1041_20 048E                     i1u1017_21 0194                     i1u1009_21 001C  
                   i1u1025_21 3D2A                     i1u1041_21 048A                     i1u1033_25 01E4  
                   i1u1018_20 02E2                     i1u1026_20 3D4E                     i1u1050_20 0532  
                   i1u1042_20 049E                     i1u1034_20 032E                     i1u1018_21 02DE  
                   i1u1026_21 3D4A                     i1u1050_21 052E                     i1u1042_21 049A  
                   i1u1034_21 032A                     i1u1019_20 05B6                     i1u1027_20 3D5E  
                   i1u1051_20 0540                     i1u1043_20 04AC                     i1u1035_20 0376  
                   i1u1019_21 05B2                     i1u1027_21 3D5A                     i1u1051_21 053C  
                   i1u1043_21 04A8                     i1u1035_21 0372                     i1u1060_20 05DA  
                   i1u1052_20 054E                     i1u1044_20 04BA                     i1u1036_20 03DE  
                   i1u1028_20 004E                     i1u1060_21 05D6                     i1u1052_21 054A  
                   i1u1044_21 04B6                     i1u1036_21 03DA                     i1u1028_21 004A  
                   i1u1061_20 05FC                     i1u1053_20 0568                     i1u1045_20 04DC  
                   i1u1037_20 0444                     i1u1029_20 005C                     i1u1061_21 05F8  
                   i1u1053_21 0564                     i1u1045_21 04D8                     i1u1037_21 0440  
                   i1u1029_21 0058                     i1u1070_20 0698                     i1u1062_20 060C  
                   i1u1054_20 0578                     i1u1046_20 04EC                     i1u1038_20 0452  
                   i1u1070_21 0694                     i1u1062_21 0608                     i1u1054_21 0574  
                   i1u1046_21 04E8                     i1u1038_21 044E                     i1u1071_20 06A6  
                   i1u1063_20 061A                     i1u1055_20 0586                     i1u1047_20 04FA  
                   i1u1039_20 0464                     i1u1071_21 06A2                     i1u1063_21 0616  
                   i1u1055_21 0582                     i1u1047_21 04F6                     i1u1039_21 0460  
                   i1u1080_20 0844                     i1u1072_20 06B4                     i1u1064_20 0628  
                   i1u1056_20 0594                     i1u1048_20 0508                     i1u1080_21 0840  
                   i1u1072_21 06B0                     i1u1064_21 0624                     i1u1056_21 0590  
                   i1u1048_21 0504                     i1u1081_20 087A                     i1u1073_20 06D2  
                   i1u1065_20 0642                     i1u1057_20 05AE                     i1u1049_20 0522  
                   i1u1081_21 0876                     i1u1073_21 06CE                     i1u1065_21 063E  
                   i1u1057_21 05AA                     i1u1049_21 051E                     i1u1082_20 08B4  
                   i1u1074_20 06E0                     i1u1066_20 0652                     i1u1058_20 05BE  
                   i1u1082_21 08B0                     i1u1074_21 06DC                     i1u1066_21 064E  
                   i1u1058_21 05BA                     i1u1083_20 0A64                     i1u1075_20 06F8  
                   i1u1067_20 0660                     i1u1059_20 05CC                     i1u1083_21 0A60  
                   i1u1075_21 06F4                     i1u1067_21 065C                     i1u1059_21 05C8  
                   i1u1084_20 0A8C                     i1u1076_20 0706                     i1u1068_20 066E  
                   i1u1084_21 0A88                     i1u1076_21 0702                     i1u1068_21 066A  
                   i1u1085_20 0AB0                     i1u1077_20 07AA                     i1u1069_20 0688  
                   i1u1085_21 0AAC                     i1u1077_21 07A6                     i1u1069_21 0684  
                     int_func 0792                     i1u1086_20 0AD8                     i1u1078_20 07D4  
                   i1u1086_21 0AD4                     i1u1078_21 07D0                     i1u1087_20 0B08  
                   i1u1079_20 080A                     i1u1087_21 0B04                     i1u1079_21 0806  
                   _BT_Enable 4602                     i1u1088_20 0B1C                     i1u1088_21 0B18  
                   _BP_Status 0048                    ??_myLowIsr 009A                  _MAGN_X_TOTAL 01AF  
                _MAGN_Y_TOTAL 01AB            __end_ofi1___xxtofl 37E6               ?_Initialisation 0001  
            ___aldiv@quotient 0134                       postdec1 0FE5                       postinc0 0FEE  
                  _resteturna 0197            SSP2_Write@SSP2_ADD 012C                     _PORTAbits 0F8D  
                   _PORTBbits 0F8E            SSP2_Write@SSP2_REG 012A                     _PORTCbits 0F8F  
                   _PORTDbits 0F90                  _distance_max 0035                  _distance_min 0033  
  __end_of_LIDAR_Motor_Enable 40FA                     _SSP2_Read 45E4                   ___fladd@grs 0160  
 __end_of_Motors_Get_Enc_Left 4684                 ___xxtofl@sign 0132         ??_BP_Get_Falling_Edge 012A  
                   i1___aldiv 3A64                    ?_LCD_Clear 0001                     i1___fladd 1950  
                   i1___fldiv 2DF8                     i1___flneg 4474                     i1___flmul 223E  
                 ___fldiv@grs 014B                     i1___flsub 432A                     i1___fltol 3C78  
                 ___fldiv@rem 0144                    ?_LCD_Retro 0001                    ?_LCD_Print 012E  
                  ?_LCD_Write 012C                   ___flmul@grs 0145          __end_ofi1_SSP2_Write 45E4  
                  ?_BT_Enable 0001                    LCD_Print@t 012E              ?_Compass_Calibre 0001  
              __end_of___fleq 425C                __end_of___wmul 453C                 __pidataCOMRAM 46AC  
              __end_of_atanhi FE93                __end_of_atanlo FE83                    ?_SSP2_Read 012A  
         start_initialization 425C                   __end_of_aT0 FEA7                   __end_of_aT1 FEA3  
                 __end_of_aT2 FE9F                   __end_of_aT3 FE9B                   __end_of_aT4 FE97  
                  ?i1___aldiv 0017                    ?i1___fladd 006D                    ?i1___fldiv 007D  
                  ?i1___flneg 0017                    ?i1___flmul 0025                    ?i1___flsub 007D  
                  ?i1___fltol 006D                _myHighIsr$2537 0015             SSP2_Read@SSP2_ADD 012B  
           SSP2_Read@SSP2_REG 012A         __end_of___fpclassifyf 3E7E          __end_of_Motors_Speed 45A4  
                    ??___fleq 001F                      ??___wmul 0005                   __pdataBANK0 00D8  
                 __pdataBANK1 01C2            i1___aldiv@dividend 0017              ENC_Set_Value@val 012A  
                   ___fladd@a 0155                     ___fladd@b 0151                     ___fldiv@a 013C  
                   ___fldiv@b 0138                     ___flmul@a 013C                     ___flmul@b 0138  
                 __pbssCOMRAM 0033                     ___flsub@a 0165                     ___flsub@b 0161  
               __pcstackBANK0 0060                 __pcstackBANK1 0100                   ??_LCD_Clear 012E  
                 ??_LCD_Retro 012A                   ??_LCD_Print 0130                   ??_LCD_Write 012D  
             i1___xxtofl@sign 001F                   ??_BT_Enable 012A             i1___fldiv@new_exp 008E  
          i1___aldiv@quotient 0021                 _Motors_Enable 453C                LCD_Retro@retro 012A  
                   _angle_max 0039                     _angle_min 0037                   _angle_max_r 00B7  
                 _angle_min_r 00B5                     __pintcode 0008                 __pmediumconst FE72  
                   _lcdNibble 40FA                      ?___aldiv 012A                 ??i1_SSP2_Read 0018  
                    ?___fladd 0151                      ?___fldiv 0138                      ?___awdiv 0007  
                    ?___flneg 012A                      ?___flmul 0138                      ?___flsub 0161  
                    ?___fltol 012A                   __pintcodelo 0018                     _consigned 00BD  
                   _consigneg 00BF                   ??_SSP2_Read 012B                     fabsf@F465 0193  
                 ??i1___aldiv 001F                   ??i1___fladd 0075                   ??i1___fldiv 0085  
                 ??i1___flneg 001B                   ??i1___flmul 002D                   ??i1___flsub 0031  
                 ??i1___fltol 0071                     _myHighIsr 0008                   _RC1REG_DATA 0040  
                    _T2CLKCON 0FBF                      _T4CLKCON 0FB9                   _RC2REG_DATA 003F  
                    _T6CLKCON 0FB3             _Motors_Turn_Angle 3194              ??_Initialisation 0191  
                    _MAGN_X_H 01BF                      _MAGN_X_L 01BD                      _MAGN_Y_H 01B9  
                    _MAGN_Y_L 01B7               ___aldiv@divisor 012E                      _CPT_ENCD 019F  
                    _CPT_ENCG 01A3               ___aldiv@counter 0132                      _LCD_Init 3E7E  
                    _LCD_Goto 44AC                ___wmul@product 0005                      _LATAbits 0F83  
              ?_Motors_Enable 0001                      _LATBbits 0F84                      _LATDbits 0F86  
                    _LATEbits 0F87            ?_Motors_Turn_Angle 0169                      _PMD0bits 0EE1  
                    _PMD2bits 0EE3                      _PMD3bits 0EE4                   _MAGN_X_ZERO 00CB  
                    _PMD4bits 0EE5                      _PMD5bits 0EE6                   _MAGN_Y_ZERO 00C9  
                    i1u750_20 41E0                      i1u750_21 41DC                      i1u751_20 421E  
                    i1u751_21 421A                      i1u752_20 4252                      i1u920_20 196C  
                    i1u752_21 424E                      i1u920_21 1968                      i1u921_20 197E  
                    i1u753_20 3A76                      i1u921_21 197A                      i1u753_21 3A72  
                    i1u930_20 1AD8                      i1u922_20 198E                      i1u754_20 3A98  
                    i1u770_20 374E                      i1u930_21 1AD2                      i1u922_21 198A  
                    i1u754_21 3A94                      i1u770_21 374A                      i1u931_20 1ADA  
                    i1u923_20 19D0                      i1u755_20 3AD2                      i1u771_20 376C  
                    i1u923_21 19CC                      i1u755_21 3ACE                      i1u771_21 3768  
                    i1u940_20 1BF4                      i1u932_20 1B02                      i1u924_20 19E6  
                    i1u756_20 3AF4                      i1u772_20 377C                      i1u940_21 1BF0  
                    i1u932_21 1AFE                      i1u924_21 19E2                      i1u756_21 3AF0  
                    i1u772_21 3778                      i1u941_20 1C3A                      i1u933_20 1B20  
                    i1u925_20 19F8                      i1u757_20 3B1C                      i1u773_20 378A  
                    i1u941_21 1C36                      i1u933_21 1B1C                      i1u925_21 19F4  
                    i1u757_21 3B18                      i1u773_21 3786                      i1u950_20 1D26  
                    i1u942_20 1C70                      i1u934_20 1B40                      i1u926_20 1A08  
                    i1u758_20 3B4E                      i1u774_20 37C4                      i1u766_20 3644  
                    i1u950_21 1D22                      i1u942_21 1C6C                      i1u934_21 1B3C  
                    i1u926_21 1A04                      i1u758_21 3B4A                      i1u774_21 37C0  
                    i1u766_21 3640                      i1u951_20 1D3A                      i1u943_20 1C80  
                    i1u935_20 1B4E                      i1u927_20 1A44                      i1u775_20 37D2  
                    i1u767_20 3652                      i1u951_21 1D36                      i1u943_21 1C7C  
                    i1u935_21 1B4A                      i1u927_21 1A40                      i1u775_21 37CE  
                    i1u767_21 364E                      i1u960_20 3DDE                      i1u952_20 1D54  
                    i1u944_20 1CAC                      i1u936_20 1B5E                      i1u928_20 1A52  
                    i1u768_20 36AE                      i1u960_21 3DDA                      i1u952_21 1D50  
                    i1u944_21 1CA8                      i1u936_21 1B5A                      i1u928_21 1A4E  
                    i1u768_21 36AA                      i1u961_20 3E06                      i1u953_20 1D8E  
                    i1u945_20 1CBC                      i1u937_20 1B90                      i1u929_20 1AC0  
                    i1u769_20 3704                      i1u961_21 3E02                      i1u953_21 1D8A  
                    i1u945_21 1CB8                      i1u937_21 1B8C                      i1u929_21 1ABC  
                    i1u769_21 3700                      i1u962_20 3E30                      i1u970_20 2E7A  
                    i1u954_20 1DA0                      i1u946_20 1CD8                      i1u938_20 1B9E  
                    i1u962_21 3E2C                      i1u970_21 2E76                      i1u954_21 1D9C  
                    i1u946_21 1CD4                      i1u938_21 1B9A                      i1u971_20 2E8C  
                    i1u955_20 1DB0                      i1u947_20 1CE8                      i1u939_20 1BBC  
                    i1u971_21 2E88                      i1u955_21 1DAC                      i1u947_21 1CE4  
                    i1u939_21 1BB8                     atanf@sign 011C                      i1u963_25 3E42  
                    i1u964_20 3E6A                      i1u980_20 3036                      i1u972_20 2E9C  
                    i1u956_20 1DD0                      i1u948_20 1CFA                      i1u964_21 3E64  
                    i1u980_21 3032                      i1u972_21 2E98                      i1u956_21 1DCC  
                    i1u948_21 1CF6                      i2u900_40 09BE                      i2u900_41 09BA  
                    i1u965_20 3E6C                      i1u981_20 3056                      i1u973_20 2EDC  
                    i1u957_20 1DE2                      i1u949_20 1D10                      i1u981_21 3052  
                    i1u973_21 2ED8                      i1u957_21 1DDE                      i1u949_21 1D0C  
                    i2u901_40 0A28                      i2u901_41 0A24                      i1u982_20 3068  
                    i1u974_20 2F1C                      i1u990_20 225A                      i1u966_20 448A  
                    i1u958_20 1DFE                      i1u982_21 3064                      i1u974_21 2F18  
                    i1u990_21 2256                      i1u966_21 4486                      i1u958_21 1DFA  
                    i2u910_40 0C6E                      i2u902_40 0A38                      i2u910_41 0C6A  
                    i2u902_41 0A34                      i1u959_20 3DC0                      i1u983_20 3096  
                    i1u975_20 2F92                      i1u967_20 2E14                      i1u991_20 226C  
                    i1u983_21 3092                      i1u975_21 2F8E                      i1u967_21 2E10  
                    i1u991_21 2268                      i2u911_40 0C7C                      i2u903_40 0ACE  
                    i2u911_41 0C78                      i2u903_41 0ACA                      i1u959_25 3DB6  
                    i1u984_20 30AC                      i1u976_20 2FB4                      i1u968_20 2E26  
                    i1u992_20 227C                      i1u984_21 30A8                      i1u976_21 2FB0  
                    i1u968_21 2E22                      i1u992_21 2278                      i2u744_40 3F86  
                    i2u912_40 0C8A                      i2u904_40 0ADC                      i2u744_41 3F82  
                    i2u912_41 0C86                      i2u904_41 0AD8                      i1u985_20 30C0  
                    i1u977_20 2FDE                      i1u969_20 2E36                      i1u993_20 22BC  
                    i1u985_21 30BC                      i1u977_21 2FDA                      i1u969_21 2E32  
                    i1u993_21 22B8                      i2u745_40 3FA0                      i2u913_40 0CA4  
                    i2u905_40 0AEA                      i2u745_41 3F9C                      i2u913_41 0CA0  
                    i2u905_41 0AE6                      i1u986_20 30DA                      i1u978_20 3002  
                    i1u994_20 22CE                      i1u986_21 30D6                      i1u978_21 2FFE  
                    i1u994_21 22CA                      i2u746_40 3FC6                      i2u914_40 0CC2  
                    i2u906_40 0AF8                      i2u746_41 3FC2                      i2u914_41 0CBE  
                    i2u906_41 0AF4                      i1u987_20 3122                      i1u979_20 3018  
                    i1u995_20 22DE                      i1u987_21 311E                      i1u979_21 3014  
                    i1u995_21 22DA                      i2u747_40 3FE4                      i2u915_40 0CDE  
                    i2u907_40 0B0C                      i2u747_41 3FE0                      i2u915_41 0CDA  
                    i2u907_41 0B08                      i1u988_20 3152                      i1u996_20 2314  
                    i1u988_21 314E                      i1u996_21 2310                      i2u748_40 4000  
                    i2u916_40 0CFC                      i2u908_40 0B2E                      i2u748_41 3FFC  
                    i2u916_41 0CF8                      i2u908_41 0B2A                      i1u989_20 3180  
                    i1u997_20 2324                      i1u989_21 317C                      i1u997_21 2320  
                    i2u749_40 4026                      i2u917_40 0D1C                      i2u909_40 0C60  
                    i2u749_41 4022                      i2u917_41 0D18                      i2u909_41 0C5C  
                    i1u998_20 249E                      i2u918_40 0D40                      i2u918_41 0D3C  
                    i1u998_25 2494                      i1u999_20 24F8                      i1u999_21 24F4  
                    i2u919_40 0D50                      i2u919_41 0D4C                      i2u880_40 07B8  
                    i2u880_41 07B4                      i2u881_40 07C8                      i2u881_41 07C4  
                    i2u890_40 08AA                      i2u882_40 07EC                      i2u890_41 08A6  
                    i2u882_41 07E8                      i2u891_40 08F0                      i2u883_40 07FA  
                    i2u891_41 08EC                      i2u883_41 07F6                      i2u892_40 08FE  
                    i2u884_40 0808                      i2u892_41 08FA                      i2u884_41 0804  
                    i2u893_40 091C                      i2u885_40 0816                      i2u893_41 0918  
                    i2u885_41 0812                      i2u894_40 092A                      i2u886_40 085C  
                    i2u894_41 0926                      i2u886_41 0858                      i2u895_40 0956  
                    i2u887_40 0880                      i2u879_40 07AA                      i2u895_41 0952  
                    i2u887_41 087C                      i2u879_41 07A6                      i2u896_40 0964  
                    i2u888_40 088E                      i2u896_41 0960                      i2u888_41 088A  
                    i2u897_40 0990                      i2u889_40 089C                      i2u897_41 098C  
                    i2u889_41 0898                      i2u898_40 099E                      i2u898_41 099A  
                    i2u899_40 09AE                      i2u899_41 09AA                    ?_lcdNibble 0001  
         ??_Motors_Turn_Angle 016B                      _SSP2CON1 0E96                      _SSP2CON3 0E98  
                    _SSP2STAT 0E95             ___wmul@multiplier 0001                  i1_SSP2_Write 45C4  
         __end_ofi1_SSP2_Read 463C                 _SSP2_DATA_ISR 01C1                    ?_myHighIsr 0001  
   __end_of_Motors_Turn_Angle 347A                     copy_data0 4270                     copy_data1 4290  
          _LIDAR_Motor_Enable 4038                      __Hrparam 0000           ?_LIDAR_Motor_Enable 0001  
                  _ANGLE_MAGN 00D4                      __Lrparam 0000              Motors_Speed@vitd 012A  
            Motors_Speed@vitg 012B   __end_of_BP_Get_Falling_Edge 443A            ___fpclassifyf@F465 00AB  
                    ___xxtofl 347A          ??_LIDAR_Motor_Enable 012A                  _Motors_Speed 4582  
                 _RAPPORT_X_Y 01A7                      __ptext10 2A5C                      __ptext11 3956  
                    __ptext20 4582                      __ptext12 4560                      __ptext21 4660  
                    __ptext13 45E4                      __ptext30 43FA                      __ptext22 4672  
                    __ptext14 3194                      __ptext23 453C                      __ptext15 347A  
                    __ptext40 4474                      __ptext32 3632                      __ptext24 4372  
                    __ptext16 3B70                      __ptext41 223E                      __ptext33 3C78  
                    __ptext25 44AC                      __ptext17 42E2                      __ptext42 2DF8  
                    __ptext34 3A64                      __ptext26 43B8                      __ptext18 148E  
                    __ptext43 44E2                      __ptext35 45C4                      __ptext27 40FA  
                    __ptext19 1E12                      __ptext44 3D80                      __ptext36 4620  
                    __ptext28 469A                      __ptext45 41B2                      __ptext37 0000  
                    __ptext29 4602                      __ptext38 432A                      __ptext47 4516  
                    __ptext39 1950                      __ptext48 3F74                  _SSP2CON2bits 0E97  
                    _consigne 01B3               ??_Motors_Enable 012A                 _ENC_Get_Value 4690  
                    _myLowIsr 0018                    _MAGN_X_MAX 01C8                    _MAGN_X_MIN 01C6  
                  _MAGN_Y_MAX 01C4                    _MAGN_Y_MIN 01C2                    _RC1STAbits 0F9D  
                    _sigmamax 00E8                  _sigmaerreurd 00C1                  _sigmaerreurg 00C3  
                  _RC2STAbits 0E9D                      isa$xinst 0000                   ??_lcdNibble 012A  
                    int$flags 0049                   i1_SSP2_Read 4620                  _SSP2_ADD_ISR 0043  
                 _NVMCON1bits 0F81                  _SSP2_REG_ISR 0042                 _ENC_Set_Value 469A  
                 ??_myHighIsr 000F                      intlevel1 0000                      intlevel2 0000  
              ?_ENC_Get_Value 012A                    _RCSTA1bits 0F9D                    _RCSTA2bits 0E9D  
         i1SSP2_Read@SSP2_ADD 0018           i1SSP2_Read@SSP2_REG 0017                 ?_Compass_Init 0001  
              _distance_max_r 00B3                _distance_min_r 00B1                    _SSP2DATPPS 0E90  
                  _SSP2CLKPPS 0E8F                  ___aldiv@sign 0133                ?_ENC_Set_Value 012A  
         SSP2_Write@SSP2_DATA 012B                    _TX1STAbits 0F9E                    _TX2STAbits 0E9E  
               ___fladd@signs 015D        Motors_Turn_Angle@angle 0169        Motors_Turn_Angle@coeff 017B  
                ___fladd@aexp 015E                  ___fladd@bexp 015F                    _SSP2_Write 4560  
       Motors_Turn_Angle@encd 0177         Motors_Turn_Angle@encg 0173  __end_of_Motors_Get_Enc_Right 4672  
